
foo.hunk:     file format amiga
foo.hunk
architecture: m68k:68000, flags 0x00000011:
HAS_RELOC, HAS_SYMS
start address 0x00000000

Sections:
Idx Name          Size      VMA       LMA       File off  Algn
  0 .text         000000ec  00000000  00000000  000000a4  2**2
                  CONTENTS, ALLOC, LOAD, RELOC, CODE
  1 .data         00000014  00000000  00000000  00000244  2**2
                  CONTENTS, ALLOC, LOAD, DATA
  2 .text         00000094  00000000  00000000  00000284  2**2
                  CONTENTS, ALLOC, LOAD, RELOC, CODE
  3 .data         00000020  00000000  00000000  00000438  2**2
                  CONTENTS, ALLOC, LOAD, DATA
  4 .text         00004014  00000000  00000000  00000484  2**2
                  CONTENTS, ALLOC, LOAD, RELOC, CODE
  5 .data         00000058  00000000  00000000  00005510  2**2
                  CONTENTS, ALLOC, LOAD, RELOC, DATA
  6 .bss          000002d4  00000000  00000000  000055c4  2**2
                  ALLOC
  7 .text         0000025c  00000000  00000000  00005658  2**2
                  CONTENTS, ALLOC, LOAD, RELOC, CODE
  8 .bss          00000014  00000000  00000000  000059c4  2**2
                  ALLOC
  9 .text         000005ec  00000000  00000000  00005a18  2**2
                  CONTENTS, ALLOC, LOAD, RELOC, CODE
 10 .bss          000000a8  00000000  00000000  00006200  2**2
                  ALLOC
 11 .text         000012f0  00000000  00000000  00006234  2**2
                  CONTENTS, ALLOC, LOAD, RELOC, CODE
 12 .data         00000004  00000000  00000000  000078c8  2**2
                  CONTENTS, ALLOC, LOAD, DATA
 13 .bss          000000cc  00000000  00000000  000078d8  2**2
                  ALLOC
 14 .text         00000124  00000000  00000000  000078e4  2**2
                  CONTENTS, ALLOC, LOAD, RELOC, CODE
 15 .bss          00000200  00000000  00000000  00007a9c  2**2
                  ALLOC
 16 .text         0000142c  00000000  00000000  00007aa8  2**2
                  CONTENTS, ALLOC, LOAD, RELOC, CODE
 17 .data         00000004  00000000  00000000  00009604  2**2
                  CONTENTS, ALLOC, LOAD, RELOC, DATA
 18 .bss          000000ac  00000000  00000000  00009628  2**2
                  ALLOC
 19 .text         00002880  00000000  00000000  000096f4  2**2
                  CONTENTS, ALLOC, LOAD, RELOC, CODE
 20 .bss          00000044  00000000  00000000  0000c584  2**2
                  ALLOC
 21 .text         0000103c  00000000  00000000  0000c590  2**2
                  CONTENTS, ALLOC, LOAD, RELOC, CODE
 22 .data         00000004  00000000  00000000  0000dc2c  2**2
                  CONTENTS, ALLOC, LOAD, DATA
 23 .bss          00000014  00000000  00000000  0000dc3c  2**2
                  ALLOC
 24 .text         000006e0  00000000  00000000  0000dc48  2**2
                  CONTENTS, ALLOC, LOAD, RELOC, CODE
 25 .bss          00000018  00000000  00000000  0000e650  2**2
                  ALLOC
 26 .text         00000314  00000000  00000000  0000e6a0  2**2
                  CONTENTS, ALLOC, LOAD, RELOC, CODE
 27 .text         000000fc  00000000  00000000  0000eb08  2**2
                  CONTENTS, ALLOC, LOAD, RELOC, CODE
 28 .bss          00000004  00000000  00000000  0000ecdc  2**2
                  ALLOC
 29 .text         00000000  00000000  00000000  0000ece8  2**2
                  CONTENTS, ALLOC, LOAD, CODE
 30 .text         000028d8  00000000  00000000  0000ecf4  2**2
                  CONTENTS, ALLOC, LOAD, RELOC, CODE
 31 .data         0000000c  00000000  00000000  000120d4  2**2
                  CONTENTS, ALLOC, LOAD, DATA
 32 .bss          0000045c  00000000  00000000  000120ec  2**2
                  ALLOC
 33 .data         00000004  00000000  00000000  0001215c  2**2
                  CONTENTS, ALLOC, LOAD, DATA
SYMBOL TABLE:
00000086 g       .text      0000 00 __autil_exit
00000000 g       .text      0000 00 _start
00000004 g       .data      0000 00 ___StartupMsg
0000003e g       .text      0000 00 _foo
00000036 g       .text      0000 00 __aqb_clear
00000000 g       .text      0000 00 __aqb_main
00000000 g       .data      0000 00 __aqb_stack_size
00003eb6 g       .text      0000 00 __awindow_init
00003db6 g       .text      0000 00 _INKEY_
00003d2a g       .text      0000 00 _PALETTE_LOAD
00003ca8 g       .text      0000 00 __palette_load
00003be6 g       .text      0000 00 _TEXTWIDTH_
00003b4c g       .text      0000 00 _FONTSTYLE_
00003aa2 g       .text      0000 00 _FONTSTYLE
000039f8 g       .text      0000 00 _FONT
000038a0 g       .text      0000 00 _FONT_
00003826 g       .text      0000 00 _FONT_FREE
0000365c g       .text      0000 00 _PUT
000034a2 g       .text      0000 00 _GET
000033ca g       .text      0000 00 _BITMAP_MASK
00003396 g       .text      0000 00 _BITMAP_OUTPUT
0000313a g       .text      0000 00 _BITMAP_
00003070 g       .text      0000 00 _BITMAP_FREE
00002fc0 g       .text      0000 00 _PATTERN_RESTORE
00002eca g       .text      0000 00 _PATTERN
00002e2c g       .text      0000 00 _AREA_OUTLINE
00002d44 g       .text      0000 00 _AREAFILL
00002b42 g       .text      0000 00 _AREA
0000299a g       .text      0000 00 _PAINT
000028ac g       .text      0000 00 _COLOR
0000280a g       .text      0000 00 _PALETTE
0000243e g       .text      0000 00 _POS_
000023b4 g       .text      0000 00 _CSRLIN_
00002306 g       .text      0000 00 _LOCATE_XY
00001c86 g       .text      0000 00 _ON_MOUSE_MOTION_CALL
00001bdc g       .text      0000 00 _MOUSE_MOTION_OFF
00001b32 g       .text      0000 00 _MOUSE_MOTION_ON
00001976 g       .text      0000 00 _MOUSE_
00001966 g       .text      0000 00 _ON_MOUSE_CALL
000018c2 g       .text      0000 00 _MOUSE_OFF
0000181e g       .text      0000 00 _MOUSE_ON
000016a8 g       .text      0000 00 _WINDOW_
00001672 g       .text      0000 00 _ON_WINDOW_CLOSE_CALL
00001654 g       .text      0000 00 _VWAIT
000015d0 g       .text      0000 00 _SLEEP
00001152 g       .text      0000 00 _deadKeyConvert
00000d4e g       .text      0000 00 _CIRCLE
00000c96 g       .text      0000 00 _POINT_
00000b9a g       .text      0000 00 _PSET
000009d4 g       .text      0000 00 _LINE
000008f4 g       .text      0000 00 __aqb_get_win
00000828 g       .text      0000 00 __aqb_get_output
000005fc g       .text      0000 00 __awindow_shutdown
0000054e g       .text      0000 00 _WINDOW_OUTPUT
00000500 g       .text      0000 00 __window_add_msg_cb
000004b2 g       .text      0000 00 __window_add_close_cb
0000040e g       .text      0000 00 _WINDOW_CLOSE
00000198 g       .text      0000 00 _WINDOW
00000138 g       .text      0000 00 _SCREEN_CLOSE
0000000c g       .text      0000 00 _SCREEN
00000052 g       .data      0000 00 __g_cur_win_id
00000050 g       .data      0000 00 __g_active_win_id
00000012 g       .bss       0000 00 __g_cur_bm
0000000e g       .bss       0000 00 __g_cur_vp
0000000a g       .bss       0000 00 __g_cur_rp
00000006 g       .bss       0000 00 __g_cur_win
00000002 g       .bss       0000 00 __g_cur_scr
00000000 g       .bss       0000 00 __g_active_scr_id
0000013e g       .text      0000 00 ___aqb_init
00000000 g       .text      0000 00 __aqb_shutdown
00000008 g       .bss       0000 00 _DiskfontBase
00000004 g       .bss       0000 00 _GfxBase
00000000 g       .bss       0000 00 _IntuitionBase
00000564 g       .text      0000 00 _TIMER_OFF
0000042a g       .text      0000 00 _TIMER_ON
00000340 g       .text      0000 00 _ON_TIMER_CALL
00000078 g       .text      0000 00 __atimer_process_signals
0000001c g       .text      0000 00 __atimer_shutdown
00000000 g       .text      0000 00 __atimer_init
00000000 g       .bss       0000 00 __g_signalmask_atimer
00000ec0 g       .text      0000 00 __asound_shutdown
00000dc0 g       .text      0000 00 __asound_init
00000c70 g       .text      0000 00 _SOUND_start
00000b20 g       .text      0000 00 _SOUND_STOP
0000077a g       .text      0000 00 _SOUND_WAIT
00000746 g       .text      0000 00 _WAVE
000006e8 g       .text      0000 00 _WAVE_FREE
000005f8 g       .text      0000 00 _WAVE_
000000ba g       .text      0000 00 _SOUND
00000000 g       .text      0000 00 __wave_alloc
000000ae g       .text      0000 00 _TAGS_
0000009a g       .text      0000 00 _TAGITEMS_
00000000 g       .text      0000 00 __vatagitems
00001428 g       .text      0000 00 ___brt_init
00000f84 g       .text      0000 00 __cstartup
00000d90 g       .text      0000 00 ____breakHandler
00000cae g       .text      0000 00 __cshutdown
00000b50 g       .text      0000 00 __c_atexit
00000aba g       .text      0000 00 ___handle_break
00000aaa g       .text      0000 00 _ON_BREAK_CALL
00000aa0 g       .text      0000 00 __ctrlc_break
00000a74 g       .text      0000 00 _ON_EXIT_CALL
00000a6a g       .text      0000 00 __debug_break
000009be g       .text      0000 00 __debug_cls
00000912 g       .text      0000 00 __debug_putnl
00000866 g       .text      0000 00 __debug_puttab
0000078a g       .text      0000 00 __debug_putbool
000006ac g       .text      0000 00 __debug_putf
000005d4 g       .text      0000 00 __debug_putu4
000004f8 g       .text      0000 00 __debug_putu2
0000041c g       .text      0000 00 __debug_putu1
00000344 g       .text      0000 00 __debug_puts4
0000026a g       .text      0000 00 __debug_puts2
0000018c g       .text      0000 00 __debug_puts1
000000cc g       .text      0000 00 __debug_puts
00000020 g       .text      0000 00 __debug_putc
0000001e g       .bss       0000 00 __break_status
0000001a g       .bss       0000 00 __g_stack
00000018 g       .bss       0000 00 __startup_mode
00000014 g       .bss       0000 00 __autil_task
00000010 g       .bss       0000 00 _UtilityBase
0000000c g       .bss       0000 00 _MathTransBase
00000008 g       .bss       0000 00 _MathBase
00000004 g       .bss       0000 00 _DOSBase
00000000 g       .bss       0000 00 _SysBase
0000267c g       .text      0000 00 __astr_init
0000264e g       .text      0000 00 _MEMSET
0000251a g       .text      0000 00 _VAL_
00001ff6 g       .text      0000 00 __str2f_
00001ed0 g       .text      0000 00 _VALULNG_
00001daa g       .text      0000 00 _VALLNG_
00001c84 g       .text      0000 00 _VALUINT_
00001b5e g       .text      0000 00 _VALINT_
00001974 g       .text      0000 00 __str2i4_
00001956 g       .text      0000 00 __booltoa_
000018f0 g       .text      0000 00 __ftoa_
00001812 g       .text      0000 00 __u4toa_
00001730 g       .text      0000 00 __u2toa_
0000164e g       .text      0000 00 __u1toa_
0000152e g       .text      0000 00 __s4toa_
0000140c g       .text      0000 00 __s2toa_
000012e8 g       .text      0000 00 __s1toa_
000012c4 g       .text      0000 00 __astr_strchr
000012a8 g       .text      0000 00 __astr_ftoa
00000a04 g       .text      0000 00 __astr_ftoa_ext
000009a0 g       .text      0000 00 ___astr_concat
00000968 g       .text      0000 00 ___astr_cmp
00000922 g       .text      0000 00 __astr_dup
00000888 g       .text      0000 00 _INSTR_
00000852 g       .text      0000 00 __astr_strstr
00000760 g       .text      0000 00 _RIGHT_
000006c6 g       .text      0000 00 _LEFT_
0000061a g       .text      0000 00 _LCASE_
0000056e g       .text      0000 00 _UCASE_
00000492 g       .text      0000 00 _MID_
0000045a g       .text      0000 00 _ASC_
00000408 g       .text      0000 00 _CHR_
000003f0 g       .text      0000 00 _LEN_
00000330 g       .text      0000 00 __astr_utoa
0000024a g       .text      0000 00 __astr_utoa_ext
00000142 g       .text      0000 00 __astr_itoa
00000000 g       .text      0000 00 __astr_itoa_ext
00000d9a g       .text      0000 00 __amath_init
00000d70 g       .text      0000 00 _RANDOMIZE
00000b1e g       .text      0000 00 _RND_
00000b00 g       .text      0000 00 ___ltsf2
00000ae6 g       .text      0000 00 ___fixsfsi
00000ac8 g       .text      0000 00 ___subsf3
00000aaa g       .text      0000 00 ___addsf3
00000a8c g       .text      0000 00 ___divsf3
00000a6e g       .text      0000 00 ___mulsf3
00000a50 g       .text      0000 00 ___gtsf2
00000a36 g       .text      0000 00 ___floatsisf
0000098a g       .text      0000 00 ___aqb_or_single
000008de g       .text      0000 00 ___aqb_and_single
0000087a g       .text      0000 00 ___aqb_not_single
000007ca g       .text      0000 00 ___aqb_imp_single
0000071a g       .text      0000 00 ___aqb_eqv_single
0000066e g       .text      0000 00 ___aqb_xor_single
000005be g       .text      0000 00 ___aqb_shr_single
0000050e g       .text      0000 00 ___aqb_shl_single
00000444 g       .text      0000 00 ___aqb_intdiv_single
000003ec g       .text      0000 00 _clng_
00000394 g       .text      0000 00 _cint_
00000376 g       .text      0000 00 _int_
0000035c g       .text      0000 00 _fix_
00000292 g       .text      0000 00 ___aqb_mod
00000272 g       .text      0000 00 ___mod_u1
00000256 g       .text      0000 00 ___div_u1
00000246 g       .text      0000 00 ___mul_u1
0000021a g       .text      0000 00 ___pow_u1
000001fa g       .text      0000 00 ___mod_s1
000001da g       .text      0000 00 ___div_s1
000001ca g       .text      0000 00 ___mul_s1
0000019e g       .text      0000 00 ___pow_s1
00000172 g       .text      0000 00 ___pow_u2
00000146 g       .text      0000 00 ___pow_s2
00000104 g       .text      0000 00 ___pow_u4
000000c2 g       .text      0000 00 ___pow_s4
00000094 g       .text      0000 00 ___divsi4
0000008e g       .text      0000 00 ___divsi3
00000088 g       .text      0000 00 ___modsi4
00000082 g       .text      0000 00 ___modsi3
0000008e g       .text      0000 00 _ldiv
0000008e g       .text      0000 00 _div
0000003c g       .text      0000 00 ___udivsi4
00000036 g       .text      0000 00 ___udivsi3
00000030 g       .text      0000 00 ___umodsi4
0000002a g       .text      0000 00 ___umodsi3
00000006 g       .text      0000 00 ___mulsi4
00000000 g       .text      0000 00 ___mulsi3
000006a4 g       .text      0000 00 __autil_shutdown
00000680 g       .text      0000 00 __autil_init
00000668 g       .text      0000 00 __autil_begin_io
0000063a g       .text      0000 00 __autil_delete_ext_io
000005f4 g       .text      0000 00 __autil_create_std_io
000005aa g       .text      0000 00 __autil_create_ext_io
00000572 g       .text      0000 00 __autil_delete_port
000004de g       .text      0000 00 __autil_create_port
000004d0 g       .text      0000 00 _PEEKL_
000004c2 g       .text      0000 00 _PEEKW_
000004b4 g       .text      0000 00 _PEEK_
000004a4 g       .text      0000 00 _POKEL
00000494 g       .text      0000 00 _POKEW
00000484 g       .text      0000 00 _POKE
000003b6 g       .text      0000 00 _FRE_
000003a4 g       .text      0000 00 _SYSTEM
00000364 g       .text      0000 00 _SLEEP_FOR
00000218 g       .text      0000 00 _DATE_
000001c4 g       .text      0000 00 _TIMER_
000001ba g       .text      0000 00 _RESUME_NEXT
0000011e g       .text      0000 00 _ERROR
000000ea g       .text      0000 00 _ON_ERROR_CALL
0000009c g       .text      0000 00 __aqb_assert
00000072 g       .text      0000 00 __MEMSET
00000070 g       .text      0000 00 _DEALLOCATE
00000000 g       .text      0000 00 _ALLOCATE_
00000006 g       .bss       0000 00 _ERR
00000004 g       .bss       0000 00 __do_resume
00000000 g       .bss       0000 00 __autil_sleep_for_cb
000002e8 g       .text      0000 00 ___DARRAY_T_CLEAR
000002be g       .text      0000 00 ___DARRAY_T_ERASE
00000274 g       .text      0000 00 ___DARRAY_T_COPY
0000022a g       .text      0000 00 ___DARRAY_T_UBOUND_
000001e8 g       .text      0000 00 ___DARRAY_T_LBOUND_
0000013e g       .text      0000 00 ___DARRAY_T_IDXPTR_
00000018 g       .text      0000 00 ___DARRAY_T_REDIM
00000000 g       .text      0000 00 ___DARRAY_T___init__
0000009c g       .text      0000 00 __aqb_readStr
0000006e g       .text      0000 00 __aqb_read4
00000040 g       .text      0000 00 __aqb_read2
00000010 g       .text      0000 00 __aqb_read1
00000000 g       .text      0000 00 __aqb_restore
00002720 g       .text      0000 00 __aio_shutdown
0000261a g       .text      0000 00 _LOCATE
000025dc g       .text      0000 00 _CLS
00002522 g       .text      0000 00 _EOF_
00002202 g       .text      0000 00 __aio_close
0000219e g       .text      0000 00 __aio_init
00002162 g       .text      0000 00 __aio_getfh
00002058 g       .text      0000 00 __aio_open
00001ff6 g       .text      0000 00 __aio_inputs
00001f94 g       .text      0000 00 __aio_inputf
00001f32 g       .text      0000 00 __aio_inputu4
00001ed0 g       .text      0000 00 __aio_inputs4
00001e6e g       .text      0000 00 __aio_inputu2
00001e0c g       .text      0000 00 __aio_inputs2
00001daa g       .text      0000 00 __aio_inputu1
00001d48 g       .text      0000 00 __aio_inputs1
00001b92 g       .text      0000 00 __aio_console_input
000014ee g       .text      0000 00 __aio_line_input
0000134e g       .text      0000 00 __aio_writecomma
00001168 g       .text      0000 00 __aio_writes
000010b0 g       .text      0000 00 __aio_writebool
00000ffc g       .text      0000 00 __aio_writef
00000f40 g       .text      0000 00 __aio_writeu1
00000e84 g       .text      0000 00 __aio_writeu2
00000dcc g       .text      0000 00 __aio_writeu4
00000d10 g       .text      0000 00 __aio_writes1
00000c56 g       .text      0000 00 __aio_writes2
00000b9e g       .text      0000 00 __aio_writes4
00000ae8 g       .text      0000 00 __aio_putbool
00000a2c g       .text      0000 00 __aio_putf
0000082a g       .text      0000 00 __aio_putuhex
00000774 g       .text      0000 00 __aio_putbin
000006be g       .text      0000 00 __aio_puthex
00000604 g       .text      0000 00 __aio_putu1
0000054a g       .text      0000 00 __aio_putu2
00000494 g       .text      0000 00 __aio_putu4
000003da g       .text      0000 00 __aio_puts1
00000322 g       .text      0000 00 __aio_puts2
0000026c g       .text      0000 00 __aio_puts4
000001bc g       .text      0000 00 __aio_puttab
0000010a g       .text      0000 00 __aio_putnl
000000a0 g       .text      0000 00 __aio_set_dos_cursor_visible
00000000 g       .text      0000 00 __aio_puts
0000000c g       .bss       0000 00 __aio_locate_cb
00000008 g       .bss       0000 00 __aio_cls_cb
00000004 g       .bss       0000 00 __aio_gets_cb
00000000 g       .bss       0000 00 __aio_puts_cb



Disassembly of section .text:

00000000 _start:
   0:	48e7 3f3e      	movem.l d2-d7/a2-a6,-(sp)
   4:	23cf           	.short 0x23cf

00000006 ___mulsi4:
   6:	0000 0000      	ori.b #0,d0
			6: RELOC32	.data
   a:	93c9           	suba.l a1,a1

0000000c _SCREEN:
   c:	2c78 0004      	movea.l 4 _start+0x4,a6

00000010 __aqb_read1:
  10:	4eae feda      	jsr -294(a6)
  14:	2440           	movea.l d0,a2
  16:	4aaa           	.short 0x4aaa

00000018 ___DARRAY_T_REDIM:
  18:	00ac           	Address 0x000000000000001a is out of bounds.
.short 0x00ac
  1a:	662c           	bne.s 48 __aqb_read2+0x8

0000001c __atimer_shutdown:
  1c:	41ea 005c      	lea 92(a2),a0

00000020 __debug_putc:
  20:	4eae fe80      	jsr -384(a6)
  24:	41ea 005c      	lea 92(a2),a0
  28:	4eae           	.short 0x4eae

0000002a ___umodsi3:
  2a:	fe8c           	.short 0xfe8c
  2c:	23c0           	.short 0x23c0
	...
			2e: RELOC32	.data

00000030 ___umodsi4:
  30:	0004 2040      	ori.b #64,d4
  34:	2228           	.short 0x2228

00000036 __aqb_clear:
  36:	0018 0c81      	ori.b #-127,(a0)+
  3a:	deca           	adda.w a2,sp

0000003c ___udivsi4:
  3c:	11ed           	.short 0x11ed

0000003e _foo:
  3e:	6608           	bne.s 48 __aqb_read2+0x8

00000040 __aqb_read2:
  40:	217c 0000 0086 	move.l #134,30(a0)
  46:	001e 
			42: RELOC32	.text
  48:	4eb9 0000 0f84 	jsr f84 __cstartup
			4a: RELOC32	.text
  4e:	2039 0000 001a 	move.l 1a ___DARRAY_T_REDIM+0x2,d0
			50: RELOC32	.bss
  54:	6720           	beq.s 76 __MEMSET+0x4
  56:	41f9 0000 0008 	lea 8 ___mulsi4+0x2,a0
			58: RELOC32	.data
  5c:	20c0           	move.l d0,(a0)+
  5e:	d0b9 0000 0000 	add.l 0 _start,d0
			60: RELOC32	.data
  64:	20c0           	move.l d0,(a0)+
  66:	72f0           	moveq #-16,d1
  68:	d280           	add.l d0,d1
  6a:	2081           	move.l d1,(a0)
  6c:	41f9           	.short 0x41f9

0000006e __aqb_read4:
	...
			6e: RELOC32	.data

00000070 _DEALLOCATE:
  70:	0008           	Address 0x0000000000000072 is out of bounds.
.short 0x0008

00000072 __MEMSET:
  72:	4eae fd24      	jsr -732(a6)
  76:	4eb9           	.short 0x4eb9

00000078 __atimer_process_signals:
  78:	0000 0000      	ori.b #0,d0
			78: RELOC32	.text
  7c:	2f3c 0000 0000 	move.l #0,-(sp)

00000082 ___modsi3:
  82:	6100 0002      	bsr.w 86 __autil_exit

00000086 __autil_exit:
  86:	2039           	.short 0x2039

00000088 ___modsi4:
  88:	0000 001a      	ori.b #26,d0
			88: RELOC32	.bss
  8c:	6716           	beq.s a4 __aio_set_dos_cursor_visible+0x4

0000008e ___divsi3:
  8e:	242f 0004      	move.l 4(sp),d2
  92:	41f9           	.short 0x41f9

00000094 ___divsi4:
  94:	0000 0008      	ori.b #8,d0
			94: RELOC32	.data
  98:	2c78           	.short 0x2c78

0000009a _TAGITEMS_:
  9a:	0004           	Address 0x000000000000009c is out of bounds.
.short 0x0004

0000009c __aqb_assert:
  9c:	4eae fd24      	jsr -732(a6)

000000a0 __aio_set_dos_cursor_visible:
  a0:	2f02           	move.l d2,-(sp)
  a2:	2f02           	move.l d2,-(sp)
  a4:	4eb9 0000 0b50 	jsr b50 __c_atexit
			a6: RELOC32	.text
  aa:	2439           	.short 0x2439
	...
			ac: RELOC32	.data

000000ae _TAGS_:
  ae:	0004 4a82      	ori.b #-126,d4
  b2:	6728           	beq.s dc __debug_puts+0x10
  b4:	2042           	movea.l d2,a0
  b6:	2028 0018      	move.l 24(a0),d0

000000ba _SOUND:
  ba:	0c80 deca 11ed 	cmpi.l #-557182483,d0
  c0:	660c           	bne.s ce __debug_puts+0x2

000000c2 ___pow_s4:
  c2:	3039 0000 0006 	move.w 6 ___mulsi4,d0
			c4: RELOC32	.bss
  c8:	48c0           	ext.l d0
  ca:	2140           	.short 0x2140

000000cc __debug_puts:
  cc:	0022 2c78      	ori.b #120,-(a2)
  d0:	0004 4eae      	ori.b #-82,d4
  d4:	ff7c           	.short 0xff7c
  d6:	2242           	movea.l d2,a1
  d8:	4eae fe86      	jsr -378(a6)
  dc:	202f 0004      	move.l 4(sp),d0
  e0:	2e79 0000 0000 	movea.l 0 _start,sp
			e2: RELOC32	.data
  e6:	4cdf 7cfc      	movem.l (sp)+,d2-d7/a2-a6

000000ea _ON_ERROR_CALL:
  ea:	4e75           	rts

Disassembly of section .text:

00000000 _start:
   0:	4e55 0000      	link.w a5,#0
   4:	48e7           	Address 0x0000000000000006 is out of bounds.
.short 0x48e7

00000006 ___mulsi4:
   6:	2000           	move.l d0,d0
   8:	4eb9           	.short 0x4eb9
	...
			a: RELOC32	.text

0000000c _SCREEN:
   c:	013e           	.short 0x013e
   e:	4eb9           	.short 0x4eb9

00000010 __aqb_read1:
  10:	0000 1428      	ori.b #40,d0
			10: RELOC32	.text
  14:	4eb9           	.short 0x4eb9
	...
			16: RELOC32	.text

00000018 ___DARRAY_T_REDIM:
  18:	0036           	.short 0x0036
  1a:	243c           	.short 0x243c

0000001c __atimer_shutdown:
  1c:	0000 0004      	ori.b #4,d0
			1c: RELOC32	.data

00000020 __debug_putc:
  20:	2f02           	move.l d2,-(sp)
  22:	4eb9 0000 003e 	jsr 3e _foo
			24: RELOC32	.text
  28:	dffc           	.short 0xdffc

0000002a ___umodsi3:
  2a:	0000 0004      	ori.b #4,d0
  2e:	4cdf           	Address 0x0000000000000030 is out of bounds.
.short 0x4cdf

00000030 ___umodsi4:
  30:	0004 4e5d      	ori.b #93,d4
  34:	4e75           	rts

00000036 __aqb_clear:
  36:	4e55 0000      	link.w a5,#0
  3a:	4e5d           	unlk a5

0000003c ___udivsi4:
  3c:	4e75           	rts

0000003e _foo:
  3e:	4e55           	Address 0x0000000000000040 is out of bounds.
.short 0x4e55

00000040 __aqb_read2:
  40:	0000 48e7      	ori.b #-25,d0
  44:	2000           	move.l d0,d0
  46:	3439 0000 001e 	move.w 1e __atimer_shutdown+0x2,d2
			48: RELOC32	.bss
  4c:	4a42           	tst.w d2
  4e:	6700 0010      	beq.w 60 __aqb_read2+0x20
  52:	48e7 3e30      	movem.l d2-d6/a2-a3,-(sp)
  56:	4eb9 0000 0aba 	jsr aba ___handle_break
			58: RELOC32	.text
  5c:	4cdf 0c7c      	movem.l (sp)+,d2-d6/a2-a3
  60:	243c 0000 000c 	move.l #12,d2
			62: RELOC32	.data
  66:	2f02           	move.l d2,-(sp)
  68:	4eb9 0000 00cc 	jsr cc __debug_puts
			6a: RELOC32	.text

0000006e __aqb_read4:
  6e:	dffc           	.short 0xdffc

00000070 _DEALLOCATE:
	...

00000072 __MEMSET:
  72:	0004 242d      	ori.b #45,d4
  76:	0008           	Address 0x0000000000000078 is out of bounds.
.short 0x0008

00000078 __atimer_process_signals:
  78:	2f02           	move.l d2,-(sp)
  7a:	4eb9 0000 05d4 	jsr 5d4 __debug_putu4
			7c: RELOC32	.text
  80:	dffc           	.short 0xdffc

00000082 ___modsi3:
  82:	0000 0004      	ori.b #4,d0

00000086 __autil_exit:
  86:	4eb9           	.short 0x4eb9

00000088 ___modsi4:
  88:	0000 0912      	ori.b #18,d0
			88: RELOC32	.text
  8c:	4cdf           	Address 0x000000000000008e is out of bounds.
.short 0x4cdf

0000008e ___divsi3:
  8e:	0004 4e5d      	ori.b #93,d4
  92:	4e75           	rts

Disassembly of section .text:

00000000 _start:
       0:	4151           	.short 0x4151
       2:	4220           	clr.b -(a0)
       4:	5343           	subq.w #1,d3

00000006 ___mulsi4:
       6:	5245           	addq.w #1,d5
       8:	454e           	.short 0x454e
	...

0000000c _SCREEN:
       c:	4e55 fff8      	link.w a5,#-8

00000010 __aqb_read1:
      10:	48e7 3f3a      	movem.l d2-d7/a2-a4/a6,-(sp)
      14:	262d 0008      	move.l 8(a5),d3

00000018 ___DARRAY_T_REDIM:
      18:	2c2d 000c      	move.l 12(a5),d6

0000001c __atimer_shutdown:
      1c:	2a2d 0010      	move.l 16(a5),d5

00000020 __debug_putc:
      20:	282d 0014      	move.l 20(a5),d4
      24:	222d 0018      	move.l 24(a5),d1
      28:	206d           	.short 0x206d

0000002a ___umodsi3:
      2a:	001c 2c6d      	ori.b #109,(a4)+
      2e:	0020           	Address 0x0000000000000030 is out of bounds.
.short 0x0020

00000030 ___umodsi4:
      30:	3403           	move.w d3,d2
      32:	3646           	movea.w d6,a3
      34:	3845           	movea.w d5,a4

00000036 __aqb_clear:
      36:	3e04           	move.w d4,d7
      38:	4a79           	.short 0x4a79
	...
			3a: RELOC32	.bss

0000003c ___udivsi4:
      3c:	001e           	Address 0x000000000000003e is out of bounds.
.short 0x001e

0000003e _foo:
      3e:	6630           	bne.s 70 _DEALLOCATE

00000040 __aqb_read2:
      40:	5342           	subq.w #1,d2
      42:	0c42 0003      	cmpi.w #3,d2
      46:	6214           	bhi.s 5c __aqb_read2+0x1c
      48:	3243           	movea.w d3,a1
      4a:	2409           	move.l a1,d2
      4c:	5382           	subq.l #1,d2
      4e:	45f9 0000 0174 	lea 174 ___pow_u2+0x2,a2
			50: RELOC32	.bss
      54:	e58a           	lsl.l #2,d2
      56:	4ab2 2800      	tst.l (0,a2,d2.l)
      5a:	672c           	beq.s 88 ___modsi4
      5c:	7066           	moveq #102,d0
      5e:	2b40 0008      	move.l d0,8(a5)
      62:	4ced 5cfc ffd0 	movem.l -48(a5),d2-d7/a2-a4/a6
      68:	4e5d           	unlk a5
      6a:	4ef9           	.short 0x4ef9
	...
			6c: RELOC32	.text

0000006e __aqb_read4:
      6e:	011e           	btst d0,(a6)+

00000070 _DEALLOCATE:
      70:	2b41           	.short 0x2b41

00000072 __MEMSET:
      72:	fffc           	.short 0xfffc
      74:	2b48 fff8      	move.l a0,-8(a5)

00000078 __atimer_process_signals:
      78:	4eb9 0000 0aba 	jsr aba ___handle_break
			7a: RELOC32	.text
      7e:	206d fff8      	movea.l -8(a5),a0

00000082 ___modsi3:
      82:	222d fffc      	move.l -4(a5),d1

00000086 __autil_exit:
      86:	60b8           	bra.s 40 __aqb_read2

00000088 ___modsi4:
      88:	300b           	move.w a3,d0
      8a:	6fd0           	ble.s 5c __aqb_read2+0x1c
      8c:	300c           	move.w a4,d0

0000008e ___divsi3:
      8e:	6fcc           	ble.s 5c __aqb_read2+0x1c
      90:	5347           	subq.w #1,d7
      92:	0c47           	Address 0x0000000000000094 is out of bounds.
.short 0x0c47

00000094 ___divsi4:
      94:	0005 62c4      	ori.b #-60,d5
      98:	43f9           	.short 0x43f9

0000009a _TAGITEMS_:
	...
			9a: RELOC32	.data

0000009c __aqb_assert:
      9c:	0034           	.short 0x0034
      9e:	32c6           	move.w d6,(a1)+

000000a0 __aio_set_dos_cursor_visible:
      a0:	32c5           	move.w d5,(a1)+
      a2:	3284           	move.w d4,(a1)
      a4:	2008           	move.l a0,d0
      a6:	677e           	beq.s 126 _ERROR+0x8
      a8:	2f08           	move.l a0,-(sp)
      aa:	2b41 fffc      	move.l d1,-4(a5)

000000ae _TAGS_:
      ae:	4eb9 0000 0922 	jsr 922 __astr_dup
			b0: RELOC32	.text
      b4:	222d fffc      	move.l -4(a5),d1
      b8:	41f9           	.short 0x41f9

000000ba _SOUND:
      ba:	0000 003c      	ori.b #60,d0
			ba: RELOC32	.data
      be:	2140 0008      	move.l d0,8(a0)

000000c2 ___pow_s4:
      c2:	3081           	move.w d1,(a0)
      c4:	200e           	move.l a6,d0
      c6:	6766           	beq.s 12e _ERROR+0x10
      c8:	4dee 0012      	lea 18(a6),a6

000000cc __debug_puts:
      cc:	214e 0010      	move.l a6,16(a0)
      d0:	303c 014f      	move.w #335,d0
      d4:	33c0 0000 003e 	move.w d0,3e _foo
			d6: RELOC32	.data
      da:	41f9 0000 0030 	lea 30 ___umodsi4,a0
			dc: RELOC32	.data
      e0:	2c79 0000 0000 	movea.l 0 _start,a6
			e2: RELOC32	.bss
      e6:	4eae ff3a      	jsr -198(a6)

000000ea _ON_ERROR_CALL:
      ea:	4a80           	tst.l d0
      ec:	6700 ff6e      	beq.w 5c __aqb_read2+0x1c
      f0:	2580 2800      	move.l d0,(0,a2,d2.l)
      f4:	23c0 0000 0002 	move.l d0,2 _start+0x2
			f6: RELOC32	.bss
      fa:	33c3 0000 0000 	move.w d3,0 _start
			fc: RELOC32	.bss
     100:	722c           	moveq #44,d1
     102:	d280           	add.l d0,d1

00000104 ___pow_u4:
     104:	23c1 0000 000e 	move.l d1,e _SCREEN+0x2
			106: RELOC32	.bss

0000010a __aio_putnl:
     10a:	7203           	moveq #3,d1
     10c:	23c1 0000 01a0 	move.l d1,1a0 ___pow_s1+0x2
			10e: RELOC32	.bss
     112:	7254           	moveq #84,d1
     114:	d280           	add.l d0,d1
     116:	23c1 0000 000a 	move.l d1,a ___mulsi4+0x4
			118: RELOC32	.bss
     11c:	4ced           	Address 0x000000000000011e is out of bounds.
.short 0x4ced

0000011e _ERROR:
     11e:	5cfc           	trapge
     120:	ffd0           	.short 0xffd0
     122:	4e5d           	unlk a5
     124:	4e75           	rts
     126:	203c 0000 000b 	move.l #11,d0
			128: RELOC32	.text
     12c:	608a           	bra.s b8 _TAGS_+0xa
     12e:	23ce 0000 004c 	move.l a6,4c __aqb_read2+0xc
			130: RELOC32	.data
     134:	700f           	moveq #15,d0
     136:	609c           	bra.s d4 __debug_puts+0x8

00000138 _SCREEN_CLOSE:
     138:	4e55 0000      	link.w a5,#0
     13c:	48e7           	Address 0x000000000000013e is out of bounds.
.short 0x48e7

0000013e ___aqb_init:
     13e:	2022           	move.l -(a2),d0
     140:	202d           	.short 0x202d

00000142 __astr_itoa:
     142:	0008           	.short 0x0008
     144:	3200           	move.w d0,d1

00000146 ___pow_s2:
     146:	5341           	subq.w #1,d1
     148:	0c41 0003      	cmpi.w #3,d1
     14c:	622c           	bhi.s 17a ___pow_u2+0x8
     14e:	3040           	movea.w d0,a0
     150:	2408           	move.l a0,d2
     152:	5382           	subq.l #1,d2
     154:	e58a           	lsl.l #2,d2
     156:	45f9 0000 0174 	lea 174 ___pow_u2+0x2,a2
			158: RELOC32	.bss
     15c:	2072 2800      	movea.l (0,a2,d2.l),a0
     160:	2008           	move.l a0,d0
     162:	6716           	beq.s 17a ___pow_u2+0x8
     164:	2c79 0000 0000 	movea.l 0 _start,a6
			166: RELOC32	.bss
     16a:	4eae ffbe      	jsr -66(a6)
     16e:	42b2 2800      	clr.l (0,a2,d2.l)

00000172 ___pow_u2:
     172:	4cdf 4404      	movem.l (sp)+,d2/a2/a6
     176:	4e5d           	unlk a5
     178:	4e75           	rts
     17a:	706d           	moveq #109,d0
     17c:	2b40 0008      	move.l d0,8(a5)
     180:	4cdf 4404      	movem.l (sp)+,d2/a2/a6
     184:	4e5d           	unlk a5
     186:	4ef9 0000 011e 	jmp 11e _ERROR
			188: RELOC32	.text

0000018c __debug_puts1:
     18c:	4151           	.short 0x4151
     18e:	4220           	clr.b -(a0)
     190:	4f75           	.short 0x4f75
     192:	7470           	moveq #112,d2
     194:	7574           	.short 0x7574
	...

00000198 _WINDOW:
     198:	4e55 fea0      	link.w a5,#-352
     19c:	48e7           	Address 0x000000000000019e is out of bounds.
.short 0x48e7

0000019e ___pow_s1:
     19e:	3f3a 262d      	move.w 27cd __aio_shutdown+0xad(pc),-(sp)
     1a2:	0008           	.short 0x0008
     1a4:	2e2d 0014      	move.l 20(a5),d7
     1a8:	2c2d 0018      	move.l 24(a5),d6
     1ac:	2a2d 0020      	move.l 32(a5),d5
     1b0:	282d 0024      	move.l 36(a5),d4
     1b4:	3403           	move.w d3,d2
     1b6:	3647           	movea.w d7,a3
     1b8:	3846           	movea.w d6,a4

000001ba _RESUME_NEXT:
     1ba:	3c45           	movea.w d5,a6

000001bc __aio_puttab:
     1bc:	3204           	move.w d4,d1
     1be:	4a79 0000 001e 	tst.w 1e __atimer_shutdown+0x2
			1c0: RELOC32	.bss

000001c4 _TIMER_:
     1c4:	6632           	bne.s 1f8 ___DARRAY_T_LBOUND_+0x10
     1c6:	5342           	subq.w #1,d2
     1c8:	0c42           	Address 0x00000000000001ca is out of bounds.
.short 0x0c42

000001ca ___mul_s1:
     1ca:	000f           	.short 0x000f
     1cc:	6214           	bhi.s 1e2 ___div_s1+0x8
     1ce:	3043           	movea.w d3,a0
     1d0:	2408           	move.l a0,d2
     1d2:	5382           	subq.l #1,d2
     1d4:	45f9 0000 0074 	lea 74 __MEMSET+0x2,a2
			1d6: RELOC32	.bss

000001da ___div_s1:
     1da:	e98a           	lsl.l #4,d2
     1dc:	4ab2 2800      	tst.l (0,a2,d2.l)
     1e0:	6726           	beq.s 208 ___mod_s1+0xe
     1e2:	4878 0065      	pea 65 __aqb_read2+0x25
     1e6:	4eb9           	.short 0x4eb9

000001e8 ___DARRAY_T_LBOUND_:
     1e8:	0000 011e      	ori.b #30,d0
			1e8: RELOC32	.text
     1ec:	588f           	addq.l #4,sp
     1ee:	4ced 5cfc fe78 	movem.l -392(a5),d2-d7/a2-a4/a6
     1f4:	4e5d           	unlk a5
     1f6:	4e75           	rts
     1f8:	2b41           	.short 0x2b41

000001fa ___mod_s1:
     1fa:	fea2           	.short 0xfea2
     1fc:	4eb9 0000 0aba 	jsr aba ___handle_break
			1fe: RELOC32	.text
     202:	222d fea2      	move.l -350(a5),d1
     206:	60be           	bra.s 1c6 _TIMER_+0x2
     208:	300e           	move.w a6,d0
     20a:	b04b           	cmp.w a3,d0
     20c:	6dd4           	blt.s 1e2 ___div_s1+0x8
     20e:	b24c           	cmp.w a4,d1
     210:	6dd0           	blt.s 1e2 ___div_s1+0x8
     212:	300b           	move.w a3,d0
     214:	6d00 0102      	blt.w 318 ___DARRAY_T_CLEAR+0x30

00000218 _DATE_:
     218:	9a47           	sub.w d7,d5

0000021a ___pow_u1:
     21a:	9846           	sub.w d6,d4
     21c:	41f9 0000 0000 	lea 0 _start,a0
			21e: RELOC32	.data
     222:	30cb           	move.w a3,(a0)+
     224:	30cc           	move.w a4,(a0)+
     226:	30c5           	move.w d5,(a0)+
     228:	3084           	move.w d4,(a0)

0000022a ___DARRAY_T_UBOUND_:
     22a:	4aad 000c      	tst.l 12(a5)
     22e:	6700 0188      	beq.w 3b8 _FRE_+0x2
     232:	2f2d 000c      	move.l 12(a5),-(sp)
     236:	4eb9 0000 0922 	jsr 922 __astr_dup
			238: RELOC32	.text
     23c:	588f           	addq.l #4,sp
     23e:	41f9 0000 000a 	lea a ___mulsi4+0x4,a0
			240: RELOC32	.data
     244:	2140           	.short 0x2140

00000246 ___mul_u1:
     246:	0010 216d      	ori.b #109,(a0)

0000024a __astr_utoa_ext:
     24a:	0028 0004 20bc 	ori.b #4,8380(a0)
     250:	0004 0600      	ori.b #0,d4
     254:	2179           	.short 0x2179

00000256 ___div_u1:
     256:	0000 0002      	ori.b #2,d0
			256: RELOC32	.bss
     25a:	0014 6700      	ori.b #0,(a4)
     25e:	0164           	bchg d0,-(a4)
     260:	317c 000f 0024 	move.w #15,36(a0)
     266:	41f9           	.short 0x41f9
	...
			268: RELOC32	.data

0000026a __debug_puts2:
	...

0000026c __aio_puts4:
     26c:	2c79 0000 0000 	movea.l 0 _start,a6
			26e: RELOC32	.bss

00000272 ___mod_u1:
     272:	4eae           	.short 0x4eae

00000274 ___DARRAY_T_COPY:
     274:	ff34           	.short 0xff34
     276:	2040           	movea.l d0,a0
     278:	4a80           	tst.l d0
     27a:	6700 ff66      	beq.w 1e2 ___div_s1+0x8
     27e:	2580 2800      	move.l d0,(0,a2,d2.l)
     282:	2268 0056      	movea.l 86(a0),a1
     286:	7200           	moveq #0,d1
     288:	1229 000f      	move.b 15(a1),d1
     28c:	7401           	moveq #1,d2
     28e:	2002           	move.l d2,d0
     290:	e3aa           	lsl.l d1,d2

00000292 ___aqb_mod:
     292:	85b9 0000 0184 	or.l d2,184 ___pow_u2+0x12
			294: RELOC32	.bss
     298:	23c8 0000 0006 	move.l a0,6 ___mulsi4
			29a: RELOC32	.bss
     29e:	23e8 0032 0000 	move.l 50(a0),a ___mulsi4+0x4
     2a4:	000a 
			2a2: RELOC32	.bss
     2a6:	33c3 0000 0052 	move.w d3,52 __aqb_read2+0x12
			2a8: RELOC32	.data
     2ac:	7202           	moveq #2,d1
     2ae:	23c1 0000 01a0 	move.l d1,1a0 ___pow_s1+0x2
			2b0: RELOC32	.bss
     2b4:	2f00           	move.l d0,-(sp)
     2b6:	2f00           	move.l d0,-(sp)
     2b8:	4eb9 0000 261a 	jsr 261a _LOCATE
			2ba: RELOC32	.text

000002be ___DARRAY_T_ERASE:
     2be:	508f           	addq.l #8,sp
     2c0:	4a79 0000 001e 	tst.w 1e __atimer_shutdown+0x2
			2c2: RELOC32	.bss
     2c6:	666c           	bne.s 334 __astr_utoa+0x4
     2c8:	7001           	moveq #1,d0
     2ca:	b0b9 0000 01a0 	cmp.l 1a0 ___pow_s1+0x2,d0
			2cc: RELOC32	.bss
     2d0:	6472           	bcc.s 344 __debug_puts4
     2d2:	2279 0000 000a 	movea.l a ___mulsi4+0x4,a1
			2d4: RELOC32	.bss
     2d8:	2009           	move.l a1,d0
     2da:	6700 009e      	beq.w 37a _int_+0x4
     2de:	45f9 0000 0004 	lea 4 _start+0x4,a2
			2e0: RELOC32	.bss
     2e4:	7001           	moveq #1,d0
     2e6:	2c52           	movea.l (a2),a6

000002e8 ___DARRAY_T_CLEAR:
     2e8:	4eae feaa      	jsr -342(a6)
     2ec:	2c52           	movea.l (a2),a6
     2ee:	7000           	moveq #0,d0
     2f0:	2279 0000 000a 	movea.l a ___mulsi4+0x4,a1
			2f2: RELOC32	.bss
     2f6:	4eae fea4      	jsr -348(a6)
     2fa:	2279 0000 000a 	movea.l a ___mulsi4+0x4,a1
			2fc: RELOC32	.bss
     300:	137c 0001 001b 	move.b #1,27(a1)
     306:	7001           	moveq #1,d0
     308:	2c52           	movea.l (a2),a6
     30a:	4eae fe9e      	jsr -354(a6)
     30e:	4ced 5cfc fe78 	movem.l -392(a5),d2-d7/a2-a4/a6
     314:	4e5d           	unlk a5
     316:	4e75           	rts
     318:	2279 0000 0002 	movea.l 2 _start+0x2,a1
			31a: RELOC32	.bss
     31e:	2009           	move.l a1,d0
     320:	6700           	.short 0x6700

00000322 __aio_puts2:
     322:	00ac 3a29 000c 	ori.l #975765516,14377(a4)
     328:	3829 
     32a:	000e           	.short 0x000e
     32c:	97cb           	suba.l a3,a3
     32e:	384b           	movea.w a3,a4

00000330 __astr_utoa:
     330:	6000 feea      	bra.w 21c ___pow_u1+0x2
     334:	4eb9 0000 0aba 	jsr aba ___handle_break
			336: RELOC32	.text
     33a:	7001           	moveq #1,d0
     33c:	b0b9           	.short 0xb0b9
	...
			33e: RELOC32	.bss

00000340 _ON_TIMER_CALL:
     340:	01a0           	bclr d0,-(a0)
     342:	658e           	bcs.s 2d2 ___DARRAY_T_ERASE+0x14

00000344 __debug_puts4:
     344:	42a7           	clr.l -(sp)
     346:	4878 140f      	pea 140f __s2toa_+0x3
     34a:	4878 ffff      	pea ffffffff __awindow_init+0xffffc149
     34e:	4878 ffff      	pea ffffffff __awindow_init+0xffffc149
     352:	42a7           	clr.l -(sp)
     354:	4878 ffff      	pea ffffffff __awindow_init+0xffffc149
     358:	4878 ffff      	pea ffffffff __awindow_init+0xffffc149

0000035c _fix_:
     35c:	42a7           	clr.l -(sp)
     35e:	487a fe2c      	pea 18c __debug_puts1(pc)
     362:	4878           	.short 0x4878

00000364 _SLEEP_FOR:
     364:	0001 4eba      	ori.b #-70,d1
     368:	fe30           	.short 0xfe30
     36a:	2279 0000 000a 	movea.l a ___mulsi4+0x4,a1
			36c: RELOC32	.bss
     370:	4fef 0028      	lea 40(sp),sp
     374:	2009           	move.l a1,d0

00000376 _int_:
     376:	6600 ff66      	bne.w 2de ___DARRAY_T_ERASE+0x20
     37a:	4878 007a      	pea 7a __atimer_process_signals+0x2
     37e:	4eb9 0000 011e 	jsr 11e _ERROR
			380: RELOC32	.text
     384:	45f9 0000 000a 	lea a ___mulsi4+0x4,a2
			386: RELOC32	.bss
     38a:	47f9 0000 0004 	lea 4 _start+0x4,a3
			38c: RELOC32	.bss
     390:	2252           	movea.l (a2),a1
     392:	7001           	moveq #1,d0

00000394 _cint_:
     394:	2c53           	movea.l (a3),a6
     396:	4eae feaa      	jsr -342(a6)
     39a:	2c53           	movea.l (a3),a6
     39c:	7000           	moveq #0,d0
     39e:	2252           	movea.l (a2),a1
     3a0:	4eae fea4      	jsr -348(a6)

000003a4 _SYSTEM:
     3a4:	2252           	movea.l (a2),a1
     3a6:	137c 0001 001b 	move.b #1,27(a1)
     3ac:	7001           	moveq #1,d0
     3ae:	2c53           	movea.l (a3),a6
     3b0:	4eae fe9e      	jsr -354(a6)
     3b4:	6000           	.short 0x6000

000003b6 _FRE_:
     3b6:	ff58           	.short 0xff58
     3b8:	203c 0000 000b 	move.l #11,d0
			3ba: RELOC32	.text
     3be:	6000 fe7e      	bra.w 23e ___DARRAY_T_UBOUND_+0x14
     3c2:	33fc 0001 0000 	move.w #1,2e ___umodsi3+0x4
     3c8:	002e 
			3c6: RELOC32	.data
     3ca:	6000 fe9a      	bra.w 266 ___div_u1+0x10
     3ce:	2c79 0000 0000 	movea.l 0 _start,a6
			3d0: RELOC32	.bss
     3d4:	41ed fea6      	lea -346(a5),a0
     3d8:	303c           	.short 0x303c

000003da __aio_puts1:
     3da:	015a           	bchg d0,(a2)+
     3dc:	7201           	moveq #1,d1
     3de:	4eae fe56      	jsr -426(a6)
     3e2:	4a80           	tst.l d0
     3e4:	6700 fdfc      	beq.w 1e2 ___div_s1+0x8
     3e8:	3a2d feb2      	move.w -334(a5),d5

000003ec _clng_:
     3ec:	0c45 0280      	cmpi.w #640,d5

000003f0 _LEN_:
     3f0:	6f04           	ble.s 3f6 _LEN_+0x6
     3f2:	3a3c 0280      	move.w #640,d5
     3f6:	382d feb4      	move.w -332(a5),d4
     3fa:	0c44 00c8      	cmpi.w #200,d4
     3fe:	6f00 ff2c      	ble.w 32c __aio_puts2+0xa
     402:	97cb           	suba.l a3,a3
     404:	383c 00c8      	move.w #200,d4

00000408 _CHR_:
     408:	384b           	movea.w a3,a4
     40a:	6000 fe10      	bra.w 21c ___pow_u1+0x2

0000040e _WINDOW_CLOSE:
     40e:	4e55 0000      	link.w a5,#0
     412:	48e7 3032      	movem.l d2-d3/a2-a3/a6,-(sp)
     416:	222d 0008      	move.l 8(a5),d1
     41a:	3001           	move.w d1,d0

0000041c __debug_putu1:
     41c:	5340           	subq.w #1,d0
     41e:	0c40 000f      	cmpi.w #15,d0
     422:	627a           	bhi.s 49e _POKEW+0xa
     424:	3041           	movea.w d1,a0
     426:	2408           	move.l a0,d2
     428:	5382           	subq.l #1,d2

0000042a _TIMER_ON:
     42a:	e98a           	lsl.l #4,d2
     42c:	47f9 0000 0074 	lea 74 __MEMSET+0x2,a3
			42e: RELOC32	.bss
     432:	2073 2800      	movea.l (0,a3,d2.l),a0
     436:	2208           	move.l a0,d1
     438:	6764           	beq.s 49e _POKEW+0xa
     43a:	2473 2808      	movea.l (8,a3,d2.l),a2
     43e:	220a           	move.l a2,d1
     440:	6718           	beq.s 45a _ASC_
     442:	7600           	moveq #0,d3

00000444 ___aqb_intdiv_single:
     444:	3600           	move.w d0,d3
     446:	2f03           	move.l d3,-(sp)
     448:	206a 0004      	movea.l 4(a2),a0
     44c:	4e90           	jsr (a0)
     44e:	2452           	movea.l (a2),a2
     450:	588f           	addq.l #4,sp
     452:	200a           	move.l a2,d0
     454:	66f0           	bne.s 446 ___aqb_intdiv_single+0x2
     456:	2073 2800      	movea.l (0,a3,d2.l),a0

0000045a _ASC_:
     45a:	2268 0032      	movea.l 50(a0),a1
     45e:	2269 000c      	movea.l 12(a1),a1
     462:	2009           	move.l a1,d0
     464:	6720           	beq.s 486 _POKE+0x2
     466:	2251           	movea.l (a1),a1
     468:	2c79 0000 0000 	movea.l 0 _start,a6
			46a: RELOC32	.bss
     46e:	4eae fd4e      	jsr -690(a6)
     472:	2073 2800      	movea.l (0,a3,d2.l),a0
     476:	2068 0032      	movea.l 50(a0),a0
     47a:	2268 000c      	movea.l 12(a0),a1
     47e:	4eae fd4e      	jsr -690(a6)
     482:	2073           	.short 0x2073

00000484 _POKE:
     484:	2800           	move.l d0,d4
     486:	2c79 0000 0000 	movea.l 0 _start,a6
			488: RELOC32	.bss
     48c:	4eae ffb8      	jsr -72(a6)
     490:	42b3           	.short 0x42b3

00000492 _MID_:
     492:	2800           	move.l d0,d4

00000494 _POKEW:
     494:	4ced 4c0c ffec 	movem.l -20(a5),d2-d3/a2-a3/a6
     49a:	4e5d           	unlk a5
     49c:	4e75           	rts
     49e:	706b           	moveq #107,d0
     4a0:	2b40 0008      	move.l d0,8(a5)

000004a4 _POKEL:
     4a4:	4ced 4c0c ffec 	movem.l -20(a5),d2-d3/a2-a3/a6
     4aa:	4e5d           	unlk a5
     4ac:	4ef9 0000 011e 	jmp 11e _ERROR
			4ae: RELOC32	.text

000004b2 __window_add_close_cb:
     4b2:	4e55           	Address 0x00000000000004b4 is out of bounds.
.short 0x4e55

000004b4 _PEEK_:
     4b4:	0000 2f02      	ori.b #2,d0
     4b8:	242d 0008      	move.l 8(a5),d2
     4bc:	42a7           	clr.l -(sp)
     4be:	4878 0008      	pea 8 ___mulsi4+0x2

000004c2 _PEEKW_:
     4c2:	4eb9 0000 0000 	jsr 0 _start
			4c4: RELOC32	.text
     4c8:	4a80           	tst.l d0
     4ca:	6722           	beq.s 4ee __autil_create_port+0x10
     4cc:	3079           	.short 0x3079
	...
			4ce: RELOC32	.data

000004d0 _PEEKL_:
     4d0:	0052 2208      	ori.w #8712,(a2)
     4d4:	e989           	lsl.l #4,d1
     4d6:	2041           	movea.l d1,a0
     4d8:	2240           	movea.l d0,a1
     4da:	d1fc           	.short 0xd1fc
	...
			4dc: RELOC32	.bss

000004de __autil_create_port:
     4de:	006c 22d0 2282 	ori.w #8912,8834(a4)
     4e4:	2080           	move.l d0,(a0)
     4e6:	242d fffc      	move.l -4(a5),d2
     4ea:	4e5d           	unlk a5
     4ec:	4e75           	rts
     4ee:	706b           	moveq #107,d0
     4f0:	2b40 0008      	move.l d0,8(a5)
     4f4:	242d fffc      	move.l -4(a5),d2

000004f8 __debug_putu2:
     4f8:	4e5d           	unlk a5
     4fa:	4ef9 0000 011e 	jmp 11e _ERROR
			4fc: RELOC32	.text

00000500 __window_add_msg_cb:
     500:	4e55 0000      	link.w a5,#0
     504:	2f02           	move.l d2,-(sp)
     506:	242d 0008      	move.l 8(a5),d2
     50a:	42a7           	clr.l -(sp)
     50c:	4878           	.short 0x4878

0000050e ___aqb_shl_single:
     50e:	0008           	.short 0x0008
     510:	4eb9 0000 0000 	jsr 0 _start
			512: RELOC32	.text
     516:	4a80           	tst.l d0
     518:	6722           	beq.s 53c ___aqb_shl_single+0x2e
     51a:	3079 0000 0052 	movea.w 52 __aqb_read2+0x12,a0
			51c: RELOC32	.data
     520:	2208           	move.l a0,d1
     522:	e989           	lsl.l #4,d1
     524:	2041           	movea.l d1,a0
     526:	2240           	movea.l d0,a1
     528:	d1fc 0000 0070 	adda.l #112,a0
			52a: RELOC32	.bss
     52e:	22d0           	move.l (a0),(a1)+
     530:	2282           	move.l d2,(a1)
     532:	2080           	move.l d0,(a0)
     534:	242d fffc      	move.l -4(a5),d2
     538:	4e5d           	unlk a5
     53a:	4e75           	rts
     53c:	706b           	moveq #107,d0
     53e:	2b40 0008      	move.l d0,8(a5)
     542:	242d fffc      	move.l -4(a5),d2
     546:	4e5d           	unlk a5
     548:	4ef9           	.short 0x4ef9

0000054a __aio_putu2:
     54a:	0000 011e      	ori.b #30,d0
			54a: RELOC32	.text

0000054e _WINDOW_OUTPUT:
     54e:	4e55 0000      	link.w a5,#0
     552:	222d 0008      	move.l 8(a5),d1
     556:	3001           	move.w d1,d0
     558:	0c41 0001      	cmpi.w #1,d1
     55c:	674c           	beq.s 5aa __autil_create_ext_io
     55e:	5340           	subq.w #1,d0
     560:	0c40 000f      	cmpi.w #15,d0

00000564 _TIMER_OFF:
     564:	6236           	bhi.s 59c __autil_delete_port+0x2a
     566:	3041           	movea.w d1,a0
     568:	2008           	move.l a0,d0
     56a:	5380           	subq.l #1,d0
     56c:	41f9           	.short 0x41f9

0000056e _UCASE_:
     56e:	0000 0074      	ori.b #116,d0
			56e: RELOC32	.bss

00000572 __autil_delete_port:
     572:	e988           	lsl.l #4,d0
     574:	2070 0800      	movea.l (0,a0,d0.l),a0
     578:	2008           	move.l a0,d0
     57a:	6720           	beq.s 59c __autil_delete_port+0x2a
     57c:	33c1 0000 0052 	move.w d1,52 __aqb_read2+0x12
			57e: RELOC32	.data
     582:	23c8 0000 0006 	move.l a0,6 ___mulsi4
			584: RELOC32	.bss
     588:	23e8 0032 0000 	move.l 50(a0),a ___mulsi4+0x4
     58e:	000a 
			58c: RELOC32	.bss
     590:	7002           	moveq #2,d0
     592:	23c0 0000 01a0 	move.l d0,1a0 ___pow_s1+0x2
			594: RELOC32	.bss
     598:	4e5d           	unlk a5
     59a:	4e75           	rts
     59c:	706c           	moveq #108,d0
     59e:	2b40 0008      	move.l d0,8(a5)
     5a2:	4e5d           	unlk a5
     5a4:	4ef9 0000 011e 	jmp 11e _ERROR
			5a6: RELOC32	.text

000005aa __autil_create_ext_io:
     5aa:	41f9 0000 0074 	lea 74 __MEMSET+0x2,a0
			5ac: RELOC32	.bss
     5b0:	4a90           	tst.l (a0)
     5b2:	6720           	beq.s 5d4 __debug_putu4
     5b4:	2050           	movea.l (a0),a0
     5b6:	33c1 0000 0052 	move.w d1,52 __aqb_read2+0x12
			5b8: RELOC32	.data
     5bc:	23c8           	.short 0x23c8

000005be ___aqb_shr_single:
     5be:	0000 0006      	ori.b #6,d0
			5be: RELOC32	.bss
     5c2:	23e8 0032 0000 	move.l 50(a0),a ___mulsi4+0x4
     5c8:	000a 
			5c6: RELOC32	.bss
     5ca:	7002           	moveq #2,d0
     5cc:	23c0 0000 01a0 	move.l d0,1a0 ___pow_s1+0x2
			5ce: RELOC32	.bss
     5d2:	60c4           	bra.s 598 __autil_delete_port+0x26

000005d4 __debug_putu4:
     5d4:	0c79 0001 0000 	cmpi.w #1,18 ___DARRAY_T_REDIM
     5da:	0018 
			5d8: RELOC32	.bss
     5dc:	66be           	bne.s 59c __autil_delete_port+0x2a
     5de:	33c1 0000 0052 	move.w d1,52 __aqb_read2+0x12
			5e0: RELOC32	.data
     5e4:	42b9 0000 0006 	clr.l 6 ___mulsi4
			5e6: RELOC32	.bss
     5ea:	42b9 0000 000a 	clr.l a ___mulsi4+0x4
			5ec: RELOC32	.bss
     5f0:	7001           	moveq #1,d0
     5f2:	23c0           	.short 0x23c0

000005f4 __autil_create_std_io:
     5f4:	0000 01a0      	ori.b #-96,d0
			5f4: RELOC32	.bss

000005f8 _WAVE_:
     5f8:	4e5d           	unlk a5
     5fa:	4e75           	rts

000005fc __awindow_shutdown:
     5fc:	4e55 0000      	link.w a5,#0
     600:	48e7 3032      	movem.l d2-d3/a2-a3/a6,-(sp)

00000604 __aio_putu1:
     604:	47f9 0000 0074 	lea 74 __MEMSET+0x2,a3
			606: RELOC32	.bss
     60a:	7400           	moveq #0,d2
     60c:	2053           	movea.l (a3),a0
     60e:	2008           	move.l a0,d0
     610:	674e           	beq.s 660 __autil_delete_ext_io+0x26
     612:	246b 0008      	movea.l 8(a3),a2
     616:	200a           	move.l a2,d0
     618:	6712           	beq.s 62c _LCASE_+0x12

0000061a _LCASE_:
     61a:	2f02           	move.l d2,-(sp)
     61c:	206a 0004      	movea.l 4(a2),a0
     620:	4e90           	jsr (a0)
     622:	2452           	movea.l (a2),a2
     624:	588f           	addq.l #4,sp
     626:	200a           	move.l a2,d0
     628:	66f0           	bne.s 61a _LCASE_
     62a:	2053           	movea.l (a3),a0
     62c:	2268 0032      	movea.l 50(a0),a1
     630:	2269 000c      	movea.l 12(a1),a1
     634:	2009           	move.l a1,d0
     636:	671c           	beq.s 654 __autil_delete_ext_io+0x1a
     638:	2251           	movea.l (a1),a1

0000063a __autil_delete_ext_io:
     63a:	2c79 0000 0000 	movea.l 0 _start,a6
			63c: RELOC32	.bss
     640:	4eae fd4e      	jsr -690(a6)
     644:	2053           	movea.l (a3),a0
     646:	2068 0032      	movea.l 50(a0),a0
     64a:	2268 000c      	movea.l 12(a0),a1
     64e:	4eae fd4e      	jsr -690(a6)
     652:	2053           	movea.l (a3),a0
     654:	2c79 0000 0000 	movea.l 0 _start,a6
			656: RELOC32	.bss
     65a:	4eae ffb8      	jsr -72(a6)
     65e:	4293           	clr.l (a3)
     660:	5282           	addq.l #1,d2
     662:	47eb 0010      	lea 16(a3),a3
     666:	7010           	moveq #16,d0

00000668 __autil_begin_io:
     668:	b082           	cmp.l d2,d0
     66a:	66a0           	bne.s 60c __aio_putu1+0x8
     66c:	2079           	.short 0x2079

0000066e ___aqb_xor_single:
     66e:	0000 0174      	ori.b #116,d0
			66e: RELOC32	.bss
     672:	2008           	move.l a0,d0
     674:	670a           	beq.s 680 __autil_init
     676:	2c79 0000 0000 	movea.l 0 _start,a6
			678: RELOC32	.bss
     67c:	4eae ffbe      	jsr -66(a6)

00000680 __autil_init:
     680:	2079 0000 0178 	movea.l 178 ___pow_u2+0x6,a0
			682: RELOC32	.bss
     686:	2008           	move.l a0,d0
     688:	670a           	beq.s 694 __autil_init+0x14
     68a:	2c79 0000 0000 	movea.l 0 _start,a6
			68c: RELOC32	.bss
     690:	4eae ffbe      	jsr -66(a6)
     694:	2079 0000 017c 	movea.l 17c ___pow_u2+0xa,a0
			696: RELOC32	.bss
     69a:	2008           	move.l a0,d0
     69c:	670a           	beq.s 6a8 __autil_shutdown+0x4
     69e:	2c79 0000 0000 	movea.l 0 _start,a6
			6a0: RELOC32	.bss

000006a4 __autil_shutdown:
     6a4:	4eae ffbe      	jsr -66(a6)
     6a8:	2079           	.short 0x2079
	...
			6aa: RELOC32	.bss

000006ac __debug_putf:
     6ac:	0180           	bclr d0,d0
     6ae:	2008           	move.l a0,d0
     6b0:	670a           	beq.s 6bc __debug_putf+0x10
     6b2:	2c79 0000 0000 	movea.l 0 _start,a6
			6b4: RELOC32	.bss
     6b8:	4eae ffbe      	jsr -66(a6)
     6bc:	2479           	.short 0x2479

000006be __aio_puthex:
     6be:	0000 0188      	ori.b #-120,d0
			6be: RELOC32	.bss
     6c2:	200a           	move.l a2,d0
     6c4:	6700           	.short 0x6700

000006c6 _LEFT_:
     6c6:	008a           	.short 0x008a
     6c8:	2052           	movea.l (a2),a0
     6ca:	262a 0004      	move.l 4(a2),d3
     6ce:	2008           	move.l a0,d0
     6d0:	6700 0128      	beq.w 7fa ___aqb_imp_single+0x30
     6d4:	2143 0004      	move.l d3,4(a0)
     6d8:	2243           	movea.l d3,a1
     6da:	2009           	move.l a1,d0
     6dc:	6700 012a      	beq.w 808 ___aqb_imp_single+0x3e
     6e0:	2288           	move.l a0,(a1)
     6e2:	226a 000e      	movea.l 14(a2),a1
     6e6:	2009           	move.l a1,d0

000006e8 _WAVE_FREE:
     6e8:	670e           	beq.s 6f8 _WAVE_FREE+0x10
     6ea:	2c79 0000 0000 	movea.l 0 _start,a6
			6ec: RELOC32	.bss
     6f0:	4eae fd4e      	jsr -690(a6)
     6f4:	42aa 000e      	clr.l 14(a2)
     6f8:	4a6a 000c      	tst.w 12(a2)
     6fc:	6600 00d8      	bne.w 7d6 ___aqb_imp_single+0xc
     700:	4a2a 0017      	tst.b 23(a2)
     704:	6736           	beq.s 73c ___aqb_eqv_single+0x22
     706:	4242           	clr.w d2
     708:	91c8           	suba.l a0,a0
     70a:	2008           	move.l a0,d0
     70c:	5480           	addq.l #2,d0
     70e:	e588           	lsl.l #2,d0
     710:	47f2 0812      	lea (18,a2,d0.l),a3
     714:	2c79 0000 0004 	movea.l 4 _start+0x4,a6
			716: RELOC32	.bss

0000071a ___aqb_eqv_single:
     71a:	302a 0008      	move.w 8(a2),d0
     71e:	2053           	movea.l (a3),a0
     720:	48c0           	ext.l d0
     722:	322a 000a      	move.w 10(a2),d1
     726:	48c1           	ext.l d1
     728:	4eae fe0e      	jsr -498(a6)
     72c:	4293           	clr.l (a3)
     72e:	5242           	addq.w #1,d2
     730:	3042           	movea.w d2,a0
     732:	7000           	moveq #0,d0
     734:	102a 0017      	move.b 23(a2),d0
     738:	b088           	cmp.l a0,d0
     73a:	6ece           	bgt.s 70a _WAVE_FREE+0x22
     73c:	224a           	movea.l a2,a1
     73e:	2c79 0000 0000 	movea.l 0 _start,a6
			740: RELOC32	.bss
     744:	4eae           	.short 0x4eae

00000746 _WAVE:
     746:	fd4e           	.short 0xfd4e
     748:	2443           	movea.l d3,a2
     74a:	4a83           	tst.l d3
     74c:	6600 ff7a      	bne.w 6c8 _LEFT_+0x2
     750:	2479 0000 0190 	movea.l 190 __debug_puts1+0x4,a2
			752: RELOC32	.bss
     756:	200a           	move.l a2,d0
     758:	675a           	beq.s 7b4 __debug_putbool+0x2a
     75a:	2052           	movea.l (a2),a0
     75c:	242a 0004      	move.l 4(a2),d2

00000760 _RIGHT_:
     760:	2008           	move.l a0,d0
     762:	6700 00b8      	beq.w 81c ___aqb_imp_single+0x52
     766:	2142 0004      	move.l d2,4(a0)
     76a:	2242           	movea.l d2,a1
     76c:	2009           	move.l a1,d0
     76e:	6700 00a2      	beq.w 812 ___aqb_imp_single+0x48
     772:	2288           	move.l a0,(a1)

00000774 __aio_putbin:
     774:	226a 000c      	movea.l 12(a2),a1
     778:	2009           	move.l a1,d0

0000077a _SOUND_WAIT:
     77a:	670a           	beq.s 786 _SOUND_WAIT+0xc
     77c:	2c79 0000 0004 	movea.l 4 _start+0x4,a6
			77e: RELOC32	.bss
     782:	4eae ffb2      	jsr -78(a6)
     786:	206a 0008      	movea.l 8(a2),a0

0000078a __debug_putbool:
     78a:	2008           	move.l a0,d0
     78c:	6714           	beq.s 7a2 __debug_putbool+0x18
     78e:	2228 0012      	move.l 18(a0),d1
     792:	670e           	beq.s 7a2 __debug_putbool+0x18
     794:	42a8 0012      	clr.l 18(a0)
     798:	2c79 0000 0004 	movea.l 4 _start+0x4,a6
			79a: RELOC32	.bss
     79e:	4eae ff64      	jsr -156(a6)
     7a2:	224a           	movea.l a2,a1
     7a4:	2c79 0000 0000 	movea.l 0 _start,a6
			7a6: RELOC32	.bss
     7aa:	4eae fd4e      	jsr -690(a6)
     7ae:	2442           	movea.l d2,a2
     7b0:	4a82           	tst.l d2
     7b2:	66a6           	bne.s 75a _WAVE+0x14
     7b4:	4a79 0000 0050 	tst.w 50 __aqb_read2+0x10
			7b6: RELOC32	.bss
     7ba:	6710           	beq.s 7cc ___aqb_imp_single+0x2
     7bc:	43f9 0000 0020 	lea 20 __debug_putc,a1
			7be: RELOC32	.bss
     7c2:	2c79 0000 0000 	movea.l 0 _start,a6
			7c4: RELOC32	.bss
     7c8:	4eae           	.short 0x4eae

000007ca ___aqb_imp_single:
     7ca:	fe3e           	.short 0xfe3e
     7cc:	4ced 4c0c ffec 	movem.l -20(a5),d2-d3/a2-a3/a6
     7d2:	4e5d           	unlk a5
     7d4:	4e75           	rts
     7d6:	226a 001a      	movea.l 26(a2),a1
     7da:	2c79 0000 0000 	movea.l 0 _start,a6
			7dc: RELOC32	.bss
     7e0:	4eae fd4e      	jsr -690(a6)
     7e4:	42aa 001a      	clr.l 26(a2)
     7e8:	224a           	movea.l a2,a1
     7ea:	4eae fd4e      	jsr -690(a6)
     7ee:	2443           	movea.l d3,a2
     7f0:	4a83           	tst.l d3
     7f2:	6600 fed4      	bne.w 6c8 _LEFT_+0x2
     7f6:	6000 ff58      	bra.w 750 _WAVE+0xa
     7fa:	23c3 0000 0188 	move.l d3,188 ___pow_u2+0x16
			7fc: RELOC32	.bss
     800:	2243           	movea.l d3,a1
     802:	2009           	move.l a1,d0
     804:	6600 feda      	bne.w 6e0 _LEFT_+0x1a
     808:	23c8 0000 018c 	move.l a0,18c __debug_puts1
			80a: RELOC32	.bss
     80e:	6000 fed2      	bra.w 6e2 _LEFT_+0x1c
     812:	23c8 0000 0194 	move.l a0,194 __debug_puts1+0x8
			814: RELOC32	.bss
     818:	6000 ff5a      	bra.w 774 __aio_putbin
     81c:	23c2 0000 0190 	move.l d2,190 __debug_puts1+0x4
			81e: RELOC32	.bss
     822:	2242           	movea.l d2,a1
     824:	6000 ff46      	bra.w 76c _RIGHT_+0xc

00000828 __aqb_get_output:
     828:	4e55           	Address 0x000000000000082a is out of bounds.
.short 0x4e55

0000082a __aio_putuhex:
     82a:	0000 2f02      	ori.b #2,d0
     82e:	342d 000a      	move.w 10(a5),d2
     832:	4a79 0000 001e 	tst.w 1e __atimer_shutdown+0x2
			834: RELOC32	.bss
     838:	6666           	bne.s 8a0 _INSTR_+0x18
     83a:	4a42           	tst.w d2
     83c:	6722           	beq.s 860 __astr_strstr+0xe
     83e:	7001           	moveq #1,d0
     840:	b0b9 0000 01a0 	cmp.l 1a0 ___pow_s1+0x2,d0
			842: RELOC32	.bss
     846:	6460           	bcc.s 8a8 _INSTR_+0x20
     848:	4ab9 0000 000a 	tst.l a ___mulsi4+0x4
			84a: RELOC32	.bss
     84e:	6700 008c      	beq.w 8dc _INSTR_+0x54

00000852 __astr_strstr:
     852:	2039 0000 01a0 	move.l 1a0 ___pow_s1+0x2,d0
			854: RELOC32	.bss
     858:	242d fffc      	move.l -4(a5),d2
     85c:	4e5d           	unlk a5
     85e:	4e75           	rts
     860:	2039 0000 01a0 	move.l 1a0 ___pow_s1+0x2,d0
			862: RELOC32	.bss

00000866 __debug_puttab:
     866:	66f0           	bne.s 858 __astr_strstr+0x6
     868:	2f00           	move.l d0,-(sp)
     86a:	4878 140f      	pea 140f __s2toa_+0x3
     86e:	4878 ffff      	pea ffffffff __awindow_init+0xffffc149
     872:	4878 ffff      	pea ffffffff __awindow_init+0xffffc149
     876:	2f00           	move.l d0,-(sp)
     878:	4878           	.short 0x4878

0000087a ___aqb_not_single:
     87a:	ffff           	.short 0xffff
     87c:	4878 ffff      	pea ffffffff __awindow_init+0xffffc149
     880:	2f00           	move.l d0,-(sp)
     882:	487a f908      	pea 18c __debug_puts1(pc)
     886:	4878           	.short 0x4878

00000888 _INSTR_:
     888:	0001 4eba      	ori.b #-70,d1
     88c:	f90c           	.short 0xf90c
     88e:	2039 0000 01a0 	move.l 1a0 ___pow_s1+0x2,d0
			890: RELOC32	.bss
     894:	4fef 0028      	lea 40(sp),sp
     898:	242d fffc      	move.l -4(a5),d2
     89c:	4e5d           	unlk a5
     89e:	4e75           	rts
     8a0:	4eb9 0000 0aba 	jsr aba ___handle_break
			8a2: RELOC32	.text
     8a6:	6092           	bra.s 83a __aio_putuhex+0x10
     8a8:	42a7           	clr.l -(sp)
     8aa:	4878 140f      	pea 140f __s2toa_+0x3
     8ae:	4878 ffff      	pea ffffffff __awindow_init+0xffffc149
     8b2:	4878 ffff      	pea ffffffff __awindow_init+0xffffc149
     8b6:	42a7           	clr.l -(sp)
     8b8:	4878 ffff      	pea ffffffff __awindow_init+0xffffc149
     8bc:	4878 ffff      	pea ffffffff __awindow_init+0xffffc149
     8c0:	42a7           	clr.l -(sp)
     8c2:	487a f8c8      	pea 18c __debug_puts1(pc)
     8c6:	4878 0001      	pea 1 _start+0x1
     8ca:	4eba f8cc      	jsr 198 _WINDOW(pc)
     8ce:	4fef 0028      	lea 40(sp),sp
     8d2:	4ab9 0000 000a 	tst.l a ___mulsi4+0x4
			8d4: RELOC32	.bss
     8d8:	6600 ff78      	bne.w 852 __astr_strstr
     8dc:	4878           	.short 0x4878

000008de ___aqb_and_single:
     8de:	007a           	.short 0x007a
     8e0:	4eb9 0000 011e 	jsr 11e _ERROR
			8e2: RELOC32	.text
     8e6:	2039 0000 01a0 	move.l 1a0 ___pow_s1+0x2,d0
			8e8: RELOC32	.bss
     8ec:	242d fffc      	move.l -4(a5),d2
     8f0:	4e5d           	unlk a5
     8f2:	4e75           	rts

000008f4 __aqb_get_win:
     8f4:	4e55 0000      	link.w a5,#0
     8f8:	302d 000a      	move.w 10(a5),d0
     8fc:	48c0           	ext.l d0
     8fe:	41f9 0000 0074 	lea 74 __MEMSET+0x2,a0
			900: RELOC32	.bss
     904:	e988           	lsl.l #4,d0
     906:	2030 0800      	move.l (0,a0,d0.l),d0
     90a:	4e5d           	unlk a5
     90c:	4e75           	rts
     90e:	4e55 fffc      	link.w a5,#-4

00000912 __debug_putnl:
     912:	48e7 3002      	movem.l d2-d3/a6,-(sp)
     916:	4a79 0000 001e 	tst.w 1e __atimer_shutdown+0x2
			918: RELOC32	.bss
     91c:	6600 00a4      	bne.w 9c2 __debug_cls+0x4
     920:	2639           	.short 0x2639

00000922 __astr_dup:
     922:	0000 01a0      	ori.b #-96,d0
			922: RELOC32	.bss
     926:	673e           	beq.s 966 __astr_dup+0x44
     928:	7001           	moveq #1,d0
     92a:	b083           	cmp.l d3,d0
     92c:	676e           	beq.s 99c ___aqb_or_single+0x12
     92e:	2c79 0000 0004 	movea.l 4 _start+0x4,a6
			930: RELOC32	.bss
     934:	7200           	moveq #0,d1
     936:	2001           	move.l d1,d0
     938:	2279 0000 000a 	movea.l a ___mulsi4+0x4,a1
			93a: RELOC32	.bss
     93e:	4eae ff10      	jsr -240(a6)
     942:	2279 0000 000a 	movea.l a ___mulsi4+0x4,a1
			944: RELOC32	.bss
     948:	4eae ffd0      	jsr -48(a6)
     94c:	4878 0001      	pea 1 _start+0x1
     950:	4878 0001      	pea 1 _start+0x1
     954:	4eb9 0000 261a 	jsr 261a _LOCATE
			956: RELOC32	.text
     95a:	7001           	moveq #1,d0
     95c:	4ced 400c fff0 	movem.l -16(a5),d2-d3/a6
     962:	4e5d           	unlk a5
     964:	4e75           	rts
     966:	2f03           	move.l d3,-(sp)

00000968 ___astr_cmp:
     968:	4878 140f      	pea 140f __s2toa_+0x3
     96c:	4878 ffff      	pea ffffffff __awindow_init+0xffffc149
     970:	4878 ffff      	pea ffffffff __awindow_init+0xffffc149
     974:	2f03           	move.l d3,-(sp)
     976:	4878 ffff      	pea ffffffff __awindow_init+0xffffc149
     97a:	4878 ffff      	pea ffffffff __awindow_init+0xffffc149
     97e:	2f03           	move.l d3,-(sp)
     980:	487a f80a      	pea 18c __debug_puts1(pc)
     984:	4878 0001      	pea 1 _start+0x1
     988:	4eba           	.short 0x4eba

0000098a ___aqb_or_single:
     98a:	f80e           	.short 0xf80e
     98c:	2639 0000 01a0 	move.l 1a0 ___pow_s1+0x2,d3
			98e: RELOC32	.bss
     992:	4fef 0028      	lea 40(sp),sp
     996:	7001           	moveq #1,d0
     998:	b083           	cmp.l d3,d0
     99a:	6692           	bne.s 92e __astr_dup+0xc
     99c:	1b7c           	.short 0x1b7c
     99e:	000c           	Address 0x00000000000009a0 is out of bounds.
.short 0x000c

000009a0 ___astr_concat:
     9a0:	ffff           	.short 0xffff
     9a2:	2c79 0000 0004 	movea.l 4 _start+0x4,a6
			9a4: RELOC32	.bss
     9a8:	2239 0000 006c 	move.l 6c __aqb_read2+0x2c,d1
			9aa: RELOC32	.bss
     9ae:	240d           	move.l a5,d2
     9b0:	5382           	subq.l #1,d2
     9b2:	4eae ffd0      	jsr -48(a6)
     9b6:	7001           	moveq #1,d0
     9b8:	4ced 400c fff0 	movem.l -16(a5),d2-d3/a6

000009be __debug_cls:
     9be:	4e5d           	unlk a5
     9c0:	4e75           	rts
     9c2:	4eb9 0000 0aba 	jsr aba ___handle_break
			9c4: RELOC32	.text
     9c8:	2639 0000 01a0 	move.l 1a0 ___pow_s1+0x2,d3
			9ca: RELOC32	.bss
     9ce:	6600 ff58      	bne.w 928 __astr_dup+0x6
     9d2:	6092           	bra.s 966 __astr_dup+0x44

000009d4 _LINE:
     9d4:	4e55 0000      	link.w a5,#0
     9d8:	48e7 3f3a      	movem.l d2-d7/a2-a4/a6,-(sp)
     9dc:	266d 0020      	movea.l 32(a5),a3
     9e0:	3c6d 000a      	movea.w 10(a5),a6
     9e4:	3a2d 000e      	move.w 14(a5),d5
     9e8:	382d 0012      	move.w 18(a5),d4
     9ec:	386d 0016      	movea.w 22(a5),a4
     9f0:	342d 001a      	move.w 26(a5),d2
     9f4:	362d 001e      	move.w 30(a5),d3
     9f8:	3e0b           	move.w a3,d7
     9fa:	346d 0026      	movea.w 38(a5),a2
     9fe:	4a79 0000 001e 	tst.w 1e __atimer_shutdown+0x2
			a00: RELOC32	.bss

00000a04 __astr_ftoa_ext:
     a04:	6600 00c6      	bne.w acc ___subsf3+0x4
     a08:	7001           	moveq #1,d0
     a0a:	b0b9 0000 01a0 	cmp.l 1a0 ___pow_s1+0x2,d0
			a0c: RELOC32	.bss
     a10:	6400 0134      	bcc.w b46 _SOUND_STOP+0x26
     a14:	2279 0000 000a 	movea.l a ___mulsi4+0x4,a1
			a16: RELOC32	.bss
     a1a:	2009           	move.l a1,d0
     a1c:	6700 015e      	beq.w b7c __c_atexit+0x2c
     a20:	1c29 0019      	move.b 25(a1),d6
     a24:	4a45           	tst.w d5
     a26:	6d00 00c0      	blt.w ae8 __aio_putbool
     a2a:	4a44           	tst.w d4

00000a2c __aio_putf:
     a2c:	6d00 00b2      	blt.w ae0 ___subsf3+0x18
     a30:	300e           	move.w a6,d0
     a32:	6708           	beq.s a3c ___floatsisf+0x6
     a34:	da69           	.short 0xda69

00000a36 ___floatsisf:
     a36:	0024 d869      	ori.b #105,-(a4)
     a3a:	0026 300c      	ori.b #12,-(a6)
     a3e:	6708           	beq.s a48 ___floatsisf+0x12
     a40:	d469 0024      	add.w 36(a1),d2
     a44:	d669 0026      	add.w 38(a1),d3
     a48:	4a47           	tst.w d7
     a4a:	6d14           	blt.s a60 ___gtsf2+0x10
     a4c:	300b           	move.w a3,d0
     a4e:	48c0           	ext.l d0

00000a50 ___gtsf2:
     a50:	2c79 0000 0004 	movea.l 4 _start+0x4,a6
			a52: RELOC32	.bss
     a56:	4eae feaa      	jsr -342(a6)
     a5a:	2279 0000 000a 	movea.l a ___mulsi4+0x4,a1
			a5c: RELOC32	.bss
     a60:	300a           	move.w a2,d0
     a62:	0240 0001      	andi.w #1,d0
     a66:	673e           	beq.s aa6 __ctrlc_break+0x6
     a68:	300a           	move.w a2,d0

00000a6a __debug_break:
     a6a:	0240 0002      	andi.w #2,d0

00000a6e ___mulsf3:
     a6e:	6700 0084      	beq.w af4 __aio_putbool+0xc
     a72:	3005           	move.w d5,d0

00000a74 _ON_EXIT_CALL:
     a74:	2c79 0000 0004 	movea.l 4 _start+0x4,a6
			a76: RELOC32	.bss
     a7a:	48c0           	ext.l d0
     a7c:	3204           	move.w d4,d1
     a7e:	48c1           	ext.l d1
     a80:	48c2           	ext.l d2
     a82:	48c3           	ext.l d3
     a84:	4eae fece      	jsr -306(a6)
     a88:	4a47           	tst.w d7
     a8a:	6d10           	blt.s a9c ___divsf3+0x10

00000a8c ___divsf3:
     a8c:	4886           	ext.w d6
     a8e:	3006           	move.w d6,d0
     a90:	48c0           	ext.l d0
     a92:	2279 0000 000a 	movea.l a ___mulsi4+0x4,a1
			a94: RELOC32	.bss
     a98:	4eae feaa      	jsr -342(a6)
     a9c:	4ced           	.short 0x4ced
     a9e:	5cfc           	trapge

00000aa0 __ctrlc_break:
     aa0:	ffd8           	.short 0xffd8
     aa2:	4e5d           	unlk a5
     aa4:	4e75           	rts
     aa6:	3005           	move.w d5,d0
     aa8:	2c79           	.short 0x2c79

00000aaa _ON_BREAK_CALL:
     aaa:	0000 0004      	ori.b #4,d0
			aaa: RELOC32	.bss
     aae:	48c0           	ext.l d0
     ab0:	3204           	move.w d4,d1
     ab2:	48c1           	ext.l d1
     ab4:	4eae ff10      	jsr -240(a6)
     ab8:	3002           	move.w d2,d0

00000aba ___handle_break:
     aba:	2279 0000 000a 	movea.l a ___mulsi4+0x4,a1
			abc: RELOC32	.bss
     ac0:	48c0           	ext.l d0
     ac2:	3203           	move.w d3,d1
     ac4:	48c1           	ext.l d1
     ac6:	4eae           	.short 0x4eae

00000ac8 ___subsf3:
     ac8:	ff0a           	.short 0xff0a
     aca:	60bc           	bra.s a88 _ON_EXIT_CALL+0x14
     acc:	4eb9 0000 0aba 	jsr aba ___handle_break
			ace: RELOC32	.text
     ad2:	7001           	moveq #1,d0
     ad4:	b0b9 0000 01a0 	cmp.l 1a0 ___pow_s1+0x2,d0
			ad6: RELOC32	.bss
     ada:	6500 ff38      	bcs.w a14 __astr_ftoa_ext+0x10
     ade:	6066           	bra.s b46 _SOUND_STOP+0x26
     ae0:	3829 0026      	move.w 38(a1),d4
     ae4:	6000           	.short 0x6000

00000ae6 ___fixsfsi:
     ae6:	ff4a           	.short 0xff4a

00000ae8 __aio_putbool:
     ae8:	3a29 0024      	move.w 36(a1),d5
     aec:	4a44           	tst.w d4
     aee:	6c00 ff40      	bge.w a30 __aio_putf+0x4
     af2:	60ec           	bra.s ae0 ___subsf3+0x18
     af4:	3645           	movea.w d5,a3
     af6:	3444           	movea.w d4,a2
     af8:	2c79 0000 0004 	movea.l 4 _start+0x4,a6
			afa: RELOC32	.bss
     afe:	200b           	move.l a3,d0

00000b00 ___ltsf2:
     b00:	220a           	move.l a2,d1
     b02:	4eae ff10      	jsr -240(a6)
     b06:	48c2           	ext.l d2
     b08:	2279 0000 000a 	movea.l a ___mulsi4+0x4,a1
			b0a: RELOC32	.bss
     b0e:	2002           	move.l d2,d0
     b10:	220a           	move.l a2,d1
     b12:	4eae ff0a      	jsr -246(a6)
     b16:	3843           	movea.w d3,a4
     b18:	2279 0000 000a 	movea.l a ___mulsi4+0x4,a1
			b1a: RELOC32	.bss

00000b1e _RND_:
     b1e:	2002           	move.l d2,d0

00000b20 _SOUND_STOP:
     b20:	220c           	move.l a4,d1
     b22:	4eae ff0a      	jsr -246(a6)
     b26:	2279 0000 000a 	movea.l a ___mulsi4+0x4,a1
			b28: RELOC32	.bss
     b2c:	200b           	move.l a3,d0
     b2e:	220c           	move.l a4,d1
     b30:	4eae ff0a      	jsr -246(a6)
     b34:	2279 0000 000a 	movea.l a ___mulsi4+0x4,a1
			b36: RELOC32	.bss
     b3a:	200b           	move.l a3,d0
     b3c:	220a           	move.l a2,d1
     b3e:	4eae ff0a      	jsr -246(a6)
     b42:	6000 ff44      	bra.w a88 _ON_EXIT_CALL+0x14
     b46:	42a7           	clr.l -(sp)
     b48:	4878 140f      	pea 140f __s2toa_+0x3
     b4c:	4878 ffff      	pea ffffffff __awindow_init+0xffffc149

00000b50 __c_atexit:
     b50:	4878 ffff      	pea ffffffff __awindow_init+0xffffc149
     b54:	42a7           	clr.l -(sp)
     b56:	4878 ffff      	pea ffffffff __awindow_init+0xffffc149
     b5a:	4878 ffff      	pea ffffffff __awindow_init+0xffffc149
     b5e:	42a7           	clr.l -(sp)
     b60:	487a f62a      	pea 18c __debug_puts1(pc)
     b64:	4878 0001      	pea 1 _start+0x1
     b68:	4eba f62e      	jsr 198 _WINDOW(pc)
     b6c:	2279 0000 000a 	movea.l a ___mulsi4+0x4,a1
			b6e: RELOC32	.bss
     b72:	4fef 0028      	lea 40(sp),sp
     b76:	2009           	move.l a1,d0
     b78:	6600 fea6      	bne.w a20 __astr_ftoa_ext+0x1c
     b7c:	4878 007a      	pea 7a __atimer_process_signals+0x2
     b80:	4eb9 0000 011e 	jsr 11e _ERROR
			b82: RELOC32	.text
     b86:	2279 0000 000a 	movea.l a ___mulsi4+0x4,a1
			b88: RELOC32	.bss
     b8c:	1c29 0019      	move.b 25(a1),d6
     b90:	4a45           	tst.w d5
     b92:	6c00 fe96      	bge.w a2a __astr_ftoa_ext+0x26
     b96:	6000 ff50      	bra.w ae8 __aio_putbool

00000b9a _PSET:
     b9a:	4e55 0000      	link.w a5,#0

00000b9e __aio_writes4:
     b9e:	48e7 3c32      	movem.l d2-d5/a2-a3/a6,-(sp)
     ba2:	282d 0014      	move.l 20(a5),d4
     ba6:	3a2d 000a      	move.w 10(a5),d5
     baa:	366d 000e      	movea.w 14(a5),a3
     bae:	346d 0012      	movea.w 18(a5),a2
     bb2:	3604           	move.w d4,d3
     bb4:	4a79 0000 001e 	tst.w 1e __atimer_shutdown+0x2
			bb6: RELOC32	.bss
     bba:	667e           	bne.s c3a __aio_writes4+0x9c
     bbc:	7001           	moveq #1,d0
     bbe:	b0b9 0000 01a0 	cmp.l 1a0 ___pow_s1+0x2,d0
			bc0: RELOC32	.bss
     bc4:	6400 0086      	bcc.w c4c __aio_writes4+0xae
     bc8:	2279 0000 000a 	movea.l a ___mulsi4+0x4,a1
			bca: RELOC32	.bss
     bce:	2009           	move.l a1,d0
     bd0:	6700 00b0      	beq.w c82 _SOUND_start+0x12
     bd4:	1429 0019      	move.b 25(a1),d2
     bd8:	4a45           	tst.w d5
     bda:	6708           	beq.s be4 __aio_writes4+0x46
     bdc:	d6e9 0024      	adda.w 36(a1),a3
     be0:	d4e9 0026      	adda.w 38(a1),a2
     be4:	4a43           	tst.w d3
     be6:	6d14           	blt.s bfc __aio_writes4+0x5e
     be8:	3004           	move.w d4,d0
     bea:	48c0           	ext.l d0
     bec:	2c79 0000 0004 	movea.l 4 _start+0x4,a6
			bee: RELOC32	.bss
     bf2:	4eae feaa      	jsr -342(a6)
     bf6:	2279 0000 000a 	movea.l a ___mulsi4+0x4,a1
			bf8: RELOC32	.bss
     bfc:	364b           	movea.w a3,a3
     bfe:	344a           	movea.w a2,a2
     c00:	2c79 0000 0004 	movea.l 4 _start+0x4,a6
			c02: RELOC32	.bss
     c06:	200b           	move.l a3,d0
     c08:	220a           	move.l a2,d1
     c0a:	4eae ff10      	jsr -240(a6)
     c0e:	2279 0000 000a 	movea.l a ___mulsi4+0x4,a1
			c10: RELOC32	.bss
     c14:	200b           	move.l a3,d0
     c16:	220a           	move.l a2,d1
     c18:	4eae febc      	jsr -324(a6)
     c1c:	4a43           	tst.w d3
     c1e:	6d10           	blt.s c30 __aio_writes4+0x92
     c20:	4882           	ext.w d2
     c22:	3002           	move.w d2,d0
     c24:	48c0           	ext.l d0
     c26:	2279 0000 000a 	movea.l a ___mulsi4+0x4,a1
			c28: RELOC32	.bss
     c2c:	4eae feaa      	jsr -342(a6)
     c30:	4ced 4c3c ffe4 	movem.l -28(a5),d2-d5/a2-a3/a6
     c36:	4e5d           	unlk a5
     c38:	4e75           	rts
     c3a:	4eb9 0000 0aba 	jsr aba ___handle_break
			c3c: RELOC32	.text
     c40:	7001           	moveq #1,d0
     c42:	b0b9 0000 01a0 	cmp.l 1a0 ___pow_s1+0x2,d0
			c44: RELOC32	.bss
     c48:	6500 ff7e      	bcs.w bc8 __aio_writes4+0x2a
     c4c:	42a7           	clr.l -(sp)
     c4e:	4878 140f      	pea 140f __s2toa_+0x3
     c52:	4878 ffff      	pea ffffffff __awindow_init+0xffffc149

00000c56 __aio_writes2:
     c56:	4878 ffff      	pea ffffffff __awindow_init+0xffffc149
     c5a:	42a7           	clr.l -(sp)
     c5c:	4878 ffff      	pea ffffffff __awindow_init+0xffffc149
     c60:	4878 ffff      	pea ffffffff __awindow_init+0xffffc149
     c64:	42a7           	clr.l -(sp)
     c66:	487a f524      	pea 18c __debug_puts1(pc)
     c6a:	4878 0001      	pea 1 _start+0x1
     c6e:	4eba           	.short 0x4eba

00000c70 _SOUND_start:
     c70:	f528           	.short 0xf528
     c72:	2279 0000 000a 	movea.l a ___mulsi4+0x4,a1
			c74: RELOC32	.bss
     c78:	4fef 0028      	lea 40(sp),sp
     c7c:	2009           	move.l a1,d0
     c7e:	6600 ff54      	bne.w bd4 __aio_writes4+0x36
     c82:	4878 007a      	pea 7a __atimer_process_signals+0x2
     c86:	4eb9 0000 011e 	jsr 11e _ERROR
			c88: RELOC32	.text
     c8c:	2279 0000 000a 	movea.l a ___mulsi4+0x4,a1
			c8e: RELOC32	.bss
     c92:	6000 ff40      	bra.w bd4 __aio_writes4+0x36

00000c96 _POINT_:
     c96:	4e55 0000      	link.w a5,#0
     c9a:	48e7 3002      	movem.l d2-d3/a6,-(sp)
     c9e:	262d 0008      	move.l 8(a5),d3
     ca2:	242d 000c      	move.l 12(a5),d2
     ca6:	4a79 0000 001e 	tst.w 1e __atimer_shutdown+0x2
			ca8: RELOC32	.bss
     cac:	6630           	bne.s cde __cshutdown+0x30

00000cae __cshutdown:
     cae:	7001           	moveq #1,d0
     cb0:	b0b9 0000 01a0 	cmp.l 1a0 ___pow_s1+0x2,d0
			cb2: RELOC32	.bss
     cb6:	6436           	bcc.s cee __cshutdown+0x40
     cb8:	2279 0000 000a 	movea.l a ___mulsi4+0x4,a1
			cba: RELOC32	.bss
     cbe:	2009           	move.l a1,d0
     cc0:	6760           	beq.s d22 __aio_writes1+0x12
     cc2:	3003           	move.w d3,d0
     cc4:	2c79 0000 0004 	movea.l 4 _start+0x4,a6
			cc6: RELOC32	.bss
     cca:	48c0           	ext.l d0
     ccc:	3202           	move.w d2,d1
     cce:	48c1           	ext.l d1
     cd0:	4eae fec2      	jsr -318(a6)
     cd4:	4ced 400c fff4 	movem.l -12(a5),d2-d3/a6
     cda:	4e5d           	unlk a5
     cdc:	4e75           	rts
     cde:	4eb9 0000 0aba 	jsr aba ___handle_break
			ce0: RELOC32	.text
     ce4:	7001           	moveq #1,d0
     ce6:	b0b9 0000 01a0 	cmp.l 1a0 ___pow_s1+0x2,d0
			ce8: RELOC32	.bss
     cec:	65ca           	bcs.s cb8 __cshutdown+0xa
     cee:	42a7           	clr.l -(sp)
     cf0:	4878 140f      	pea 140f __s2toa_+0x3
     cf4:	4878 ffff      	pea ffffffff __awindow_init+0xffffc149
     cf8:	4878 ffff      	pea ffffffff __awindow_init+0xffffc149
     cfc:	42a7           	clr.l -(sp)
     cfe:	4878 ffff      	pea ffffffff __awindow_init+0xffffc149
     d02:	4878 ffff      	pea ffffffff __awindow_init+0xffffc149
     d06:	42a7           	clr.l -(sp)
     d08:	487a f482      	pea 18c __debug_puts1(pc)
     d0c:	4878 0001      	pea 1 _start+0x1

00000d10 __aio_writes1:
     d10:	4eba f486      	jsr 198 _WINDOW(pc)
     d14:	2279 0000 000a 	movea.l a ___mulsi4+0x4,a1
			d16: RELOC32	.bss
     d1a:	4fef 0028      	lea 40(sp),sp
     d1e:	2009           	move.l a1,d0
     d20:	66a0           	bne.s cc2 __cshutdown+0x14
     d22:	4878 007a      	pea 7a __atimer_process_signals+0x2
     d26:	4eb9 0000 011e 	jsr 11e _ERROR
			d28: RELOC32	.text
     d2c:	2279 0000 000a 	movea.l a ___mulsi4+0x4,a1
			d2e: RELOC32	.bss
     d32:	3003           	move.w d3,d0
     d34:	2c79 0000 0004 	movea.l 4 _start+0x4,a6
			d36: RELOC32	.bss
     d3a:	48c0           	ext.l d0
     d3c:	3202           	move.w d2,d1
     d3e:	48c1           	ext.l d1
     d40:	4eae fec2      	jsr -318(a6)
     d44:	4ced 400c fff4 	movem.l -12(a5),d2-d3/a6
     d4a:	4e5d           	unlk a5
     d4c:	4e75           	rts

00000d4e _CIRCLE:
     d4e:	4e55 ffe8      	link.w a5,#-24
     d52:	48e7 3f3a      	movem.l d2-d7/a2-a4/a6,-(sp)
     d56:	262d 0014      	move.l 20(a5),d3
     d5a:	242d 0018      	move.l 24(a5),d2
     d5e:	2e2d 001c      	move.l 28(a5),d7
     d62:	282d 0020      	move.l 32(a5),d4
     d66:	3c2d 000a      	move.w 10(a5),d6
     d6a:	3b6d 000e fff2 	move.w 14(a5),-14(a5)

00000d70 _RANDOMIZE:
     d70:	3b6d 0012 fff0 	move.w 18(a5),-16(a5)
     d76:	3443           	movea.w d3,a2
     d78:	3b42 ffee      	move.w d2,-18(a5)
     d7c:	3a07           	move.w d7,d5
     d7e:	3644           	movea.w d4,a3
     d80:	4a79 0000 001e 	tst.w 1e __atimer_shutdown+0x2
			d82: RELOC32	.bss
     d86:	6600 034a      	bne.w 10d2 __aio_writebool+0x22
     d8a:	7001           	moveq #1,d0
     d8c:	b0b9           	.short 0xb0b9
	...
			d8e: RELOC32	.bss

00000d90 ____breakHandler:
     d90:	01a0           	bclr d0,-(a0)
     d92:	6400 0372      	bcc.w 1106 __aio_writebool+0x56
     d96:	2279           	.short 0x2279
	...
			d98: RELOC32	.bss

00000d9a __amath_init:
     d9a:	000a           	.short 0x000a
     d9c:	2009           	move.l a1,d0
     d9e:	6700 039c      	beq.w 113c __aio_writebool+0x8c
     da2:	1b69 0019 ffed 	move.b 25(a1),-19(a5)
     da8:	4a46           	tst.w d6
     daa:	6710           	beq.s dbc __amath_init+0x22
     dac:	3029 0024      	move.w 36(a1),d0
     db0:	d16d fff2      	add.w d0,-14(a5)
     db4:	3029 0026      	move.w 38(a1),d0
     db8:	d16d fff0      	add.w d0,-16(a5)
     dbc:	4a6d ffee      	tst.w -18(a5)

00000dc0 __asound_init:
     dc0:	6d0e           	blt.s dd0 __aio_writeu4+0x4
     dc2:	3002           	move.w d2,d0
     dc4:	48c0           	ext.l d0
     dc6:	2c79 0000 0004 	movea.l 4 _start+0x4,a6
			dc8: RELOC32	.bss

00000dcc __aio_writeu4:
     dcc:	4eae feaa      	jsr -342(a6)
     dd0:	49f9 0000 0008 	lea 8 ___mulsi4+0x2,a4
			dd2: RELOC32	.bss
     dd6:	48c3           	ext.l d3
     dd8:	2003           	move.l d3,d0
     dda:	2c54           	movea.l (a4),a6
     ddc:	4eae ffdc      	jsr -36(a6)
     de0:	222d 0024      	move.l 36(a5),d1
     de4:	2c54           	movea.l (a4),a6
     de6:	4eae ffac      	jsr -84(a6)
     dea:	2c54           	movea.l (a4),a6
     dec:	4eae ffe2      	jsr -30(a6)
     df0:	2400           	move.l d0,d2
     df2:	3c00           	move.w d0,d6
     df4:	4a45           	tst.w d5
     df6:	660a           	bne.s e02 __aio_writeu4+0x36
     df8:	303c 0167      	move.w #359,d0
     dfc:	b04b           	cmp.w a3,d0
     dfe:	6700 02e6      	beq.w 10e6 __aio_writebool+0x36
     e02:	47f9 0000 0008 	lea 8 ___mulsi4+0x2,a3
			e04: RELOC32	.bss
     e08:	7064           	moveq #100,d0
     e0a:	2c53           	movea.l (a3),a6
     e0c:	4eae ffdc      	jsr -36(a6)
     e10:	2a00           	move.l d0,d5
     e12:	7001           	moveq #1,d0
     e14:	2c53           	movea.l (a3),a6
     e16:	4eae ffdc      	jsr -36(a6)
     e1a:	2205           	move.l d5,d1
     e1c:	2c53           	movea.l (a3),a6
     e1e:	4eae ffac      	jsr -84(a6)
     e22:	2a00           	move.l d0,d5
     e24:	7001           	moveq #1,d0
     e26:	2c53           	movea.l (a3),a6
     e28:	4eae ffdc      	jsr -36(a6)
     e2c:	2c40           	movea.l d0,a6
     e2e:	bc4a           	cmp.w a2,d6
     e30:	6f00 028c      	ble.w 10be __aio_writebool+0xe
     e34:	48c2           	ext.l d2
     e36:	49f9 0000 0a36 	lea a36 ___floatsisf,a4
			e38: RELOC32	.text
     e3c:	2f02           	move.l d2,-(sp)
     e3e:	4e94           	jsr (a4)
     e40:	588f           	addq.l #4,sp
     e42:	2c00           	move.l d0,d6
     e44:	47f9 0000 0a8c 	lea a8c ___divsf3,a3
			e46: RELOC32	.text
     e4a:	2f06           	move.l d6,-(sp)
     e4c:	2f0e           	move.l a6,-(sp)
     e4e:	4e93           	jsr (a3)
     e50:	588f           	addq.l #4,sp
     e52:	2e80           	move.l d0,(sp)
     e54:	2f05           	move.l d5,-(sp)
     e56:	4eb9 0000 0b00 	jsr b00 ___ltsf2
			e58: RELOC32	.text
     e5c:	508f           	addq.l #8,sp
     e5e:	4a80           	tst.l d0
     e60:	6c16           	bge.s e78 __aio_writeu4+0xac
     e62:	7001           	moveq #1,d0
     e64:	2c79 0000 0008 	movea.l 8 ___mulsi4+0x2,a6
			e66: RELOC32	.bss
     e6a:	4eae ffdc      	jsr -36(a6)
     e6e:	2f06           	move.l d6,-(sp)
     e70:	2f00           	move.l d0,-(sp)
     e72:	4e93           	jsr (a3)
     e74:	508f           	addq.l #8,sp
     e76:	2a00           	move.l d0,d5
     e78:	45f9 0000 0008 	lea 8 ___mulsi4+0x2,a2
			e7a: RELOC32	.bss
     e7e:	203c 0004 cb2f 	move.l #314159,d0

00000e84 __aio_writeu2:
     e84:	2c52           	movea.l (a2),a6
     e86:	4eae ffdc      	jsr -36(a6)
     e8a:	2c00           	move.l d0,d6
     e8c:	203c 0001 86a0 	move.l #100000,d0
     e92:	2c52           	movea.l (a2),a6
     e94:	4eae ffdc      	jsr -36(a6)
     e98:	2f00           	move.l d0,-(sp)
     e9a:	2f06           	move.l d6,-(sp)
     e9c:	4e93           	jsr (a3)
     e9e:	508f           	addq.l #8,sp
     ea0:	2c00           	move.l d0,d6
     ea2:	3247           	movea.w d7,a1
     ea4:	3044           	movea.w d4,a0
     ea6:	2b49 fff4      	move.l a1,-12(a5)
     eaa:	91c9           	suba.l a1,a0
     eac:	2f08           	move.l a0,-(sp)
     eae:	4e94           	jsr (a4)
     eb0:	2c52           	movea.l (a2),a6
     eb2:	4eae ffca      	jsr -54(a6)
     eb6:	2e80           	move.l d0,(sp)
     eb8:	4eb9 0000 0ae6 	jsr ae6 ___fixsfsi
			eba: RELOC32	.text
     ebe:	2c52           	movea.l (a2),a6

00000ec0 __asound_shutdown:
     ec0:	4eae ffdc      	jsr -36(a6)
     ec4:	45f9 0000 0a6e 	lea a6e ___mulsf3,a2
			ec6: RELOC32	.text
     eca:	2e80           	move.l d0,(sp)
     ecc:	2f06           	move.l d6,-(sp)
     ece:	4e92           	jsr (a2)
     ed0:	508f           	addq.l #8,sp
     ed2:	2800           	move.l d0,d4
     ed4:	704b           	moveq #75,d0
     ed6:	4600           	not.b d0
     ed8:	2c79 0000 0008 	movea.l 8 ___mulsi4+0x2,a6
			eda: RELOC32	.bss
     ede:	4eae ffdc      	jsr -36(a6)
     ee2:	2f00           	move.l d0,-(sp)
     ee4:	2f04           	move.l d4,-(sp)
     ee6:	4e93           	jsr (a3)
     ee8:	588f           	addq.l #4,sp
     eea:	2e85           	move.l d5,(sp)
     eec:	2f00           	move.l d0,-(sp)
     eee:	4e93           	jsr (a3)
     ef0:	2c79 0000 0008 	movea.l 8 ___mulsi4+0x2,a6
			ef2: RELOC32	.bss
     ef6:	508f           	addq.l #8,sp
     ef8:	4eae ffe2      	jsr -30(a6)
     efc:	2e00           	move.l d0,d7
     efe:	2002           	move.l d2,d0
     f00:	4eae ffdc      	jsr -36(a6)
     f04:	2800           	move.l d0,d4
     f06:	2003           	move.l d3,d0
     f08:	4eae ffdc      	jsr -36(a6)
     f0c:	2400           	move.l d0,d2
     f0e:	2f00           	move.l d0,-(sp)
     f10:	2f04           	move.l d4,-(sp)
     f12:	4e93           	jsr (a3)
     f14:	508f           	addq.l #8,sp
     f16:	2600           	move.l d0,d3
     f18:	2005           	move.l d5,d0
     f1a:	2c79 0000 000c 	movea.l c _SCREEN,a6
			f1c: RELOC32	.bss
     f20:	4eae ffdc      	jsr -36(a6)
     f24:	2f00           	move.l d0,-(sp)
     f26:	2f03           	move.l d3,-(sp)
     f28:	4e92           	jsr (a2)
     f2a:	508f           	addq.l #8,sp
     f2c:	2b40 fffc      	move.l d0,-4(a5)
     f30:	2f04           	move.l d4,-(sp)
     f32:	2f02           	move.l d2,-(sp)
     f34:	4e93           	jsr (a3)
     f36:	508f           	addq.l #8,sp
     f38:	2600           	move.l d0,d3
     f3a:	2005           	move.l d5,d0
     f3c:	2c79           	.short 0x2c79
	...
			f3e: RELOC32	.bss

00000f40 __aio_writeu1:
     f40:	000c           	.short 0x000c
     f42:	4eae ffdc      	jsr -36(a6)
     f46:	2f00           	move.l d0,-(sp)
     f48:	2f03           	move.l d3,-(sp)
     f4a:	4e92           	jsr (a2)
     f4c:	508f           	addq.l #8,sp
     f4e:	2b40 fff8      	move.l d0,-8(a5)
     f52:	2005           	move.l d5,d0
     f54:	2c79 0000 000c 	movea.l c _SCREEN,a6
			f56: RELOC32	.bss
     f5a:	4eae ffd6      	jsr -42(a6)
     f5e:	2a00           	move.l d0,d5
     f60:	2f2d fff4      	move.l -12(a5),-(sp)
     f64:	4e94           	jsr (a4)
     f66:	2e86           	move.l d6,(sp)
     f68:	2f00           	move.l d0,-(sp)
     f6a:	4e92           	jsr (a2)
     f6c:	508f           	addq.l #8,sp
     f6e:	49f9 0000 0008 	lea 8 ___mulsi4+0x2,a4
			f70: RELOC32	.bss
     f74:	2600           	move.l d0,d3
     f76:	704b           	moveq #75,d0
     f78:	4600           	not.b d0
     f7a:	2c54           	movea.l (a4),a6
     f7c:	4eae ffdc      	jsr -36(a6)
     f80:	2f00           	move.l d0,-(sp)
     f82:	2f03           	move.l d3,-(sp)

00000f84 __cstartup:
     f84:	4e93           	jsr (a3)
     f86:	2c79 0000 000c 	movea.l c _SCREEN,a6
			f88: RELOC32	.bss
     f8c:	508f           	addq.l #8,sp
     f8e:	4eae ffd6      	jsr -42(a6)
     f92:	2f00           	move.l d0,-(sp)
     f94:	2f04           	move.l d4,-(sp)
     f96:	4e92           	jsr (a2)
     f98:	508f           	addq.l #8,sp
     f9a:	2c00           	move.l d0,d6
     f9c:	704b           	moveq #75,d0
     f9e:	4600           	not.b d0
     fa0:	2c54           	movea.l (a4),a6
     fa2:	4eae ffdc      	jsr -36(a6)
     fa6:	2f00           	move.l d0,-(sp)
     fa8:	2f03           	move.l d3,-(sp)
     faa:	4e93           	jsr (a3)
     fac:	2c79 0000 000c 	movea.l c _SCREEN,a6
			fae: RELOC32	.bss
     fb2:	508f           	addq.l #8,sp
     fb4:	4eae ffdc      	jsr -36(a6)
     fb8:	2f00           	move.l d0,-(sp)
     fba:	2f02           	move.l d2,-(sp)
     fbc:	4e92           	jsr (a2)
     fbe:	508f           	addq.l #8,sp
     fc0:	2079 0000 000a 	movea.l a ___mulsi4+0x4,a0
			fc2: RELOC32	.bss
     fc6:	2400           	move.l d0,d2
     fc8:	2608           	move.l a0,d3
     fca:	3b68 0024 fff4 	move.w 36(a0),-12(a5)
     fd0:	3b68 0026 ffea 	move.w 38(a0),-22(a5)
     fd6:	366d fff2      	movea.w -14(a5),a3
     fda:	2006           	move.l d6,d0
     fdc:	2c54           	movea.l (a4),a6
     fde:	4eae ffe2      	jsr -30(a6)
     fe2:	280b           	move.l a3,d4
     fe4:	d880           	add.l d0,d4
     fe6:	386d fff0      	movea.w -16(a5),a4
     fea:	2002           	move.l d2,d0
     fec:	2c79 0000 0008 	movea.l 8 ___mulsi4+0x2,a6
			fee: RELOC32	.bss
     ff2:	4eae ffe2      	jsr -30(a6)
     ff6:	220c           	move.l a4,d1
     ff8:	d280           	add.l d0,d1
     ffa:	2c79           	.short 0x2c79

00000ffc __aio_writef:
     ffc:	0000 0004      	ori.b #4,d0
			ffc: RELOC32	.bss
    1000:	2004           	move.l d4,d0
    1002:	2243           	movea.l d3,a1
    1004:	4eae ff10      	jsr -240(a6)
    1008:	2607           	move.l d7,d3
    100a:	677a           	beq.s 1086 __aio_writef+0x8a
    100c:	2f06           	move.l d6,-(sp)
    100e:	2f05           	move.l d5,-(sp)
    1010:	4e92           	jsr (a2)
    1012:	508f           	addq.l #8,sp
    1014:	2800           	move.l d0,d4
    1016:	2f02           	move.l d2,-(sp)
    1018:	2f2d fffc      	move.l -4(a5),-(sp)
    101c:	4e92           	jsr (a2)
    101e:	588f           	addq.l #4,sp
    1020:	2e80           	move.l d0,(sp)
    1022:	2f04           	move.l d4,-(sp)
    1024:	4eb9 0000 0ac8 	jsr ac8 ___subsf3
			1026: RELOC32	.text
    102a:	508f           	addq.l #8,sp
    102c:	2800           	move.l d0,d4
    102e:	2f06           	move.l d6,-(sp)
    1030:	2f2d fff8      	move.l -8(a5),-(sp)
    1034:	4e92           	jsr (a2)
    1036:	508f           	addq.l #8,sp
    1038:	2c00           	move.l d0,d6
    103a:	2f02           	move.l d2,-(sp)
    103c:	2f05           	move.l d5,-(sp)
    103e:	4e92           	jsr (a2)
    1040:	588f           	addq.l #4,sp
    1042:	2e80           	move.l d0,(sp)
    1044:	2f06           	move.l d6,-(sp)
    1046:	4eb9 0000 0aaa 	jsr aaa _ON_BREAK_CALL
			1048: RELOC32	.text
    104c:	508f           	addq.l #8,sp
    104e:	2400           	move.l d0,d2
    1050:	2e39 0000 000a 	move.l a ___mulsi4+0x4,d7
			1052: RELOC32	.bss
    1056:	2004           	move.l d4,d0
    1058:	2c79 0000 0008 	movea.l 8 ___mulsi4+0x2,a6
			105a: RELOC32	.bss
    105e:	4eae ffe2      	jsr -30(a6)
    1062:	2c0b           	move.l a3,d6
    1064:	dc80           	add.l d0,d6
    1066:	2002           	move.l d2,d0
    1068:	4eae ffe2      	jsr -30(a6)
    106c:	220c           	move.l a4,d1
    106e:	d280           	add.l d0,d1
    1070:	2c79 0000 0004 	movea.l 4 _start+0x4,a6
			1072: RELOC32	.bss
    1076:	2006           	move.l d6,d0
    1078:	2247           	movea.l d7,a1
    107a:	4eae ff0a      	jsr -246(a6)
    107e:	5383           	subq.l #1,d3
    1080:	2c04           	move.l d4,d6
    1082:	4a83           	tst.l d3
    1084:	6686           	bne.s 100c __aio_writef+0x10
    1086:	302d fff4      	move.w -12(a5),d0
    108a:	2279 0000 000a 	movea.l a ___mulsi4+0x4,a1
			108c: RELOC32	.bss
    1090:	48c0           	ext.l d0
    1092:	322d ffea      	move.w -22(a5),d1
    1096:	48c1           	ext.l d1
    1098:	4eae ff10      	jsr -240(a6)
    109c:	4a6d ffee      	tst.w -18(a5)
    10a0:	6d12           	blt.s 10b4 __aio_writebool+0x4
    10a2:	102d ffed      	move.b -19(a5),d0
    10a6:	4880           	ext.w d0
    10a8:	48c0           	ext.l d0
    10aa:	2279 0000 000a 	movea.l a ___mulsi4+0x4,a1
			10ac: RELOC32	.bss

000010b0 __aio_writebool:
    10b0:	4eae feaa      	jsr -342(a6)
    10b4:	4ced 5cfc ffc0 	movem.l -64(a5),d2-d7/a2-a4/a6
    10ba:	4e5d           	unlk a5
    10bc:	4e75           	rts
    10be:	49f9 0000 0a36 	lea a36 ___floatsisf,a4
			10c0: RELOC32	.text
    10c4:	2f03           	move.l d3,-(sp)
    10c6:	4e94           	jsr (a4)
    10c8:	588f           	addq.l #4,sp
    10ca:	2c00           	move.l d0,d6
    10cc:	48c2           	ext.l d2
    10ce:	6000 fd74      	bra.w e44 __aio_writeu4+0x78
    10d2:	4eb9 0000 0aba 	jsr aba ___handle_break
			10d4: RELOC32	.text
    10d8:	7001           	moveq #1,d0
    10da:	b0b9 0000 01a0 	cmp.l 1a0 ___pow_s1+0x2,d0
			10dc: RELOC32	.bss
    10e0:	6500 fcb4      	bcs.w d96 ____breakHandler+0x6
    10e4:	6020           	bra.s 1106 __aio_writebool+0x56
    10e6:	2c79 0000 0004 	movea.l 4 _start+0x4,a6
			10e8: RELOC32	.bss
    10ec:	302d fff2      	move.w -14(a5),d0
    10f0:	2279 0000 000a 	movea.l a ___mulsi4+0x4,a1
			10f2: RELOC32	.bss
    10f6:	48c0           	ext.l d0
    10f8:	322d fff0      	move.w -16(a5),d1
    10fc:	48c1           	ext.l d1
    10fe:	48c2           	ext.l d2
    1100:	4eae ff4c      	jsr -180(a6)
    1104:	6096           	bra.s 109c __aio_writef+0xa0
    1106:	42a7           	clr.l -(sp)
    1108:	4878 140f      	pea 140f __s2toa_+0x3
    110c:	4878 ffff      	pea ffffffff __awindow_init+0xffffc149
    1110:	4878 ffff      	pea ffffffff __awindow_init+0xffffc149
    1114:	42a7           	clr.l -(sp)
    1116:	4878 ffff      	pea ffffffff __awindow_init+0xffffc149
    111a:	4878 ffff      	pea ffffffff __awindow_init+0xffffc149
    111e:	42a7           	clr.l -(sp)
    1120:	487a f06a      	pea 18c __debug_puts1(pc)
    1124:	4878 0001      	pea 1 _start+0x1
    1128:	4eba f06e      	jsr 198 _WINDOW(pc)
    112c:	2279 0000 000a 	movea.l a ___mulsi4+0x4,a1
			112e: RELOC32	.bss
    1132:	4fef 0028      	lea 40(sp),sp
    1136:	2009           	move.l a1,d0
    1138:	6600 fc68      	bne.w da2 __amath_init+0x8
    113c:	4878 007a      	pea 7a __atimer_process_signals+0x2
    1140:	4eb9 0000 011e 	jsr 11e _ERROR
			1142: RELOC32	.text
    1146:	2279 0000 000a 	movea.l a ___mulsi4+0x4,a1
			1148: RELOC32	.bss
    114c:	588f           	addq.l #4,sp
    114e:	6000 fc52      	bra.w da2 __amath_init+0x8

00001152 _deadKeyConvert:
    1152:	4e55 0000      	link.w a5,#0
    1156:	2f0e           	move.l a6,-(sp)
    1158:	2f0a           	move.l a2,-(sp)
    115a:	206d 0008      	movea.l 8(a5),a0
    115e:	0ca8 0000 0400 	cmpi.l #1024,20(a0)
    1164:	0014 
    1166:	6640           	bne.s 11a8 __aio_writes+0x40

00001168 __aio_writes:
    1168:	43f9 0000 0058 	lea 58 __aqb_read2+0x18,a1
			116a: RELOC32	.bss
    116e:	12fc 0001      	move.b #1,(a1)+
    1172:	3368 0018 0001 	move.w 24(a0),1(a1)
    1178:	3368 001a 0003 	move.w 26(a0),3(a1)
    117e:	2068 001c      	movea.l 28(a0),a0
    1182:	2350 0005      	move.l (a0),5(a1)
    1186:	2c79 0000 0000 	movea.l 0 _start,a6
			1188: RELOC32	.data
    118c:	41f9 0000 0054 	lea 54 __aqb_read2+0x14,a0
			118e: RELOC32	.bss
    1192:	226d 000c      	movea.l 12(a5),a1
    1196:	95ca           	suba.l a2,a2
    1198:	222d 0010      	move.l 16(a5),d1
    119c:	4eae ffd0      	jsr -48(a6)
    11a0:	245f           	movea.l (sp)+,a2
    11a2:	2c5f           	movea.l (sp)+,a6
    11a4:	4e5d           	unlk a5
    11a6:	4e75           	rts
    11a8:	70fe           	moveq #-2,d0
    11aa:	245f           	movea.l (sp)+,a2
    11ac:	2c5f           	movea.l (sp)+,a6
    11ae:	4e5d           	unlk a5
    11b0:	4e75           	rts
    11b2:	4e55 fff4      	link.w a5,#-12
    11b6:	48e7 3f3a      	movem.l d2-d7/a2-a4/a6,-(sp)
    11ba:	342d 000a      	move.w 10(a5),d2
    11be:	4a79 0000 001e 	tst.w 1e __atimer_shutdown+0x2
			11c0: RELOC32	.bss
    11c4:	6600 0400      	bne.w 15c6 __s4toa_+0x98
    11c8:	2c79 0000 0000 	movea.l 0 _start,a6
			11ca: RELOC32	.bss
    11ce:	4a42           	tst.w d2
    11d0:	6700 03be      	beq.w 1590 __s4toa_+0x62
    11d4:	2039 0000 0184 	move.l 184 ___pow_u2+0x12,d0
			11d6: RELOC32	.bss
    11da:	80b9 0000 0000 	or.l 0 _start,d0
			11dc: RELOC32	.bss
    11e0:	4eae fec2      	jsr -318(a6)
    11e4:	2000           	move.l d0,d0
    11e6:	2e00           	move.l d0,d7
    11e8:	c0b9 0000 0000 	and.l 0 _start,d0
			11ea: RELOC32	.bss
    11ee:	6600 03c0      	bne.w 15b0 __s4toa_+0x82
    11f2:	2a3c 0000 0074 	move.l #116,d5
			11f4: RELOC32	.bss
    11f8:	7c01           	moveq #1,d6
    11fa:	78ff           	moveq #-1,d4
    11fc:	2045           	movea.l d5,a0
    11fe:	2850           	movea.l (a0),a4
    1200:	d886           	add.l d6,d4
    1202:	200c           	move.l a4,d0
    1204:	6700 008a      	beq.w 1290 __aio_writes+0x128
    1208:	206c 0056      	movea.l 86(a4),a0
    120c:	7000           	moveq #0,d0
    120e:	1028 000f      	move.b 15(a0),d0
    1212:	0107           	btst d0,d7
    1214:	677a           	beq.s 1290 __aio_writes+0x128
    1216:	2c79 0000 0000 	movea.l 0 _start,a6
			1218: RELOC32	.bss
    121c:	4eae fe8c      	jsr -372(a6)
    1220:	2640           	movea.l d0,a3
    1222:	4a80           	tst.l d0
    1224:	676a           	beq.s 1290 __aio_writes+0x128
    1226:	2045           	movea.l d5,a0
    1228:	2468 000c      	movea.l 12(a0),a2
    122c:	242b 0014      	move.l 20(a3),d2
    1230:	200a           	move.l a2,d0
    1232:	6774           	beq.s 12a8 __astr_ftoa
    1234:	2f0b           	move.l a3,-(sp)
    1236:	2f0c           	move.l a4,-(sp)
    1238:	2f04           	move.l d4,-(sp)
    123a:	206a 0004      	movea.l 4(a2),a0
    123e:	4e90           	jsr (a0)
    1240:	4fef 000c      	lea 12(sp),sp
    1244:	4a40           	tst.w d0
    1246:	662e           	bne.s 1276 __aio_writes+0x10e
    1248:	2452           	movea.l (a2),a2
    124a:	200a           	move.l a2,d0
    124c:	66e6           	bne.s 1234 __aio_writes+0xcc
    124e:	7010           	moveq #16,d0
    1250:	b082           	cmp.l d2,d0
    1252:	6700 0148      	beq.w 139c __aio_writecomma+0x4e
    1256:	6400 00a6      	bcc.w 12fe __s1toa_+0x16
    125a:	0c82 0000 0400 	cmpi.l #1024,d2
    1260:	6700 0170      	beq.w 13d2 __aio_writecomma+0x84
    1264:	0c82 0004 0000 	cmpi.l #262144,d2
    126a:	6700 0140      	beq.w 13ac __aio_writecomma+0x5e
    126e:	0c82 0000 0200 	cmpi.l #512,d2
    1274:	675a           	beq.s 12d0 __astr_strchr+0xc
    1276:	224b           	movea.l a3,a1
    1278:	2c79 0000 0000 	movea.l 0 _start,a6
			127a: RELOC32	.bss
    127e:	4eae fe86      	jsr -378(a6)
    1282:	206c 0056      	movea.l 86(a4),a0
    1286:	4eae fe8c      	jsr -372(a6)
    128a:	2640           	movea.l d0,a3
    128c:	4a80           	tst.l d0
    128e:	6696           	bne.s 1226 __aio_writes+0xbe
    1290:	5286           	addq.l #1,d6
    1292:	7010           	moveq #16,d0
    1294:	da80           	add.l d0,d5
    1296:	7011           	moveq #17,d0
    1298:	b086           	cmp.l d6,d0
    129a:	6600 ff5e      	bne.w 11fa __aio_writes+0x92
    129e:	4ced 5cfc ffcc 	movem.l -52(a5),d2-d7/a2-a4/a6
    12a4:	4e5d           	unlk a5
    12a6:	4e75           	rts

000012a8 __astr_ftoa:
    12a8:	7010           	moveq #16,d0
    12aa:	b082           	cmp.l d2,d0
    12ac:	6700 00ee      	beq.w 139c __aio_writecomma+0x4e
    12b0:	6400 02a8      	bcc.w 155a __s4toa_+0x2c
    12b4:	0c82 0000 0400 	cmpi.l #1024,d2
    12ba:	6700 011e      	beq.w 13da __aio_writecomma+0x8c
    12be:	0c82 0004 0000 	cmpi.l #262144,d2

000012c4 __astr_strchr:
    12c4:	6700 00e6      	beq.w 13ac __aio_writecomma+0x5e
    12c8:	0c82 0000 0200 	cmpi.l #512,d2
    12ce:	66a6           	bne.s 1276 __aio_writes+0x10e
    12d0:	2245           	movea.l d5,a1
    12d2:	2069 0004      	movea.l 4(a1),a0
    12d6:	2008           	move.l a0,d0
    12d8:	679c           	beq.s 1276 __aio_writes+0x10e
    12da:	2f06           	move.l d6,-(sp)
    12dc:	4e90           	jsr (a0)
    12de:	588f           	addq.l #4,sp
    12e0:	224b           	movea.l a3,a1
    12e2:	2c79 0000 0000 	movea.l 0 _start,a6
			12e4: RELOC32	.bss

000012e8 __s1toa_:
    12e8:	4eae fe86      	jsr -378(a6)
    12ec:	206c 0056      	movea.l 86(a4),a0
    12f0:	4eae fe8c      	jsr -372(a6)
    12f4:	2640           	movea.l d0,a3
    12f6:	4a80           	tst.l d0
    12f8:	6600 ff2c      	bne.w 1226 __aio_writes+0xbe
    12fc:	6092           	bra.s 1290 __aio_writes+0x128
    12fe:	7004           	moveq #4,d0
    1300:	b082           	cmp.l d2,d0
    1302:	6764           	beq.s 1368 __aio_writecomma+0x1a
    1304:	5182           	subq.l #8,d2
    1306:	6600 ff6e      	bne.w 1276 __aio_writes+0x10e
    130a:	302b 0018      	move.w 24(a3),d0
    130e:	0c40 0068      	cmpi.w #104,d0
    1312:	6700 01e0      	beq.w 14f4 __aio_line_input+0x6
    1316:	0c40 00e8      	cmpi.w #232,d0
    131a:	661e           	bne.s 133a __s1toa_+0x52
    131c:	33fc 0001 0000 	move.w #1,1a4 ___pow_s1+0x6
    1322:	01a4 
			1320: RELOC32	.bss
    1324:	4279 0000 01a8 	clr.w 1a8 ___pow_s1+0xa
			1326: RELOC32	.bss
    132a:	33eb 0020 0000 	move.w 32(a3),1b8 ___pow_s1+0x1a
    1330:	01b8 
			132e: RELOC32	.bss
    1332:	33eb 0022 0000 	move.w 34(a3),1ba _RESUME_NEXT
    1338:	01ba 
			1336: RELOC32	.bss
    133a:	2079 0000 0198 	movea.l 198 _WINDOW,a0
			133c: RELOC32	.bss
    1340:	2008           	move.l a0,d0
    1342:	6700 ff32      	beq.w 1276 __aio_writes+0x10e
    1346:	4e90           	jsr (a0)
    1348:	224b           	movea.l a3,a1
    134a:	2c79           	.short 0x2c79
	...
			134c: RELOC32	.bss

0000134e __aio_writecomma:
    134e:	0000 4eae      	ori.b #-82,d0
    1352:	fe86           	.short 0xfe86
    1354:	206c 0056      	movea.l 86(a4),a0
    1358:	4eae fe8c      	jsr -372(a6)
    135c:	2640           	movea.l d0,a3
    135e:	4a80           	tst.l d0
    1360:	6600 fec4      	bne.w 1226 __aio_writes+0xbe
    1364:	6000 ff2a      	bra.w 1290 __aio_writes+0x128
    1368:	204c           	movea.l a4,a0
    136a:	2c79 0000 0000 	movea.l 0 _start,a6
			136c: RELOC32	.bss
    1370:	4eae fe9e      	jsr -354(a6)
    1374:	7001           	moveq #1,d0
    1376:	204c           	movea.l a4,a0
    1378:	4eae fe92      	jsr -366(a6)
    137c:	224b           	movea.l a3,a1
    137e:	2c79 0000 0000 	movea.l 0 _start,a6
			1380: RELOC32	.bss
    1384:	4eae fe86      	jsr -378(a6)
    1388:	206c 0056      	movea.l 86(a4),a0
    138c:	4eae fe8c      	jsr -372(a6)
    1390:	2640           	movea.l d0,a3
    1392:	4a80           	tst.l d0
    1394:	6600 fe90      	bne.w 1226 __aio_writes+0xbe
    1398:	6000 fef6      	bra.w 1290 __aio_writes+0x128
    139c:	2079 0000 019c 	movea.l 19c _WINDOW+0x4,a0
			139e: RELOC32	.bss
    13a2:	2008           	move.l a0,d0
    13a4:	6700 fed0      	beq.w 1276 __aio_writes+0x10e
    13a8:	4e90           	jsr (a0)
    13aa:	609c           	bra.s 1348 __s1toa_+0x60
    13ac:	33c6 0000 0050 	move.w d6,50 __aqb_read2+0x10
			13ae: RELOC32	.data
    13b2:	224b           	movea.l a3,a1
    13b4:	2c79 0000 0000 	movea.l 0 _start,a6
			13b6: RELOC32	.bss
    13ba:	4eae fe86      	jsr -378(a6)
    13be:	206c 0056      	movea.l 86(a4),a0
    13c2:	4eae fe8c      	jsr -372(a6)
    13c6:	2640           	movea.l d0,a3
    13c8:	4a80           	tst.l d0
    13ca:	6600 fe5a      	bne.w 1226 __aio_writes+0xbe
    13ce:	6000 fec0      	bra.w 1290 __aio_writes+0x128
    13d2:	b4ab 0014      	cmp.l 20(a3),d2
    13d6:	6600 fe9e      	bne.w 1276 __aio_writes+0x10e
    13da:	43f9 0000 0058 	lea 58 __aqb_read2+0x18,a1
			13dc: RELOC32	.bss
    13e0:	12fc 0001      	move.b #1,(a1)+
    13e4:	336b 0018 0001 	move.w 24(a3),1(a1)
    13ea:	336b 001a 0003 	move.w 26(a3),3(a1)
    13f0:	206b 001c      	movea.l 28(a3),a0
    13f4:	2350 0005      	move.l (a0),5(a1)
    13f8:	2c79 0000 0000 	movea.l 0 _start,a6
			13fa: RELOC32	.data
    13fe:	41f9 0000 0054 	lea 54 __aqb_read2+0x14,a0
			1400: RELOC32	.bss
    1404:	43ed fff4      	lea -12(a5),a1
    1408:	95ca           	suba.l a2,a2
    140a:	720b           	moveq #11,d1

0000140c __s2toa_:
    140c:	4eae ffd0      	jsr -48(a6)
    1410:	7201           	moveq #1,d1
    1412:	b280           	cmp.l d0,d1
    1414:	6700 0088      	beq.w 149e ___brt_init+0x76
    1418:	6e00 fe5c      	bgt.w 1276 __aio_writes+0x10e
    141c:	7203           	moveq #3,d1
    141e:	b280           	cmp.l d0,d1
    1420:	6d00 fe54      	blt.w 1276 __aio_writes+0x10e
    1424:	102d fff5      	move.b -11(a5),d0

00001428 ___brt_init:
    1428:	0c00 0030      	cmpi.b #48,d0
    142c:	6500 fe48      	bcs.w 1276 __aio_writes+0x10e
    1430:	0c00 0039      	cmpi.b #57,d0
    1434:	6300 0152      	bls.w 1588 __s4toa_+0x5a
    1438:	1200           	move.b d0,d1
    143a:	0601 00bf      	addi.b #-65,d1
    143e:	0c01 0003      	cmpi.b #3,d1
    1442:	6200 fe32      	bhi.w 1276 __aio_writes+0x10e
    1446:	0600 00db      	addi.b #-37,d0
    144a:	3439 0000 01c4 	move.w 1c4 _TIMER_,d2
			144c: RELOC32	.bss
    1450:	0c42 0003      	cmpi.w #3,d2
    1454:	6200 fe20      	bhi.w 1276 __aio_writes+0x10e
    1458:	7200           	moveq #0,d1
    145a:	41f9 0000 01bc 	lea 1bc __aio_puttab,a0
			145c: RELOC32	.bss
    1460:	3239 0000 01c2 	move.w 1c2 __aio_puttab+0x6,d1
			1462: RELOC32	.bss
    1466:	1180 1800      	move.b d0,(0,a0,d1.l)
    146a:	5281           	addq.l #1,d1
    146c:	0241 0003      	andi.w #3,d1
    1470:	33c1 0000 01c2 	move.w d1,1c2 __aio_puttab+0x6
			1472: RELOC32	.bss
    1476:	5242           	addq.w #1,d2
    1478:	33c2 0000 01c4 	move.w d2,1c4 _TIMER_
			147a: RELOC32	.bss
    147e:	224b           	movea.l a3,a1
    1480:	2c79 0000 0000 	movea.l 0 _start,a6
			1482: RELOC32	.bss
    1486:	4eae fe86      	jsr -378(a6)
    148a:	206c 0056      	movea.l 86(a4),a0
    148e:	4eae fe8c      	jsr -372(a6)
    1492:	2640           	movea.l d0,a3
    1494:	4a80           	tst.l d0
    1496:	6600 fd8e      	bne.w 1226 __aio_writes+0xbe
    149a:	6000 fdf4      	bra.w 1290 __aio_writes+0x128
    149e:	3239 0000 01c4 	move.w 1c4 _TIMER_,d1
			14a0: RELOC32	.bss
    14a4:	0c41 0003      	cmpi.w #3,d1
    14a8:	6200 fdcc      	bhi.w 1276 __aio_writes+0x10e
    14ac:	7000           	moveq #0,d0
    14ae:	41f9 0000 01bc 	lea 1bc __aio_puttab,a0
			14b0: RELOC32	.bss
    14b4:	3039 0000 01c2 	move.w 1c2 __aio_puttab+0x6,d0
			14b6: RELOC32	.bss
    14ba:	11ad fff4 0800 	move.b -12(a5),(0,a0,d0.l)
    14c0:	5280           	addq.l #1,d0
    14c2:	0240 0003      	andi.w #3,d0
    14c6:	33c0 0000 01c2 	move.w d0,1c2 __aio_puttab+0x6
			14c8: RELOC32	.bss
    14cc:	5241           	addq.w #1,d1
    14ce:	33c1 0000 01c4 	move.w d1,1c4 _TIMER_
			14d0: RELOC32	.bss
    14d4:	224b           	movea.l a3,a1
    14d6:	2c79 0000 0000 	movea.l 0 _start,a6
			14d8: RELOC32	.bss
    14dc:	4eae fe86      	jsr -378(a6)
    14e0:	206c 0056      	movea.l 86(a4),a0
    14e4:	4eae fe8c      	jsr -372(a6)
    14e8:	2640           	movea.l d0,a3
    14ea:	4a80           	tst.l d0
    14ec:	6600           	.short 0x6600

000014ee __aio_line_input:
    14ee:	fd38           	.short 0xfd38
    14f0:	6000 fd9e      	bra.w 1290 __aio_writes+0x128
    14f4:	33fc 0001 0000 	move.w #1,1a8 ___pow_s1+0xa
    14fa:	01a8 
			14f8: RELOC32	.bss
    14fc:	33fc 0001 0000 	move.w #1,1a4 ___pow_s1+0x6
    1502:	01a4 
			1500: RELOC32	.bss
    1504:	45f9 0000 01ac 	lea 1ac ___pow_s1+0xe,a2
			1506: RELOC32	.bss
    150a:	2c79 0000 0000 	movea.l 0 _start,a6
			150c: RELOC32	.bss
    1510:	2012           	move.l (a2),d0
    1512:	222a 0004      	move.l 4(a2),d1
    1516:	242b 0024      	move.l 36(a3),d2
    151a:	262b 0028      	move.l 40(a3),d3
    151e:	4eae ff9a      	jsr -102(a6)
    1522:	33c0 0000 01a6 	move.w d0,1a6 ___pow_s1+0x8
			1524: RELOC32	.bss
    1528:	6610           	bne.s 153a __s4toa_+0xc
    152a:	41f9           	.short 0x41f9
	...
			152c: RELOC32	.bss

0000152e __s4toa_:
    152e:	01ac 20ab      	bclr d0,8363(a4)
    1532:	0024 256b      	ori.b #107,-(a4)
    1536:	0028 0004 33eb 	ori.b #4,13291(a0)
    153c:	0020 0000      	ori.b #0,-(a0)
			153e: RELOC32	.bss
    1540:	01b4 33eb 0022 	bclr d0,([34],438)
    1546:	0000 01b6 
			1546: RELOC32	.bss
    154a:	2079 0000 0198 	movea.l 198 _WINDOW,a0
			154c: RELOC32	.bss
    1550:	2008           	move.l a0,d0
    1552:	6600 fdf2      	bne.w 1346 __s1toa_+0x5e
    1556:	6000 fd1e      	bra.w 1276 __aio_writes+0x10e
    155a:	7004           	moveq #4,d0
    155c:	b082           	cmp.l d2,d0
    155e:	6700 fe08      	beq.w 1368 __aio_writecomma+0x1a
    1562:	5182           	subq.l #8,d2
    1564:	6700 fda4      	beq.w 130a __s1toa_+0x22
    1568:	224b           	movea.l a3,a1
    156a:	2c79 0000 0000 	movea.l 0 _start,a6
			156c: RELOC32	.bss
    1570:	4eae fe86      	jsr -378(a6)
    1574:	206c 0056      	movea.l 86(a4),a0
    1578:	4eae fe8c      	jsr -372(a6)
    157c:	2640           	movea.l d0,a3
    157e:	4a80           	tst.l d0
    1580:	6600 fca4      	bne.w 1226 __aio_writes+0xbe
    1584:	6000 fd0a      	bra.w 1290 __aio_writes+0x128
    1588:	0600 0051      	addi.b #81,d0
    158c:	6000 febc      	bra.w 144a ___brt_init+0x22
    1590:	7000           	moveq #0,d0
    1592:	2239 0000 0184 	move.l 184 ___pow_u2+0x12,d1
			1594: RELOC32	.bss
    1598:	82b9 0000 0000 	or.l 0 _start,d1
			159a: RELOC32	.bss
    159e:	4eae fece      	jsr -306(a6)
    15a2:	2000           	move.l d0,d0
    15a4:	2e00           	move.l d0,d7
    15a6:	c0b9 0000 0000 	and.l 0 _start,d0
			15a8: RELOC32	.bss
    15ac:	6700 fc44      	beq.w 11f2 __aio_writes+0x8a
    15b0:	2f07           	move.l d7,-(sp)
    15b2:	4eb9 0000 0078 	jsr 78 __atimer_process_signals
			15b4: RELOC32	.text
    15b8:	588f           	addq.l #4,sp
    15ba:	2a3c 0000 0074 	move.l #116,d5
			15bc: RELOC32	.bss
    15c0:	7c01           	moveq #1,d6
    15c2:	6000 fc36      	bra.w 11fa __aio_writes+0x92
    15c6:	4eb9 0000 0aba 	jsr aba ___handle_break
			15c8: RELOC32	.text
    15cc:	6000 fbfa      	bra.w 11c8 __aio_writes+0x60

000015d0 _SLEEP:
    15d0:	4e55 0000      	link.w a5,#0
    15d4:	4878 0001      	pea 1 _start+0x1
    15d8:	4eba fbd8      	jsr 11b2 __aio_writes+0x4a(pc)
    15dc:	588f           	addq.l #4,sp
    15de:	4e5d           	unlk a5
    15e0:	4e75           	rts
    15e2:	4e55 0000      	link.w a5,#0
    15e6:	48e7 0032      	movem.l a2-a3/a6,-(sp)
    15ea:	2c79 0000 0008 	movea.l 8 ___mulsi4+0x2,a6
			15ec: RELOC32	.bss
    15f0:	2039 0000 001c 	move.l 1c __atimer_shutdown,d0
			15f2: RELOC32	.bss
    15f6:	222d 0008      	move.l 8(a5),d1
    15fa:	4eae ffb2      	jsr -78(a6)
    15fe:	4eae ffe2      	jsr -30(a6)
    1602:	2440           	movea.l d0,a2
    1604:	4a80           	tst.l d0
    1606:	6f42           	ble.s 164a _SLEEP+0x7a
    1608:	7019           	moveq #25,d0
    160a:	b08a           	cmp.l a2,d0
    160c:	6c20           	bge.s 162e _SLEEP+0x5e
    160e:	47fa fba2      	lea 11b2 __aio_writes+0x4a(pc),a3
    1612:	42a7           	clr.l -(sp)
    1614:	4e93           	jsr (a3)
    1616:	7219           	moveq #25,d1
    1618:	2c79 0000 0004 	movea.l 4 _start+0x4,a6
			161a: RELOC32	.bss
    161e:	4eae ff3a      	jsr -198(a6)
    1622:	45ea ffe7      	lea -25(a2),a2
    1626:	588f           	addq.l #4,sp
    1628:	7019           	moveq #25,d0
    162a:	b08a           	cmp.l a2,d0
    162c:	6de4           	blt.s 1612 _SLEEP+0x42
    162e:	220a           	move.l a2,d1
    1630:	2c79 0000 0004 	movea.l 4 _start+0x4,a6
			1632: RELOC32	.bss
    1636:	4eae ff3a      	jsr -198(a6)
    163a:	42ad 0008      	clr.l 8(a5)
    163e:	4ced 4c00 fff4 	movem.l -12(a5),a2-a3/a6
    1644:	4e5d           	unlk a5
    1646:	6000 fb6a      	bra.w 11b2 __aio_writes+0x4a
    164a:	4ced           	.short 0x4ced
    164c:	4c00           	Address 0x000000000000164e is out of bounds.
Address 0x000000000000164e is out of bounds.
Address 0x000000000000164e is out of bounds.
Address 0x000000000000164e is out of bounds.
Address 0x000000000000164e is out of bounds.
Address 0x000000000000164e is out of bounds.
.short 0x4c00

0000164e __u1toa_:
    164e:	fff4           	.short 0xfff4
    1650:	4e5d           	unlk a5
    1652:	4e75           	rts

00001654 _VWAIT:
    1654:	4e55 0000      	link.w a5,#0
    1658:	2f0e           	move.l a6,-(sp)
    165a:	2c79 0000 0004 	movea.l 4 _start+0x4,a6
			165c: RELOC32	.bss
    1660:	4eae fef2      	jsr -270(a6)
    1664:	42a7           	clr.l -(sp)
    1666:	4eba fb4a      	jsr 11b2 __aio_writes+0x4a(pc)
    166a:	2c6d fffc      	movea.l -4(a5),a6
    166e:	4e5d           	unlk a5
    1670:	4e75           	rts

00001672 _ON_WINDOW_CLOSE_CALL:
    1672:	4e55 0000      	link.w a5,#0
    1676:	202d 0008      	move.l 8(a5),d0
    167a:	3200           	move.w d0,d1
    167c:	206d 000c      	movea.l 12(a5),a0
    1680:	5341           	subq.w #1,d1
    1682:	0c41 000f      	cmpi.w #15,d1
    1686:	6212           	bhi.s 169a _ON_WINDOW_CLOSE_CALL+0x28
    1688:	48c0           	ext.l d0
    168a:	e988           	lsl.l #4,d0
    168c:	0680 0000 0068 	addi.l #104,d0
			168e: RELOC32	.bss
    1692:	2240           	movea.l d0,a1
    1694:	2288           	move.l a0,(a1)
    1696:	4e5d           	unlk a5
    1698:	4e75           	rts
    169a:	706b           	moveq #107,d0
    169c:	2b40 0008      	move.l d0,8(a5)
    16a0:	4e5d           	unlk a5
    16a2:	4ef9 0000 011e 	jmp 11e _ERROR
			16a4: RELOC32	.text

000016a8 _WINDOW_:
    16a8:	4e55 0000      	link.w a5,#0
    16ac:	222d 0008      	move.l 8(a5),d1
    16b0:	7000           	moveq #0,d0
    16b2:	0c41 000e      	cmpi.w #14,d1
    16b6:	6200 003e      	bhi.w 16f6 _WINDOW_+0x4e
    16ba:	3001           	move.w d1,d0
    16bc:	d080           	add.l d0,d0
    16be:	303b 0806      	move.w (16c6 _WINDOW_+0x1e,pc,d0.l),d0
    16c2:	4efb 0002      	jmp (16c6 _WINDOW_+0x1e,pc,d0.w)
    16c6:	003e           	.short 0x003e
    16c8:	004a           	.short 0x004a
    16ca:	0056 0076      	ori.w #118,(a6)
    16ce:	0096 00ac 00c2 	ori.l #11272386,(a6)
    16d4:	00e0           	.short 0x00e0
    16d6:	00ea           	.short 0x00ea
    16d8:	00f4           	.short 0x00f4
    16da:	00fe           	.short 0x00fe
    16dc:	0114           	btst d0,(a4)
    16de:	012a 001e      	btst d0,30(a2)
    16e2:	0034 2079 0000 	ori.b #121,(0,a4,d0.w)
			16e6: RELOC32	.bss
    16e8:	000a           	.short 0x000a
    16ea:	2008           	move.l a0,d0
    16ec:	6700 0116      	beq.w 1804 __u2toa_+0xd4
    16f0:	7000           	moveq #0,d0
    16f2:	3028 003a      	move.w 58(a0),d0
    16f6:	4e5d           	unlk a5
    16f8:	4e75           	rts
    16fa:	2039 0000 0070 	move.l 70 _DEALLOCATE,d0
			16fc: RELOC32	.bss
    1700:	4e5d           	unlk a5
    1702:	4e75           	rts
    1704:	3039 0000 0050 	move.w 50 __aqb_read2+0x10,d0
			1706: RELOC32	.data
    170a:	48c0           	ext.l d0
    170c:	4e5d           	unlk a5
    170e:	4e75           	rts
    1710:	3039 0000 0052 	move.w 52 __aqb_read2+0x12,d0
			1712: RELOC32	.data
    1716:	48c0           	ext.l d0
    1718:	4e5d           	unlk a5
    171a:	4e75           	rts
    171c:	2079 0000 0006 	movea.l 6 ___mulsi4,a0
			171e: RELOC32	.bss
    1722:	2008           	move.l a0,d0
    1724:	6700 00de      	beq.w 1804 __u2toa_+0xd4
    1728:	0828 0002 001a 	btst #2,26(a0)
    172e:	6700           	.short 0x6700

00001730 __u2toa_:
    1730:	00e4           	.short 0x00e4
    1732:	3028 0070      	move.w 112(a0),d0
    1736:	48c0           	ext.l d0
    1738:	4e5d           	unlk a5
    173a:	4e75           	rts
    173c:	2079 0000 0006 	movea.l 6 ___mulsi4,a0
			173e: RELOC32	.bss
    1742:	2008           	move.l a0,d0
    1744:	6700 00be      	beq.w 1804 __u2toa_+0xd4
    1748:	0828 0002 001a 	btst #2,26(a0)
    174e:	6700 00ba      	beq.w 180a __u2toa_+0xda
    1752:	3028 0072      	move.w 114(a0),d0
    1756:	48c0           	ext.l d0
    1758:	4e5d           	unlk a5
    175a:	4e75           	rts
    175c:	2079 0000 000a 	movea.l a ___mulsi4+0x4,a0
			175e: RELOC32	.bss
    1762:	2008           	move.l a0,d0
    1764:	6700 009e      	beq.w 1804 __u2toa_+0xd4
    1768:	3028 0024      	move.w 36(a0),d0
    176c:	48c0           	ext.l d0
    176e:	4e5d           	unlk a5
    1770:	4e75           	rts
    1772:	2079 0000 000a 	movea.l a ___mulsi4+0x4,a0
			1774: RELOC32	.bss
    1778:	2008           	move.l a0,d0
    177a:	6700 0088      	beq.w 1804 __u2toa_+0xd4
    177e:	3028 0026      	move.w 38(a0),d0
    1782:	48c0           	ext.l d0
    1784:	4e5d           	unlk a5
    1786:	4e75           	rts
    1788:	2079 0000 000a 	movea.l a ___mulsi4+0x4,a0
			178a: RELOC32	.bss
    178e:	2008           	move.l a0,d0
    1790:	6772           	beq.s 1804 __u2toa_+0xd4
    1792:	2068 0004      	movea.l 4(a0),a0
    1796:	7200           	moveq #0,d1
    1798:	1228 0005      	move.b 5(a0),d1
    179c:	7001           	moveq #1,d0
    179e:	e3a8           	lsl.l d1,d0
    17a0:	5380           	subq.l #1,d0
    17a2:	4e5d           	unlk a5
    17a4:	4e75           	rts
    17a6:	2039 0000 0006 	move.l 6 ___mulsi4,d0
			17a8: RELOC32	.bss
    17ac:	4e5d           	unlk a5
    17ae:	4e75           	rts
    17b0:	2039 0000 000a 	move.l a ___mulsi4+0x4,d0
			17b2: RELOC32	.bss
    17b6:	4e5d           	unlk a5
    17b8:	4e75           	rts
    17ba:	2039 0000 006c 	move.l 6c __aqb_read2+0x2c,d0
			17bc: RELOC32	.bss
    17c0:	4e5d           	unlk a5
    17c2:	4e75           	rts
    17c4:	2079 0000 000a 	movea.l a ___mulsi4+0x4,a0
			17c6: RELOC32	.bss
    17ca:	2008           	move.l a0,d0
    17cc:	6736           	beq.s 1804 __u2toa_+0xd4
    17ce:	1028 0019      	move.b 25(a0),d0
    17d2:	4880           	ext.w d0
    17d4:	48c0           	ext.l d0
    17d6:	4e5d           	unlk a5
    17d8:	4e75           	rts
    17da:	2079 0000 000a 	movea.l a ___mulsi4+0x4,a0
			17dc: RELOC32	.bss
    17e0:	2008           	move.l a0,d0
    17e2:	6720           	beq.s 1804 __u2toa_+0xd4
    17e4:	1028 001a      	move.b 26(a0),d0
    17e8:	4880           	ext.w d0
    17ea:	48c0           	ext.l d0
    17ec:	4e5d           	unlk a5
    17ee:	4e75           	rts
    17f0:	2079 0000 000a 	movea.l a ___mulsi4+0x4,a0
			17f2: RELOC32	.bss
    17f6:	2008           	move.l a0,d0
    17f8:	670a           	beq.s 1804 __u2toa_+0xd4
    17fa:	7000           	moveq #0,d0
    17fc:	3028 003c      	move.w 60(a0),d0
    1800:	4e5d           	unlk a5
    1802:	4e75           	rts
    1804:	2008           	move.l a0,d0
    1806:	4e5d           	unlk a5
    1808:	4e75           	rts
    180a:	3028 000a      	move.w 10(a0),d0
    180e:	48c0           	ext.l d0
    1810:	4e5d           	unlk a5

00001812 __u4toa_:
    1812:	4e75           	rts
    1814:	3028 0008      	move.w 8(a0),d0
    1818:	48c0           	ext.l d0
    181a:	4e5d           	unlk a5
    181c:	4e75           	rts

0000181e _MOUSE_ON:
    181e:	4e55 0000      	link.w a5,#0
    1822:	2f0e           	move.l a6,-(sp)
    1824:	4a79 0000 001e 	tst.w 1e __atimer_shutdown+0x2
			1826: RELOC32	.bss
    182a:	6634           	bne.s 1860 _MOUSE_ON+0x42
    182c:	7001           	moveq #1,d0
    182e:	b0b9 0000 01a0 	cmp.l 1a0 ___pow_s1+0x2,d0
			1830: RELOC32	.bss
    1834:	643a           	bcc.s 1870 _MOUSE_ON+0x52
    1836:	4ab9 0000 000a 	tst.l a ___mulsi4+0x4
			1838: RELOC32	.bss
    183c:	6764           	beq.s 18a2 _MOUSE_ON+0x84
    183e:	2079 0000 0006 	movea.l 6 ___mulsi4,a0
			1840: RELOC32	.bss
    1844:	2008           	move.l a0,d0
    1846:	6768           	beq.s 18b0 _MOUSE_ON+0x92
    1848:	7008           	moveq #8,d0
    184a:	80a8 0052      	or.l 82(a0),d0
    184e:	2c79 0000 0000 	movea.l 0 _start,a6
			1850: RELOC32	.bss
    1854:	4eae ff6a      	jsr -150(a6)
    1858:	2c6d fffc      	movea.l -4(a5),a6
    185c:	4e5d           	unlk a5
    185e:	4e75           	rts
    1860:	4eb9 0000 0aba 	jsr aba ___handle_break
			1862: RELOC32	.text
    1866:	7001           	moveq #1,d0
    1868:	b0b9 0000 01a0 	cmp.l 1a0 ___pow_s1+0x2,d0
			186a: RELOC32	.bss
    186e:	65c6           	bcs.s 1836 _MOUSE_ON+0x18
    1870:	42a7           	clr.l -(sp)
    1872:	4878 140f      	pea 140f __s2toa_+0x3
    1876:	4878 ffff      	pea ffffffff __awindow_init+0xffffc149
    187a:	4878 ffff      	pea ffffffff __awindow_init+0xffffc149
    187e:	42a7           	clr.l -(sp)
    1880:	4878 ffff      	pea ffffffff __awindow_init+0xffffc149
    1884:	4878 ffff      	pea ffffffff __awindow_init+0xffffc149
    1888:	42a7           	clr.l -(sp)
    188a:	487a e900      	pea 18c __debug_puts1(pc)
    188e:	4878 0001      	pea 1 _start+0x1
    1892:	4eba e904      	jsr 198 _WINDOW(pc)
    1896:	4fef 0028      	lea 40(sp),sp
    189a:	4ab9 0000 000a 	tst.l a ___mulsi4+0x4
			189c: RELOC32	.bss
    18a0:	669c           	bne.s 183e _MOUSE_ON+0x20
    18a2:	4878 007a      	pea 7a __atimer_process_signals+0x2
    18a6:	4eb9 0000 011e 	jsr 11e _ERROR
			18a8: RELOC32	.text
    18ac:	588f           	addq.l #4,sp
    18ae:	608e           	bra.s 183e _MOUSE_ON+0x20
    18b0:	4878 0078      	pea 78 __atimer_process_signals
    18b4:	4eb9 0000 011e 	jsr 11e _ERROR
			18b6: RELOC32	.text
    18ba:	2c6d fffc      	movea.l -4(a5),a6
    18be:	4e5d           	unlk a5
    18c0:	4e75           	rts

000018c2 _MOUSE_OFF:
    18c2:	4e55 0000      	link.w a5,#0
    18c6:	2f0e           	move.l a6,-(sp)
    18c8:	4a79 0000 001e 	tst.w 1e __atimer_shutdown+0x2
			18ca: RELOC32	.bss
    18ce:	6634           	bne.s 1904 __ftoa_+0x14
    18d0:	7001           	moveq #1,d0
    18d2:	b0b9 0000 01a0 	cmp.l 1a0 ___pow_s1+0x2,d0
			18d4: RELOC32	.bss
    18d8:	643a           	bcc.s 1914 __ftoa_+0x24
    18da:	4ab9 0000 000a 	tst.l a ___mulsi4+0x4
			18dc: RELOC32	.bss
    18e0:	6764           	beq.s 1946 __ftoa_+0x56
    18e2:	2079 0000 0006 	movea.l 6 ___mulsi4,a0
			18e4: RELOC32	.bss
    18e8:	2008           	move.l a0,d0
    18ea:	6768           	beq.s 1954 __ftoa_+0x64
    18ec:	70f7           	moveq #-9,d0
    18ee:	c0a8           	.short 0xc0a8

000018f0 __ftoa_:
    18f0:	0052 2c79      	ori.w #11385,(a2)
    18f4:	0000 0000      	ori.b #0,d0
			18f4: RELOC32	.bss
    18f8:	4eae ff6a      	jsr -150(a6)
    18fc:	2c6d fffc      	movea.l -4(a5),a6
    1900:	4e5d           	unlk a5
    1902:	4e75           	rts
    1904:	4eb9 0000 0aba 	jsr aba ___handle_break
			1906: RELOC32	.text
    190a:	7001           	moveq #1,d0
    190c:	b0b9 0000 01a0 	cmp.l 1a0 ___pow_s1+0x2,d0
			190e: RELOC32	.bss
    1912:	65c6           	bcs.s 18da _MOUSE_OFF+0x18
    1914:	42a7           	clr.l -(sp)
    1916:	4878 140f      	pea 140f __s2toa_+0x3
    191a:	4878 ffff      	pea ffffffff __awindow_init+0xffffc149
    191e:	4878 ffff      	pea ffffffff __awindow_init+0xffffc149
    1922:	42a7           	clr.l -(sp)
    1924:	4878 ffff      	pea ffffffff __awindow_init+0xffffc149
    1928:	4878 ffff      	pea ffffffff __awindow_init+0xffffc149
    192c:	42a7           	clr.l -(sp)
    192e:	487a e85c      	pea 18c __debug_puts1(pc)
    1932:	4878 0001      	pea 1 _start+0x1
    1936:	4eba e860      	jsr 198 _WINDOW(pc)
    193a:	4fef 0028      	lea 40(sp),sp
    193e:	4ab9 0000 000a 	tst.l a ___mulsi4+0x4
			1940: RELOC32	.bss
    1944:	669c           	bne.s 18e2 _MOUSE_OFF+0x20
    1946:	4878 007a      	pea 7a __atimer_process_signals+0x2
    194a:	4eb9 0000 011e 	jsr 11e _ERROR
			194c: RELOC32	.text
    1950:	588f           	addq.l #4,sp
    1952:	608e           	bra.s 18e2 _MOUSE_OFF+0x20
    1954:	4878           	.short 0x4878

00001956 __booltoa_:
    1956:	0078 4eb9 0000 	ori.w #20153,0 _start
			195a: RELOC32	.text
    195c:	011e           	btst d0,(a6)+
    195e:	2c6d fffc      	movea.l -4(a5),a6
    1962:	4e5d           	unlk a5
    1964:	4e75           	rts

00001966 _ON_MOUSE_CALL:
    1966:	4e55 0000      	link.w a5,#0
    196a:	23ed 0008 0000 	move.l 8(a5),198 _WINDOW
    1970:	0198 
			196e: RELOC32	.bss
    1972:	4e5d           	unlk a5

00001974 __str2i4_:
    1974:	4e75           	rts

00001976 _MOUSE_:
    1976:	4e55 0000      	link.w a5,#0
    197a:	48e7 3020      	movem.l d2-d3/a2,-(sp)
    197e:	242d 0008      	move.l 8(a5),d2
    1982:	3602           	move.w d2,d3
    1984:	4a79 0000 001e 	tst.w 1e __atimer_shutdown+0x2
			1986: RELOC32	.bss
    198a:	6600 0048      	bne.w 19d4 _MOUSE_+0x5e
    198e:	7001           	moveq #1,d0
    1990:	b0b9 0000 01a0 	cmp.l 1a0 ___pow_s1+0x2,d0
			1992: RELOC32	.bss
    1996:	6400 004c      	bcc.w 19e4 _MOUSE_+0x6e
    199a:	4ab9 0000 000a 	tst.l a ___mulsi4+0x4
			199c: RELOC32	.bss
    19a0:	6700 0148      	beq.w 1aea _MOUSE_+0x174
    19a4:	2479 0000 0006 	movea.l 6 ___mulsi4,a2
			19a6: RELOC32	.bss
    19aa:	200a           	move.l a2,d0
    19ac:	6700 016e      	beq.w 1b1c _MOUSE_+0x1a6
    19b0:	0c43 0006      	cmpi.w #6,d3
    19b4:	6200 0100      	bhi.w 1ab6 _MOUSE_+0x140
    19b8:	7000           	moveq #0,d0
    19ba:	3002           	move.w d2,d0
    19bc:	d080           	add.l d0,d0
    19be:	303b 0806      	move.w (19c6 _MOUSE_+0x50,pc,d0.l),d0
    19c2:	4efb 0002      	jmp (19c6 _MOUSE_+0x50,pc,d0.w)
    19c6:	0064 0094      	ori.w #148,-(a4)
    19ca:	00aa 00c0 00e0 	ori.l #12583136,208(a2)
    19d0:	00d0 
    19d2:	0054 4eb9      	ori.w #20153,(a4)
    19d6:	0000 0aba      	ori.b #-70,d0
			19d6: RELOC32	.text
    19da:	7001           	moveq #1,d0
    19dc:	b0b9 0000 01a0 	cmp.l 1a0 ___pow_s1+0x2,d0
			19de: RELOC32	.bss
    19e2:	65b6           	bcs.s 199a _MOUSE_+0x24
    19e4:	42a7           	clr.l -(sp)
    19e6:	4878 140f      	pea 140f __s2toa_+0x3
    19ea:	4878 ffff      	pea ffffffff __awindow_init+0xffffc149
    19ee:	4878 ffff      	pea ffffffff __awindow_init+0xffffc149
    19f2:	42a7           	clr.l -(sp)
    19f4:	4878 ffff      	pea ffffffff __awindow_init+0xffffc149
    19f8:	4878 ffff      	pea ffffffff __awindow_init+0xffffc149
    19fc:	42a7           	clr.l -(sp)
    19fe:	487a e78c      	pea 18c __debug_puts1(pc)
    1a02:	4878 0001      	pea 1 _start+0x1
    1a06:	4eba e790      	jsr 198 _WINDOW(pc)
    1a0a:	4fef 0028      	lea 40(sp),sp
    1a0e:	4ab9 0000 000a 	tst.l a ___mulsi4+0x4
			1a10: RELOC32	.bss
    1a14:	668e           	bne.s 19a4 _MOUSE_+0x2e
    1a16:	6000 00d2      	bra.w 1aea _MOUSE_+0x174
    1a1a:	3039 0000 01ba 	move.w 1ba _RESUME_NEXT,d0
			1a1c: RELOC32	.bss
    1a20:	4ced 040c fff4 	movem.l -12(a5),d2-d3/a2
    1a26:	4e5d           	unlk a5
    1a28:	4e75           	rts
    1a2a:	4a79 0000 01a4 	tst.w 1a4 ___pow_s1+0x6
			1a2c: RELOC32	.bss
    1a30:	6700 00de      	beq.w 1b10 _MOUSE_+0x19a
    1a34:	4a79 0000 01a8 	tst.w 1a8 ___pow_s1+0xa
			1a36: RELOC32	.bss
    1a3a:	6700 00be      	beq.w 1afa _MOUSE_+0x184
    1a3e:	4a79 0000 01a6 	tst.w 1a6 ___pow_s1+0x8
			1a40: RELOC32	.bss
    1a44:	56c0           	sne d0
    1a46:	4880           	ext.w d0
    1a48:	5340           	subq.w #1,d0
    1a4a:	4279 0000 01a4 	clr.w 1a4 ___pow_s1+0x6
			1a4c: RELOC32	.bss
    1a50:	4ced 040c fff4 	movem.l -12(a5),d2-d3/a2
    1a56:	4e5d           	unlk a5
    1a58:	4e75           	rts
    1a5a:	082a 0002 001a 	btst #2,26(a2)
    1a60:	677a           	beq.s 1adc _MOUSE_+0x166
    1a62:	302a 006c      	move.w 108(a2),d0
    1a66:	4ced 040c fff4 	movem.l -12(a5),d2-d3/a2
    1a6c:	4e5d           	unlk a5
    1a6e:	4e75           	rts
    1a70:	082a 0002 001a 	btst #2,26(a2)
    1a76:	6756           	beq.s 1ace _MOUSE_+0x158
    1a78:	302a 006e      	move.w 110(a2),d0
    1a7c:	4ced 040c fff4 	movem.l -12(a5),d2-d3/a2
    1a82:	4e5d           	unlk a5
    1a84:	4e75           	rts
    1a86:	3039 0000 01b4 	move.w 1b4 ___pow_s1+0x16,d0
			1a88: RELOC32	.bss
    1a8c:	4ced 040c fff4 	movem.l -12(a5),d2-d3/a2
    1a92:	4e5d           	unlk a5
    1a94:	4e75           	rts
    1a96:	3039 0000 01b8 	move.w 1b8 ___pow_s1+0x1a,d0
			1a98: RELOC32	.bss
    1a9c:	4ced 040c fff4 	movem.l -12(a5),d2-d3/a2
    1aa2:	4e5d           	unlk a5
    1aa4:	4e75           	rts
    1aa6:	3039 0000 01b6 	move.w 1b6 ___pow_s1+0x18,d0
			1aa8: RELOC32	.bss
    1aac:	4ced 040c fff4 	movem.l -12(a5),d2-d3/a2
    1ab2:	4e5d           	unlk a5
    1ab4:	4e75           	rts
    1ab6:	4878 0078      	pea 78 __atimer_process_signals
    1aba:	4eb9 0000 011e 	jsr 11e _ERROR
			1abc: RELOC32	.text
    1ac0:	4240           	clr.w d0
    1ac2:	588f           	addq.l #4,sp
    1ac4:	4ced 040c fff4 	movem.l -12(a5),d2-d3/a2
    1aca:	4e5d           	unlk a5
    1acc:	4e75           	rts
    1ace:	302a 000c      	move.w 12(a2),d0
    1ad2:	4ced 040c fff4 	movem.l -12(a5),d2-d3/a2
    1ad8:	4e5d           	unlk a5
    1ada:	4e75           	rts
    1adc:	302a 000e      	move.w 14(a2),d0
    1ae0:	4ced 040c fff4 	movem.l -12(a5),d2-d3/a2
    1ae6:	4e5d           	unlk a5
    1ae8:	4e75           	rts
    1aea:	4878 007a      	pea 7a __atimer_process_signals+0x2
    1aee:	4eb9 0000 011e 	jsr 11e _ERROR
			1af0: RELOC32	.text
    1af4:	588f           	addq.l #4,sp
    1af6:	6000 feac      	bra.w 19a4 _MOUSE_+0x2e
    1afa:	4a79 0000 01a6 	tst.w 1a6 ___pow_s1+0x8
			1afc: RELOC32	.bss
    1b00:	57c0           	seq d0
    1b02:	4880           	ext.w d0
    1b04:	5440           	addq.w #2,d0
    1b06:	4279 0000 01a4 	clr.w 1a4 ___pow_s1+0x6
			1b08: RELOC32	.bss
    1b0c:	6000 ff42      	bra.w 1a50 _MOUSE_+0xda
    1b10:	4240           	clr.w d0
    1b12:	4ced 040c fff4 	movem.l -12(a5),d2-d3/a2
    1b18:	4e5d           	unlk a5
    1b1a:	4e75           	rts
    1b1c:	4878 0078      	pea 78 __atimer_process_signals
    1b20:	4eb9 0000 011e 	jsr 11e _ERROR
			1b22: RELOC32	.text
    1b26:	300a           	move.w a2,d0
    1b28:	4ced 040c fff4 	movem.l -12(a5),d2-d3/a2
    1b2e:	4e5d           	unlk a5
    1b30:	4e75           	rts

00001b32 _MOUSE_MOTION_ON:
    1b32:	4e55 0000      	link.w a5,#0
    1b36:	2f0e           	move.l a6,-(sp)
    1b38:	4a79 0000 001e 	tst.w 1e __atimer_shutdown+0x2
			1b3a: RELOC32	.bss
    1b3e:	663a           	bne.s 1b7a _VALINT_+0x1c
    1b40:	7001           	moveq #1,d0
    1b42:	b0b9 0000 01a0 	cmp.l 1a0 ___pow_s1+0x2,d0
			1b44: RELOC32	.bss
    1b48:	6440           	bcc.s 1b8a _VALINT_+0x2c
    1b4a:	4ab9 0000 000a 	tst.l a ___mulsi4+0x4
			1b4c: RELOC32	.bss
    1b50:	676a           	beq.s 1bbc __aio_console_input+0x2a
    1b52:	2079 0000 0006 	movea.l 6 ___mulsi4,a0
			1b54: RELOC32	.bss
    1b58:	2008           	move.l a0,d0
    1b5a:	676e           	beq.s 1bca __aio_console_input+0x38
    1b5c:	0068           	Address 0x0000000000001b5e is out of bounds.
.short 0x0068

00001b5e _VALINT_:
    1b5e:	0200 001a      	andi.b #26,d0
    1b62:	7010           	moveq #16,d0
    1b64:	80a8 0052      	or.l 82(a0),d0
    1b68:	2c79 0000 0000 	movea.l 0 _start,a6
			1b6a: RELOC32	.bss
    1b6e:	4eae ff6a      	jsr -150(a6)
    1b72:	2c6d fffc      	movea.l -4(a5),a6
    1b76:	4e5d           	unlk a5
    1b78:	4e75           	rts
    1b7a:	4eb9 0000 0aba 	jsr aba ___handle_break
			1b7c: RELOC32	.text
    1b80:	7001           	moveq #1,d0
    1b82:	b0b9 0000 01a0 	cmp.l 1a0 ___pow_s1+0x2,d0
			1b84: RELOC32	.bss
    1b88:	65c0           	bcs.s 1b4a _MOUSE_MOTION_ON+0x18
    1b8a:	42a7           	clr.l -(sp)
    1b8c:	4878 140f      	pea 140f __s2toa_+0x3
    1b90:	4878           	.short 0x4878

00001b92 __aio_console_input:
    1b92:	ffff           	.short 0xffff
    1b94:	4878 ffff      	pea ffffffff __awindow_init+0xffffc149
    1b98:	42a7           	clr.l -(sp)
    1b9a:	4878 ffff      	pea ffffffff __awindow_init+0xffffc149
    1b9e:	4878 ffff      	pea ffffffff __awindow_init+0xffffc149
    1ba2:	42a7           	clr.l -(sp)
    1ba4:	487a e5e6      	pea 18c __debug_puts1(pc)
    1ba8:	4878 0001      	pea 1 _start+0x1
    1bac:	4eba e5ea      	jsr 198 _WINDOW(pc)
    1bb0:	4fef 0028      	lea 40(sp),sp
    1bb4:	4ab9 0000 000a 	tst.l a ___mulsi4+0x4
			1bb6: RELOC32	.bss
    1bba:	6696           	bne.s 1b52 _MOUSE_MOTION_ON+0x20
    1bbc:	4878 007a      	pea 7a __atimer_process_signals+0x2
    1bc0:	4eb9 0000 011e 	jsr 11e _ERROR
			1bc2: RELOC32	.text
    1bc6:	588f           	addq.l #4,sp
    1bc8:	6088           	bra.s 1b52 _MOUSE_MOTION_ON+0x20
    1bca:	4878 0078      	pea 78 __atimer_process_signals
    1bce:	4eb9 0000 011e 	jsr 11e _ERROR
			1bd0: RELOC32	.text
    1bd4:	2c6d fffc      	movea.l -4(a5),a6
    1bd8:	4e5d           	unlk a5
    1bda:	4e75           	rts

00001bdc _MOUSE_MOTION_OFF:
    1bdc:	4e55 0000      	link.w a5,#0
    1be0:	2f0e           	move.l a6,-(sp)
    1be2:	4a79 0000 001e 	tst.w 1e __atimer_shutdown+0x2
			1be4: RELOC32	.bss
    1be8:	663a           	bne.s 1c24 _MOUSE_MOTION_OFF+0x48
    1bea:	7001           	moveq #1,d0
    1bec:	b0b9 0000 01a0 	cmp.l 1a0 ___pow_s1+0x2,d0
			1bee: RELOC32	.bss
    1bf2:	6440           	bcc.s 1c34 _MOUSE_MOTION_OFF+0x58
    1bf4:	4ab9 0000 000a 	tst.l a ___mulsi4+0x4
			1bf6: RELOC32	.bss
    1bfa:	676a           	beq.s 1c66 _MOUSE_MOTION_OFF+0x8a
    1bfc:	2079 0000 0006 	movea.l 6 ___mulsi4,a0
			1bfe: RELOC32	.bss
    1c02:	2008           	move.l a0,d0
    1c04:	676e           	beq.s 1c74 _MOUSE_MOTION_OFF+0x98
    1c06:	0268 fdff 001a 	andi.w #-513,26(a0)
    1c0c:	70ef           	moveq #-17,d0
    1c0e:	c0a8 0052      	and.l 82(a0),d0
    1c12:	2c79 0000 0000 	movea.l 0 _start,a6
			1c14: RELOC32	.bss
    1c18:	4eae ff6a      	jsr -150(a6)
    1c1c:	2c6d fffc      	movea.l -4(a5),a6
    1c20:	4e5d           	unlk a5
    1c22:	4e75           	rts
    1c24:	4eb9 0000 0aba 	jsr aba ___handle_break
			1c26: RELOC32	.text
    1c2a:	7001           	moveq #1,d0
    1c2c:	b0b9 0000 01a0 	cmp.l 1a0 ___pow_s1+0x2,d0
			1c2e: RELOC32	.bss
    1c32:	65c0           	bcs.s 1bf4 _MOUSE_MOTION_OFF+0x18
    1c34:	42a7           	clr.l -(sp)
    1c36:	4878 140f      	pea 140f __s2toa_+0x3
    1c3a:	4878 ffff      	pea ffffffff __awindow_init+0xffffc149
    1c3e:	4878 ffff      	pea ffffffff __awindow_init+0xffffc149
    1c42:	42a7           	clr.l -(sp)
    1c44:	4878 ffff      	pea ffffffff __awindow_init+0xffffc149
    1c48:	4878 ffff      	pea ffffffff __awindow_init+0xffffc149
    1c4c:	42a7           	clr.l -(sp)
    1c4e:	487a e53c      	pea 18c __debug_puts1(pc)
    1c52:	4878 0001      	pea 1 _start+0x1
    1c56:	4eba e540      	jsr 198 _WINDOW(pc)
    1c5a:	4fef 0028      	lea 40(sp),sp
    1c5e:	4ab9 0000 000a 	tst.l a ___mulsi4+0x4
			1c60: RELOC32	.bss
    1c64:	6696           	bne.s 1bfc _MOUSE_MOTION_OFF+0x20
    1c66:	4878 007a      	pea 7a __atimer_process_signals+0x2
    1c6a:	4eb9 0000 011e 	jsr 11e _ERROR
			1c6c: RELOC32	.text
    1c70:	588f           	addq.l #4,sp
    1c72:	6088           	bra.s 1bfc _MOUSE_MOTION_OFF+0x20
    1c74:	4878 0078      	pea 78 __atimer_process_signals
    1c78:	4eb9 0000 011e 	jsr 11e _ERROR
			1c7a: RELOC32	.text
    1c7e:	2c6d fffc      	movea.l -4(a5),a6
    1c82:	4e5d           	unlk a5

00001c84 _VALUINT_:
    1c84:	4e75           	rts

00001c86 _ON_MOUSE_MOTION_CALL:
    1c86:	4e55 0000      	link.w a5,#0
    1c8a:	23ed 0008 0000 	move.l 8(a5),19c _WINDOW+0x4
    1c90:	019c 
			1c8e: RELOC32	.bss
    1c92:	4e5d           	unlk a5
    1c94:	4e75           	rts
    1c96:	4e55 0000      	link.w a5,#0
    1c9a:	48e7 3f3a      	movem.l d2-d7/a2-a4/a6,-(sp)
    1c9e:	2079 0000 0006 	movea.l 6 ___mulsi4,a0
			1ca0: RELOC32	.bss
    1ca4:	0828 0002 001a 	btst #2,26(a0)
    1caa:	6600 00a4      	bne.w 1d50 __aio_inputs1+0x8
    1cae:	1428 0036      	move.b 54(a0),d2
    1cb2:	4882           	ext.w d2
    1cb4:	1628 0037      	move.b 55(a0),d3
    1cb8:	4883           	ext.w d3
    1cba:	3228 0008      	move.w 8(a0),d1
    1cbe:	9242           	sub.w d2,d1
    1cc0:	1028 0038      	move.b 56(a0),d0
    1cc4:	3841           	movea.w d1,a4
    1cc6:	4880           	ext.w d0
    1cc8:	3a28 000a      	move.w 10(a0),d5
    1ccc:	98c0           	suba.w d0,a4
    1cce:	9a43           	sub.w d3,d5
    1cd0:	1028 0039      	move.b 57(a0),d0
    1cd4:	4880           	ext.w d0
    1cd6:	9a40           	sub.w d0,d5
    1cd8:	2679 0000 000a 	movea.l a ___mulsi4+0x4,a3
			1cda: RELOC32	.bss
    1cde:	206b 0034      	movea.l 52(a3),a0
    1ce2:	48c5           	ext.l d5
    1ce4:	3e28 0014      	move.w 20(a0),d7
    1ce8:	7800           	moveq #0,d4
    1cea:	3807           	move.w d7,d4
    1cec:	45f9 0000 008e 	lea 8e ___divsi3,a2
			1cee: RELOC32	.text
    1cf2:	2f04           	move.l d4,-(sp)
    1cf4:	306b 0026      	movea.w 38(a3),a0
    1cf8:	2f08           	move.l a0,-(sp)
    1cfa:	4e92           	jsr (a2)
    1cfc:	3c00           	move.w d0,d6
    1cfe:	508f           	addq.l #8,sp
    1d00:	5246           	addq.w #1,d6
    1d02:	2f04           	move.l d4,-(sp)
    1d04:	2f05           	move.l d5,-(sp)
    1d06:	4e92           	jsr (a2)
    1d08:	9c40           	sub.w d0,d6
    1d0a:	4a46           	tst.w d6
    1d0c:	6f38           	ble.s 1d46 _ON_MOUSE_MOTION_CALL+0xc0
    1d0e:	48c2           	ext.l d2
    1d10:	48c3           	ext.l d3
    1d12:	3007           	move.w d7,d0
    1d14:	c1c6           	muls.w d6,d0
    1d16:	2203           	move.l d3,d1
    1d18:	3440           	movea.w d0,a2
    1d1a:	d28a           	add.l a2,d1
    1d1c:	380c           	move.w a4,d4
    1d1e:	48c4           	ext.l d4
    1d20:	224b           	movea.l a3,a1
    1d22:	2c79 0000 0004 	movea.l 4 _start+0x4,a6
			1d24: RELOC32	.bss
    1d28:	2002           	move.l d2,d0
    1d2a:	4eae fe74      	jsr -396(a6)
    1d2e:	2279 0000 000a 	movea.l a ___mulsi4+0x4,a1
			1d30: RELOC32	.bss
    1d34:	3229 0026      	move.w 38(a1),d1
    1d38:	48c1           	ext.l d1
    1d3a:	3029 0024      	move.w 36(a1),d0
    1d3e:	48c0           	ext.l d0
    1d40:	928a           	sub.l a2,d1
    1d42:	4eae ff10      	jsr -240(a6)
    1d46:	4ced           	Address 0x0000000000001d48 is out of bounds.
.short 0x4ced

00001d48 __aio_inputs1:
    1d48:	5cfc           	trapge
    1d4a:	ffd8           	.short 0xffd8
    1d4c:	4e5d           	unlk a5
    1d4e:	4e75           	rts
    1d50:	3868 0070      	movea.w 112(a0),a4
    1d54:	3a28 0072      	move.w 114(a0),d5
    1d58:	4242           	clr.w d2
    1d5a:	3602           	move.w d2,d3
    1d5c:	6000 ff7a      	bra.w 1cd8 _ON_MOUSE_MOTION_CALL+0x52
    1d60:	2000           	move.l d0,d0
    1d62:	4e55 0000      	link.w a5,#0
    1d66:	48e7 3f3a      	movem.l d2-d7/a2-a4/a6,-(sp)
    1d6a:	246d 0008      	movea.l 8(a5),a2
    1d6e:	4a79 0000 001e 	tst.w 1e __atimer_shutdown+0x2
			1d70: RELOC32	.bss
    1d74:	6600 0260      	bne.w 1fd6 __aio_inputf+0x42
    1d78:	2039 0000 01a0 	move.l 1a0 ___pow_s1+0x2,d0
			1d7a: RELOC32	.bss
    1d7e:	6700 0222      	beq.w 1fa2 __aio_inputf+0xe
    1d82:	5380           	subq.l #1,d0
    1d84:	6700 00ca      	beq.w 1e50 __aio_inputs2+0x44
    1d88:	7c01           	moveq #1,d6
    1d8a:	4241           	clr.w d1
    1d8c:	3801           	move.w d1,d4
    1d8e:	243c 0000 1c96 	move.l #7318,d2
			1d90: RELOC32	.text
    1d94:	49f9 0000 008e 	lea 8e ___divsi3,a4
			1d96: RELOC32	.text
    1d9a:	47f9 0000 0000 	lea 0 _start,a3
			1d9c: RELOC32	.text
    1da0:	1a32 4000      	move.b (0,a2,d4.w),d5
    1da4:	0c05 000d      	cmpi.b #13,d5
    1da8:	6200           	.short 0x6200

00001daa _VALLNG_:
    1daa:	0056 7600      	ori.w #30208,(a6)
    1dae:	1605           	move.b d5,d3
    1db0:	2003           	move.l d3,d0
    1db2:	d080           	add.l d0,d0
    1db4:	303b 0806      	move.w (1dbc _VALLNG_+0x12,pc,d0.l),d0
    1db8:	4efb 0002      	jmp (1dbc _VALLNG_+0x12,pc,d0.w)
    1dbc:	004a           	.short 0x004a
    1dbe:	0044 0044      	ori.w #68,d4
    1dc2:	0044 0044      	ori.w #68,d4
    1dc6:	0044 0044      	ori.w #68,d4
    1dca:	004a           	.short 0x004a
    1dcc:	004a           	.short 0x004a
    1dce:	004a           	.short 0x004a
    1dd0:	004a           	.short 0x004a
    1dd2:	0044 004a      	ori.w #74,d4
    1dd6:	004a           	.short 0x004a
    1dd8:	2279 0000 000a 	movea.l a ___mulsi4+0x4,a1
			1dda: RELOC32	.bss
    1dde:	2069 0034      	movea.l 52(a1),a0
    1de2:	7200           	moveq #0,d1
    1de4:	3228 0014      	move.w 20(a0),d1
    1de8:	3069 0026      	movea.w 38(a1),a0
    1dec:	2c79 0000 0004 	movea.l 4 _start+0x4,a6
			1dee: RELOC32	.bss
    1df2:	7000           	moveq #0,d0
    1df4:	d288           	add.l a0,d1
    1df6:	4eae ff10      	jsr -240(a6)
    1dfa:	2042           	movea.l d2,a0
    1dfc:	4e90           	jsr (a0)
    1dfe:	3206           	move.w d6,d1
    1e00:	5244           	addq.w #1,d4
    1e02:	5246           	addq.w #1,d6
    1e04:	609a           	bra.s 1da0 __aio_inputs1+0x58
    1e06:	3004           	move.w d4,d0
    1e08:	9041           	sub.w d1,d0
    1e0a:	4a40           	tst.w d0

00001e0c __aio_inputs2:
    1e0c:	6f16           	ble.s 1e24 __aio_inputs2+0x18
    1e0e:	2c79 0000 0004 	movea.l 4 _start+0x4,a6
			1e10: RELOC32	.bss
    1e14:	2279 0000 000a 	movea.l a ___mulsi4+0x4,a1
			1e16: RELOC32	.bss
    1e1a:	48c0           	ext.l d0
    1e1c:	41f2 1000      	lea (0,a2,d1.w),a0
    1e20:	4eae ffc4      	jsr -60(a6)
    1e24:	0c05 000d      	cmpi.b #13,d5
    1e28:	62d4           	bhi.s 1dfe _VALLNG_+0x54
    1e2a:	d683           	add.l d3,d3
    1e2c:	303b 3806      	move.w (1e34 __aio_inputs2+0x28,pc,d3.l),d0
    1e30:	4efb 0002      	jmp (1e34 __aio_inputs2+0x28,pc,d0.w)
    1e34:	0038 ffca ffca 	ori.b #-54,ffffffca __awindow_init+0xffffc114
    1e3a:	ffca           	.short 0xffca
    1e3c:	ffca           	.short 0xffca
    1e3e:	ffca           	.short 0xffca
    1e40:	ffca           	.short 0xffca
    1e42:	015c           	bchg d0,(a4)+
    1e44:	00f6           	.short 0x00f6
    1e46:	00a4 ffa4 ffca 	ori.l #-5963830,-(a4)
    1e4c:	0062 0044      	ori.w #68,-(a2)
    1e50:	2f0a           	move.l a2,-(sp)
    1e52:	4eb9 0000 03f0 	jsr 3f0 _LEN_
			1e54: RELOC32	.text
    1e58:	2c79 0000 0004 	movea.l 4 _start+0x4,a6
			1e5a: RELOC32	.bss
    1e5e:	2239 0000 006c 	move.l 6c __aqb_read2+0x2c,d1
			1e60: RELOC32	.bss
    1e64:	240a           	move.l a2,d2
    1e66:	2600           	move.l d0,d3
    1e68:	4eae ffd0      	jsr -48(a6)
    1e6c:	7001           	moveq #1,d0

00001e6e __aio_inputu2:
    1e6e:	4ced 5cfc ffd8 	movem.l -40(a5),d2-d7/a2-a4/a6
    1e74:	4e5d           	unlk a5
    1e76:	4e75           	rts
    1e78:	2c79 0000 0004 	movea.l 4 _start+0x4,a6
			1e7a: RELOC32	.bss
    1e7e:	2279 0000 000a 	movea.l a ___mulsi4+0x4,a1
			1e80: RELOC32	.bss
    1e84:	7000           	moveq #0,d0
    1e86:	3229 0026      	move.w 38(a1),d1
    1e8a:	48c1           	ext.l d1
    1e8c:	4eae ff10      	jsr -240(a6)
    1e90:	3206           	move.w d6,d1
    1e92:	6000 ff6c      	bra.w 1e00 _VALLNG_+0x56
    1e96:	2c79 0000 0004 	movea.l 4 _start+0x4,a6
			1e98: RELOC32	.bss
    1e9c:	7200           	moveq #0,d1
    1e9e:	2001           	move.l d1,d0
    1ea0:	2279 0000 000a 	movea.l a ___mulsi4+0x4,a1
			1ea2: RELOC32	.bss
    1ea6:	4eae ff10      	jsr -240(a6)
    1eaa:	2279 0000 000a 	movea.l a ___mulsi4+0x4,a1
			1eac: RELOC32	.bss
    1eb0:	1029 001a      	move.b 26(a1),d0
    1eb4:	4880           	ext.w d0
    1eb6:	48c0           	ext.l d0
    1eb8:	4eae ff16      	jsr -234(a6)
    1ebc:	2279 0000 000a 	movea.l a ___mulsi4+0x4,a1
			1ebe: RELOC32	.bss
    1ec2:	7200           	moveq #0,d1
    1ec4:	2069 0034      	movea.l 52(a1),a0
    1ec8:	2001           	move.l d1,d0
    1eca:	3228 001a      	move.w 26(a0),d1
    1ece:	4eae           	.short 0x4eae

00001ed0 _VALULNG_:
    1ed0:	ff10           	.short 0xff10
    1ed2:	3206           	move.w d6,d1
    1ed4:	6000 ff2a      	bra.w 1e00 _VALLNG_+0x56
    1ed8:	2279 0000 000a 	movea.l a ___mulsi4+0x4,a1
			1eda: RELOC32	.bss
    1ede:	2609           	move.l a1,d3
    1ee0:	2069 0034      	movea.l 52(a1),a0
    1ee4:	7a00           	moveq #0,d5
    1ee6:	3a28 0018      	move.w 24(a0),d5
    1eea:	2f05           	move.l d5,-(sp)
    1eec:	3069 0024      	movea.w 36(a1),a0
    1ef0:	2f08           	move.l a0,-(sp)
    1ef2:	4e94           	jsr (a4)
    1ef4:	223c 8000 0007 	move.l #-2147483641,d1
    1efa:	508f           	addq.l #8,sp
    1efc:	c280           	and.l d0,d1
    1efe:	6d00 00e8      	blt.w 1fe8 __aio_inputf+0x54
    1f02:	307c 0008      	movea.w #8,a0
    1f06:	91c1           	suba.l d1,a0
    1f08:	2f05           	move.l d5,-(sp)
    1f0a:	4870 0800      	pea (0,a0,d0.l)
    1f0e:	4e93           	jsr (a3)
    1f10:	508f           	addq.l #8,sp
    1f12:	2243           	movea.l d3,a1
    1f14:	3229 0026      	move.w 38(a1),d1
    1f18:	48c1           	ext.l d1
    1f1a:	2c79 0000 0004 	movea.l 4 _start+0x4,a6
			1f1c: RELOC32	.bss
    1f20:	4eae ff10      	jsr -240(a6)
    1f24:	3206           	move.w d6,d1
    1f26:	6000 fed8      	bra.w 1e00 _VALLNG_+0x56
    1f2a:	2279 0000 000a 	movea.l a ___mulsi4+0x4,a1
			1f2c: RELOC32	.bss
    1f30:	3069           	.short 0x3069

00001f32 __aio_inputu4:
    1f32:	0024 2c69      	ori.b #105,-(a4)
    1f36:	0034 7200 322e 	ori.b #0,(46,a4,d3.w*2)
    1f3c:	0018 b288      	ori.b #-120,(a0)+
    1f40:	6e00 febc      	bgt.w 1dfe _VALLNG_+0x54
    1f44:	2008           	move.l a0,d0
    1f46:	2c79 0000 0004 	movea.l 4 _start+0x4,a6
			1f48: RELOC32	.bss
    1f4c:	9081           	sub.l d1,d0
    1f4e:	3229 0026      	move.w 38(a1),d1
    1f52:	48c1           	ext.l d1
    1f54:	4eae ff10      	jsr -240(a6)
    1f58:	2279 0000 000a 	movea.l a ___mulsi4+0x4,a1
			1f5a: RELOC32	.bss
    1f5e:	7001           	moveq #1,d0
    1f60:	41fa fdfe      	lea 1d60 __aio_inputs1+0x18(pc),a0
    1f64:	4eae ffc4      	jsr -60(a6)
    1f68:	2279 0000 000a 	movea.l a ___mulsi4+0x4,a1
			1f6a: RELOC32	.bss
    1f6e:	3029 0024      	move.w 36(a1),d0
    1f72:	48c0           	ext.l d0
    1f74:	2069 0034      	movea.l 52(a1),a0
    1f78:	7200           	moveq #0,d1
    1f7a:	3228 0018      	move.w 24(a0),d1
    1f7e:	9081           	sub.l d1,d0
    1f80:	3229 0026      	move.w 38(a1),d1
    1f84:	48c1           	ext.l d1
    1f86:	4eae ff10      	jsr -240(a6)
    1f8a:	3206           	move.w d6,d1
    1f8c:	6000 fe72      	bra.w 1e00 _VALLNG_+0x56
    1f90:	91c8           	suba.l a0,a0
    1f92:	2c79           	.short 0x2c79

00001f94 __aio_inputf:
    1f94:	0000 0000      	ori.b #0,d0
			1f94: RELOC32	.bss
    1f98:	4eae ffa0      	jsr -96(a6)
    1f9c:	3206           	move.w d6,d1
    1f9e:	6000 fe60      	bra.w 1e00 _VALLNG_+0x56
    1fa2:	2f00           	move.l d0,-(sp)
    1fa4:	4878 140f      	pea 140f __s2toa_+0x3
    1fa8:	4878 ffff      	pea ffffffff __awindow_init+0xffffc149
    1fac:	4878 ffff      	pea ffffffff __awindow_init+0xffffc149
    1fb0:	2f00           	move.l d0,-(sp)
    1fb2:	4878 ffff      	pea ffffffff __awindow_init+0xffffc149
    1fb6:	4878 ffff      	pea ffffffff __awindow_init+0xffffc149
    1fba:	2f00           	move.l d0,-(sp)
    1fbc:	487a e1ce      	pea 18c __debug_puts1(pc)
    1fc0:	4878 0001      	pea 1 _start+0x1
    1fc4:	4eba e1d2      	jsr 198 _WINDOW(pc)
    1fc8:	2039 0000 01a0 	move.l 1a0 ___pow_s1+0x2,d0
			1fca: RELOC32	.bss
    1fce:	4fef 0028      	lea 40(sp),sp
    1fd2:	6000 fdae      	bra.w 1d82 __aio_inputs1+0x3a
    1fd6:	4eb9 0000 0aba 	jsr aba ___handle_break
			1fd8: RELOC32	.text
    1fdc:	2039 0000 01a0 	move.l 1a0 ___pow_s1+0x2,d0
			1fde: RELOC32	.bss
    1fe2:	6600 fd9e      	bne.w 1d82 __aio_inputs1+0x3a
    1fe6:	60ba           	bra.s 1fa2 __aio_inputf+0xe
    1fe8:	5381           	subq.l #1,d1
    1fea:	7ef8           	moveq #-8,d7
    1fec:	8287           	or.l d7,d1
    1fee:	307c 0008      	movea.w #8,a0
    1ff2:	5281           	addq.l #1,d1
    1ff4:	91c1           	suba.l d1,a0

00001ff6 __str2f_:
    1ff6:	2f05           	move.l d5,-(sp)
    1ff8:	4870 0800      	pea (0,a0,d0.l)
    1ffc:	4e93           	jsr (a3)
    1ffe:	508f           	addq.l #8,sp
    2000:	2243           	movea.l d3,a1
    2002:	3229 0026      	move.w 38(a1),d1
    2006:	48c1           	ext.l d1
    2008:	2c79 0000 0004 	movea.l 4 _start+0x4,a6
			200a: RELOC32	.bss
    200e:	4eae ff10      	jsr -240(a6)
    2012:	6000 ff10      	bra.w 1f24 _VALULNG_+0x54
    2016:	4e55 ffec      	link.w a5,#-20
    201a:	48e7 3c3a      	movem.l d2-d5/a2-a4/a6,-(sp)
    201e:	246d 0008      	movea.l 8(a5),a2
    2022:	2a2d 000c      	move.l 12(a5),d5
    2026:	380a           	move.w a2,d4
    2028:	3605           	move.w d5,d3
    202a:	4a79 0000 001e 	tst.w 1e __atimer_shutdown+0x2
			202c: RELOC32	.bss
    2030:	6600 010e      	bne.w 2140 __aio_open+0xe8
    2034:	2439 0000 01a0 	move.l 1a0 ___pow_s1+0x2,d2
			2036: RELOC32	.bss
    203a:	6700 00d0      	beq.w 210c __aio_open+0xb4
    203e:	7001           	moveq #1,d0
    2040:	b082           	cmp.l d2,d0
    2042:	6700 0194      	beq.w 21d8 __aio_init+0x3a
    2046:	4a44           	tst.w d4
    2048:	6f00 0156      	ble.w 21a0 __aio_init+0x2
    204c:	5344           	subq.w #1,d4
    204e:	7a00           	moveq #0,d5
    2050:	3a04           	move.w d4,d5
    2052:	4a43           	tst.w d3
    2054:	6f00 00fc      	ble.w 2152 __aio_open+0xfa

00002058 __aio_open:
    2058:	2439 0000 000a 	move.l a ___mulsi4+0x4,d2
			205a: RELOC32	.bss
    205e:	5343           	subq.w #1,d3
    2060:	7000           	moveq #0,d0
    2062:	2042           	movea.l d2,a0
    2064:	3003           	move.w d3,d0
    2066:	2868 0034      	movea.l 52(a0),a4
    206a:	7600           	moveq #0,d3
    206c:	362c 0018      	move.w 24(a4),d3
    2070:	2079 0000 0006 	movea.l 6 ___mulsi4,a0
			2072: RELOC32	.bss
    2076:	0828 0002 001a 	btst #2,26(a0)
    207c:	6652           	bne.s 20d0 __aio_open+0x78
    207e:	1228 0036      	move.b 54(a0),d1
    2082:	4881           	ext.w d1
    2084:	3641           	movea.w d1,a3
    2086:	1228 0037      	move.b 55(a0),d1
    208a:	4881           	ext.w d1
    208c:	3441           	movea.w d1,a2
    208e:	4df9 0000 0000 	lea 0 _start,a6
			2090: RELOC32	.text
    2094:	2f03           	move.l d3,-(sp)
    2096:	2f00           	move.l d0,-(sp)
    2098:	4e96           	jsr (a6)
    209a:	508f           	addq.l #8,sp
    209c:	d7c0           	adda.l d0,a3
    209e:	7000           	moveq #0,d0
    20a0:	302c 0014      	move.w 20(a4),d0
    20a4:	2f05           	move.l d5,-(sp)
    20a6:	2f00           	move.l d0,-(sp)
    20a8:	4e96           	jsr (a6)
    20aa:	508f           	addq.l #8,sp
    20ac:	d5c0           	adda.l d0,a2
    20ae:	7200           	moveq #0,d1
    20b0:	322c 001a      	move.w 26(a4),d1
    20b4:	2c79 0000 0004 	movea.l 4 _start+0x4,a6
			20b6: RELOC32	.bss
    20ba:	2242           	movea.l d2,a1
    20bc:	200b           	move.l a3,d0
    20be:	d28a           	add.l a2,d1
    20c0:	4eae ff10      	jsr -240(a6)
    20c4:	7001           	moveq #1,d0
    20c6:	4ced 5c3c ffcc 	movem.l -52(a5),d2-d5/a2-a4/a6
    20cc:	4e5d           	unlk a5
    20ce:	4e75           	rts
    20d0:	97cb           	suba.l a3,a3
    20d2:	244b           	movea.l a3,a2
    20d4:	4df9 0000 0000 	lea 0 _start,a6
			20d6: RELOC32	.text
    20da:	2f03           	move.l d3,-(sp)
    20dc:	2f00           	move.l d0,-(sp)
    20de:	4e96           	jsr (a6)
    20e0:	508f           	addq.l #8,sp
    20e2:	d7c0           	adda.l d0,a3
    20e4:	7000           	moveq #0,d0
    20e6:	302c 0014      	move.w 20(a4),d0
    20ea:	2f05           	move.l d5,-(sp)
    20ec:	2f00           	move.l d0,-(sp)
    20ee:	4e96           	jsr (a6)
    20f0:	508f           	addq.l #8,sp
    20f2:	d5c0           	adda.l d0,a2
    20f4:	7200           	moveq #0,d1
    20f6:	322c 001a      	move.w 26(a4),d1
    20fa:	2c79 0000 0004 	movea.l 4 _start+0x4,a6
			20fc: RELOC32	.bss
    2100:	2242           	movea.l d2,a1
    2102:	200b           	move.l a3,d0
    2104:	d28a           	add.l a2,d1
    2106:	4eae ff10      	jsr -240(a6)
    210a:	60b8           	bra.s 20c4 __aio_open+0x6c
    210c:	2f02           	move.l d2,-(sp)
    210e:	4878 140f      	pea 140f __s2toa_+0x3
    2112:	4878 ffff      	pea ffffffff __awindow_init+0xffffc149
    2116:	4878 ffff      	pea ffffffff __awindow_init+0xffffc149
    211a:	2f02           	move.l d2,-(sp)
    211c:	4878 ffff      	pea ffffffff __awindow_init+0xffffc149
    2120:	4878 ffff      	pea ffffffff __awindow_init+0xffffc149
    2124:	2f02           	move.l d2,-(sp)
    2126:	487a e064      	pea 18c __debug_puts1(pc)
    212a:	4878 0001      	pea 1 _start+0x1
    212e:	4eba e068      	jsr 198 _WINDOW(pc)
    2132:	2439 0000 01a0 	move.l 1a0 ___pow_s1+0x2,d2
			2134: RELOC32	.bss
    2138:	4fef 0028      	lea 40(sp),sp
    213c:	6000 ff00      	bra.w 203e __str2f_+0x48
    2140:	4eb9 0000 0aba 	jsr aba ___handle_break
			2142: RELOC32	.text
    2146:	2439 0000 01a0 	move.l 1a0 ___pow_s1+0x2,d2
			2148: RELOC32	.bss
    214c:	6600 fef0      	bne.w 203e __str2f_+0x48
    2150:	60ba           	bra.s 210c __aio_open+0xb4
    2152:	4a79 0000 001e 	tst.w 1e __atimer_shutdown+0x2
			2154: RELOC32	.bss
    2158:	6600 0126      	bne.w 2280 __aio_close+0x7e
    215c:	4a82           	tst.l d2
    215e:	6700 00ec      	beq.w 224c __aio_close+0x4a

00002162 __aio_getfh:
    2162:	5382           	subq.l #1,d2
    2164:	6700 0178      	beq.w 22de __aio_close+0xdc
    2168:	2079 0000 000a 	movea.l a ___mulsi4+0x4,a0
			216a: RELOC32	.bss
    216e:	2408           	move.l a0,d2
    2170:	2868 0034      	movea.l 52(a0),a4
    2174:	7600           	moveq #0,d3
    2176:	362c 0018      	move.w 24(a4),d3
    217a:	2f03           	move.l d3,-(sp)
    217c:	3068 0024      	movea.w 36(a0),a0
    2180:	2f08           	move.l a0,-(sp)
    2182:	4eb9 0000 008e 	jsr 8e ___divsi3
			2184: RELOC32	.text
    2188:	508f           	addq.l #8,sp
    218a:	48c0           	ext.l d0
    218c:	2079 0000 0006 	movea.l 6 ___mulsi4,a0
			218e: RELOC32	.bss
    2192:	0828 0002 001a 	btst #2,26(a0)
    2198:	6600 ff36      	bne.w 20d0 __aio_open+0x78
    219c:	6000           	.short 0x6000

0000219e __aio_init:
    219e:	fee0           	.short 0xfee0
    21a0:	4a79 0000 001e 	tst.w 1e __atimer_shutdown+0x2
			21a2: RELOC32	.bss
    21a6:	6600 00ea      	bne.w 2292 __aio_close+0x90
    21aa:	4a82           	tst.l d2
    21ac:	6700 00f2      	beq.w 22a0 __aio_close+0x9e
    21b0:	2079 0000 000a 	movea.l a ___mulsi4+0x4,a0
			21b2: RELOC32	.bss
    21b6:	2268 0034      	movea.l 52(a0),a1
    21ba:	7000           	moveq #0,d0
    21bc:	3029 0014      	move.w 20(a1),d0
    21c0:	2f00           	move.l d0,-(sp)
    21c2:	3068 0026      	movea.w 38(a0),a0
    21c6:	2f08           	move.l a0,-(sp)
    21c8:	4eb9 0000 008e 	jsr 8e ___divsi3
			21ca: RELOC32	.text
    21ce:	3a00           	move.w d0,d5
    21d0:	508f           	addq.l #8,sp
    21d2:	48c5           	ext.l d5
    21d4:	6000 fe7c      	bra.w 2052 __str2f_+0x5c
    21d8:	1b7c 009b ffec 	move.b #-101,-20(a5)
    21de:	42a7           	clr.l -(sp)
    21e0:	4878 000a      	pea a ___mulsi4+0x4
    21e4:	74ec           	moveq #-20,d2
    21e6:	d48d           	add.l a5,d2
    21e8:	486d ffed      	pea -19(a5)
    21ec:	344a           	movea.w a2,a2
    21ee:	2f0a           	move.l a2,-(sp)
    21f0:	47f9 0000 0000 	lea 0 _start,a3
			21f2: RELOC32	.text
    21f6:	4e93           	jsr (a3)
    21f8:	2f02           	move.l d2,-(sp)
    21fa:	45f9 0000 03f0 	lea 3f0 _LEN_,a2
			21fc: RELOC32	.text
    2200:	4e92           	jsr (a2)

00002202 __aio_close:
    2202:	1bbc 003b 08ec 	move.b #59,(-20,a5,d0.l)
    2208:	42a7           	clr.l -(sp)
    220a:	4878 000a      	pea a ___mulsi4+0x4
    220e:	2042           	movea.l d2,a0
    2210:	4870 0801      	pea (1,a0,d0.l)
    2214:	3045           	movea.w d5,a0
    2216:	2f08           	move.l a0,-(sp)
    2218:	4e93           	jsr (a3)
    221a:	4fef 0020      	lea 32(sp),sp
    221e:	2e82           	move.l d2,(sp)
    2220:	4e92           	jsr (a2)
    2222:	1bbc 0048 08ec 	move.b #72,(-20,a5,d0.l)
    2228:	2600           	move.l d0,d3
    222a:	4235 08ed      	clr.b (-19,a5,d0.l)
    222e:	5283           	addq.l #1,d3
    2230:	2239 0000 006c 	move.l 6c __aqb_read2+0x2c,d1
			2232: RELOC32	.bss
    2236:	2c79 0000 0004 	movea.l 4 _start+0x4,a6
			2238: RELOC32	.bss
    223c:	4eae ffd0      	jsr -48(a6)
    2240:	7001           	moveq #1,d0
    2242:	4ced 5c3c ffcc 	movem.l -52(a5),d2-d5/a2-a4/a6
    2248:	4e5d           	unlk a5
    224a:	4e75           	rts
    224c:	2f02           	move.l d2,-(sp)
    224e:	4878 140f      	pea 140f __s2toa_+0x3
    2252:	4878 ffff      	pea ffffffff __awindow_init+0xffffc149
    2256:	4878 ffff      	pea ffffffff __awindow_init+0xffffc149
    225a:	2f02           	move.l d2,-(sp)
    225c:	4878 ffff      	pea ffffffff __awindow_init+0xffffc149
    2260:	4878 ffff      	pea ffffffff __awindow_init+0xffffc149
    2264:	2f02           	move.l d2,-(sp)
    2266:	487a df24      	pea 18c __debug_puts1(pc)
    226a:	4878 0001      	pea 1 _start+0x1
    226e:	4eba df28      	jsr 198 _WINDOW(pc)
    2272:	2439 0000 01a0 	move.l 1a0 ___pow_s1+0x2,d2
			2274: RELOC32	.bss
    2278:	4fef 0028      	lea 40(sp),sp
    227c:	6000 fee4      	bra.w 2162 __aio_getfh
    2280:	4eb9 0000 0aba 	jsr aba ___handle_break
			2282: RELOC32	.text
    2286:	2439 0000 01a0 	move.l 1a0 ___pow_s1+0x2,d2
			2288: RELOC32	.bss
    228c:	6600 fed4      	bne.w 2162 __aio_getfh
    2290:	60ba           	bra.s 224c __aio_close+0x4a
    2292:	4eb9 0000 0aba 	jsr aba ___handle_break
			2294: RELOC32	.text
    2298:	2439 0000 01a0 	move.l 1a0 ___pow_s1+0x2,d2
			229a: RELOC32	.bss
    229e:	6630           	bne.s 22d0 __aio_close+0xce
    22a0:	42a7           	clr.l -(sp)
    22a2:	4878 140f      	pea 140f __s2toa_+0x3
    22a6:	4878 ffff      	pea ffffffff __awindow_init+0xffffc149
    22aa:	4878 ffff      	pea ffffffff __awindow_init+0xffffc149
    22ae:	42a7           	clr.l -(sp)
    22b0:	4878 ffff      	pea ffffffff __awindow_init+0xffffc149
    22b4:	4878 ffff      	pea ffffffff __awindow_init+0xffffc149
    22b8:	42a7           	clr.l -(sp)
    22ba:	487a ded0      	pea 18c __debug_puts1(pc)
    22be:	4878 0001      	pea 1 _start+0x1
    22c2:	4eba ded4      	jsr 198 _WINDOW(pc)
    22c6:	2439 0000 01a0 	move.l 1a0 ___pow_s1+0x2,d2
			22c8: RELOC32	.bss
    22cc:	4fef 0028      	lea 40(sp),sp
    22d0:	7001           	moveq #1,d0
    22d2:	b082           	cmp.l d2,d0
    22d4:	6600 feda      	bne.w 21b0 __aio_init+0x12
    22d8:	7aff           	moveq #-1,d5
    22da:	6000 fd76      	bra.w 2052 __str2f_+0x5c
    22de:	2079 0000 000a 	movea.l a ___mulsi4+0x4,a0
			22e0: RELOC32	.bss
    22e4:	2408           	move.l a0,d2
    22e6:	2868 0034      	movea.l 52(a0),a4
    22ea:	7600           	moveq #0,d3
    22ec:	362c 0018      	move.w 24(a4),d3
    22f0:	70ff           	moveq #-1,d0
    22f2:	2079 0000 0006 	movea.l 6 ___mulsi4,a0
			22f4: RELOC32	.bss
    22f8:	0828 0002 001a 	btst #2,26(a0)
    22fe:	6600 fdd0      	bne.w 20d0 __aio_open+0x78
    2302:	6000 fd7a      	bra.w 207e __aio_open+0x26

00002306 _LOCATE_XY:
    2306:	4e55 0000      	link.w a5,#0
    230a:	48e7 3802      	movem.l d2-d4/a6,-(sp)
    230e:	382d 000a      	move.w 10(a5),d4
    2312:	362d 000e      	move.w 14(a5),d3
    2316:	342d 0012      	move.w 18(a5),d2
    231a:	4a79 0000 001e 	tst.w 1e __atimer_shutdown+0x2
			231c: RELOC32	.bss
    2320:	663c           	bne.s 235e _LOCATE_XY+0x58
    2322:	7001           	moveq #1,d0
    2324:	b0b9 0000 01a0 	cmp.l 1a0 ___pow_s1+0x2,d0
			2326: RELOC32	.bss
    232a:	6442           	bcc.s 236e _LOCATE_XY+0x68
    232c:	2279 0000 000a 	movea.l a ___mulsi4+0x4,a1
			232e: RELOC32	.bss
    2332:	2009           	move.l a1,d0
    2334:	676c           	beq.s 23a2 _LOCATE_XY+0x9c
    2336:	4a44           	tst.w d4
    2338:	6708           	beq.s 2342 _LOCATE_XY+0x3c
    233a:	d669 0024      	add.w 36(a1),d3
    233e:	d469 0026      	add.w 38(a1),d2
    2342:	3003           	move.w d3,d0
    2344:	2c79 0000 0004 	movea.l 4 _start+0x4,a6
			2346: RELOC32	.bss
    234a:	48c0           	ext.l d0
    234c:	3202           	move.w d2,d1
    234e:	48c1           	ext.l d1
    2350:	4eae ff10      	jsr -240(a6)
    2354:	4ced 401c fff0 	movem.l -16(a5),d2-d4/a6
    235a:	4e5d           	unlk a5
    235c:	4e75           	rts
    235e:	4eb9 0000 0aba 	jsr aba ___handle_break
			2360: RELOC32	.text
    2364:	7001           	moveq #1,d0
    2366:	b0b9 0000 01a0 	cmp.l 1a0 ___pow_s1+0x2,d0
			2368: RELOC32	.bss
    236c:	65be           	bcs.s 232c _LOCATE_XY+0x26
    236e:	42a7           	clr.l -(sp)
    2370:	4878 140f      	pea 140f __s2toa_+0x3
    2374:	4878 ffff      	pea ffffffff __awindow_init+0xffffc149
    2378:	4878 ffff      	pea ffffffff __awindow_init+0xffffc149
    237c:	42a7           	clr.l -(sp)
    237e:	4878 ffff      	pea ffffffff __awindow_init+0xffffc149
    2382:	4878 ffff      	pea ffffffff __awindow_init+0xffffc149
    2386:	42a7           	clr.l -(sp)
    2388:	487a de02      	pea 18c __debug_puts1(pc)
    238c:	4878 0001      	pea 1 _start+0x1
    2390:	4eba de06      	jsr 198 _WINDOW(pc)
    2394:	2279 0000 000a 	movea.l a ___mulsi4+0x4,a1
			2396: RELOC32	.bss
    239a:	4fef 0028      	lea 40(sp),sp
    239e:	2009           	move.l a1,d0
    23a0:	6694           	bne.s 2336 _LOCATE_XY+0x30
    23a2:	4878 007a      	pea 7a __atimer_process_signals+0x2
    23a6:	4eb9 0000 011e 	jsr 11e _ERROR
			23a8: RELOC32	.text
    23ac:	2279 0000 000a 	movea.l a ___mulsi4+0x4,a1
			23ae: RELOC32	.bss
    23b2:	6082           	bra.s 2336 _LOCATE_XY+0x30

000023b4 _CSRLIN_:
    23b4:	4e55 0000      	link.w a5,#0
    23b8:	4a79 0000 001e 	tst.w 1e __atimer_shutdown+0x2
			23ba: RELOC32	.bss
    23be:	666e           	bne.s 242e _CSRLIN_+0x7a
    23c0:	2039 0000 01a0 	move.l 1a0 ___pow_s1+0x2,d0
			23c2: RELOC32	.bss
    23c6:	672a           	beq.s 23f2 _CSRLIN_+0x3e
    23c8:	7201           	moveq #1,d1
    23ca:	b280           	cmp.l d0,d1
    23cc:	675a           	beq.s 2428 _CSRLIN_+0x74
    23ce:	2079 0000 000a 	movea.l a ___mulsi4+0x4,a0
			23d0: RELOC32	.bss
    23d4:	2268 0034      	movea.l 52(a0),a1
    23d8:	7000           	moveq #0,d0
    23da:	3029 0014      	move.w 20(a1),d0
    23de:	2f00           	move.l d0,-(sp)
    23e0:	3068 0026      	movea.w 38(a0),a0
    23e4:	2f08           	move.l a0,-(sp)
    23e6:	4eb9 0000 008e 	jsr 8e ___divsi3
			23e8: RELOC32	.text
    23ec:	5240           	addq.w #1,d0
    23ee:	4e5d           	unlk a5
    23f0:	4e75           	rts
    23f2:	2f00           	move.l d0,-(sp)
    23f4:	4878 140f      	pea 140f __s2toa_+0x3
    23f8:	4878 ffff      	pea ffffffff __awindow_init+0xffffc149
    23fc:	4878 ffff      	pea ffffffff __awindow_init+0xffffc149
    2400:	2f00           	move.l d0,-(sp)
    2402:	4878 ffff      	pea ffffffff __awindow_init+0xffffc149
    2406:	4878 ffff      	pea ffffffff __awindow_init+0xffffc149
    240a:	2f00           	move.l d0,-(sp)
    240c:	487a dd7e      	pea 18c __debug_puts1(pc)
    2410:	4878 0001      	pea 1 _start+0x1
    2414:	4eba dd82      	jsr 198 _WINDOW(pc)
    2418:	2039 0000 01a0 	move.l 1a0 ___pow_s1+0x2,d0
			241a: RELOC32	.bss
    241e:	4fef 0028      	lea 40(sp),sp
    2422:	7201           	moveq #1,d1
    2424:	b280           	cmp.l d0,d1
    2426:	66a6           	bne.s 23ce _CSRLIN_+0x1a
    2428:	4240           	clr.w d0
    242a:	4e5d           	unlk a5
    242c:	4e75           	rts
    242e:	4eb9 0000 0aba 	jsr aba ___handle_break
			2430: RELOC32	.text
    2434:	2039 0000 01a0 	move.l 1a0 ___pow_s1+0x2,d0
			2436: RELOC32	.bss
    243a:	668c           	bne.s 23c8 _CSRLIN_+0x14
    243c:	60b4           	bra.s 23f2 _CSRLIN_+0x3e

0000243e _POS_:
    243e:	4e55 0000      	link.w a5,#0
    2442:	4a79 0000 001e 	tst.w 1e __atimer_shutdown+0x2
			2444: RELOC32	.bss
    2448:	666e           	bne.s 24b8 _POS_+0x7a
    244a:	2039 0000 01a0 	move.l 1a0 ___pow_s1+0x2,d0
			244c: RELOC32	.bss
    2450:	672a           	beq.s 247c _POS_+0x3e
    2452:	7201           	moveq #1,d1
    2454:	b280           	cmp.l d0,d1
    2456:	675a           	beq.s 24b2 _POS_+0x74
    2458:	2079 0000 000a 	movea.l a ___mulsi4+0x4,a0
			245a: RELOC32	.bss
    245e:	2268 0034      	movea.l 52(a0),a1
    2462:	7000           	moveq #0,d0
    2464:	3029 0018      	move.w 24(a1),d0
    2468:	2f00           	move.l d0,-(sp)
    246a:	3068 0024      	movea.w 36(a0),a0
    246e:	2f08           	move.l a0,-(sp)
    2470:	4eb9 0000 008e 	jsr 8e ___divsi3
			2472: RELOC32	.text
    2476:	5240           	addq.w #1,d0
    2478:	4e5d           	unlk a5
    247a:	4e75           	rts
    247c:	2f00           	move.l d0,-(sp)
    247e:	4878 140f      	pea 140f __s2toa_+0x3
    2482:	4878 ffff      	pea ffffffff __awindow_init+0xffffc149
    2486:	4878 ffff      	pea ffffffff __awindow_init+0xffffc149
    248a:	2f00           	move.l d0,-(sp)
    248c:	4878 ffff      	pea ffffffff __awindow_init+0xffffc149
    2490:	4878 ffff      	pea ffffffff __awindow_init+0xffffc149
    2494:	2f00           	move.l d0,-(sp)
    2496:	487a dcf4      	pea 18c __debug_puts1(pc)
    249a:	4878 0001      	pea 1 _start+0x1
    249e:	4eba dcf8      	jsr 198 _WINDOW(pc)
    24a2:	2039 0000 01a0 	move.l 1a0 ___pow_s1+0x2,d0
			24a4: RELOC32	.bss
    24a8:	4fef 0028      	lea 40(sp),sp
    24ac:	7201           	moveq #1,d1
    24ae:	b280           	cmp.l d0,d1
    24b0:	66a6           	bne.s 2458 _POS_+0x1a
    24b2:	4240           	clr.w d0
    24b4:	4e5d           	unlk a5
    24b6:	4e75           	rts
    24b8:	4eb9 0000 0aba 	jsr aba ___handle_break
			24ba: RELOC32	.text
    24be:	2039 0000 01a0 	move.l 1a0 ___pow_s1+0x2,d0
			24c0: RELOC32	.bss
    24c4:	668c           	bne.s 2452 _POS_+0x14
    24c6:	60b4           	bra.s 247c _POS_+0x3e
    24c8:	48e7 3c22      	movem.l d2-d5/a2/a6,-(sp)
    24cc:	2279 0000 000a 	movea.l a ___mulsi4+0x4,a1
			24ce: RELOC32	.bss
    24d2:	1829 0019      	move.b 25(a1),d4
    24d6:	3a29 0024      	move.w 36(a1),d5
    24da:	3469 0026      	movea.w 38(a1),a2
    24de:	2069 0004      	movea.l 4(a1),a0
    24e2:	7200           	moveq #0,d1
    24e4:	1228 0005      	move.b 5(a0),d1
    24e8:	7001           	moveq #1,d0
    24ea:	e3a8           	lsl.l d1,d0
    24ec:	5300           	subq.b #1,d0
    24ee:	4880           	ext.w d0
    24f0:	48c0           	ext.l d0
    24f2:	2c79 0000 0004 	movea.l 4 _start+0x4,a6
			24f4: RELOC32	.bss
    24f8:	4eae feaa      	jsr -342(a6)
    24fc:	2279 0000 000a 	movea.l a ___mulsi4+0x4,a1
			24fe: RELOC32	.bss
    2502:	48c5           	ext.l d5
    2504:	344a           	movea.w a2,a2
    2506:	7000           	moveq #0,d0
    2508:	3029 003e      	move.w 62(a1),d0
    250c:	220a           	move.l a2,d1
    250e:	9280           	sub.l d0,d1
    2510:	7600           	moveq #0,d3
    2512:	3629 003a      	move.w 58(a1),d3
    2516:	7001           	moveq #1,d0
    2518:	d085           	add.l d5,d0

0000251a _VAL_:
    251a:	7402           	moveq #2,d2
    251c:	2041           	movea.l d1,a0
    251e:	41f0 38ff      	lea (-1,a0,d3.l),a0

00002522 _EOF_:
    2522:	d485           	add.l d5,d2
    2524:	2608           	move.l a0,d3
    2526:	4eae fece      	jsr -306(a6)
    252a:	2279 0000 000a 	movea.l a ___mulsi4+0x4,a1
			252c: RELOC32	.bss
    2530:	2005           	move.l d5,d0
    2532:	220a           	move.l a2,d1
    2534:	4eae ff10      	jsr -240(a6)
    2538:	4884           	ext.w d4
    253a:	3004           	move.w d4,d0
    253c:	48c0           	ext.l d0
    253e:	2279 0000 000a 	movea.l a ___mulsi4+0x4,a1
			2540: RELOC32	.bss
    2544:	4eae feaa      	jsr -342(a6)
    2548:	4cdf 443c      	movem.l (sp)+,d2-d5/a2/a6
    254c:	4e75           	rts
    254e:	4e55 fffc      	link.w a5,#-4
    2552:	48e7 3f3a      	movem.l d2-d7/a2-a4/a6,-(sp)
    2556:	286d 0008      	movea.l 8(a5),a4
    255a:	282d 000c      	move.l 12(a5),d4
    255e:	3b6d 0012 fffe 	move.w 18(a5),-2(a5)
    2564:	4a79 0000 001e 	tst.w 1e __atimer_shutdown+0x2
			2566: RELOC32	.bss
    256a:	6600 028a      	bne.w 27f6 __aio_shutdown+0xd6
    256e:	2439 0000 01a0 	move.l 1a0 ___pow_s1+0x2,d2
			2570: RELOC32	.bss
    2574:	6700 020e      	beq.w 2784 __aio_shutdown+0x64
    2578:	7001           	moveq #1,d0
    257a:	b082           	cmp.l d2,d0
    257c:	6700 023e      	beq.w 27bc __aio_shutdown+0x9c
    2580:	41fa ff46      	lea 24c8 _POS_+0x8a(pc),a0
    2584:	2c08           	move.l a0,d6
    2586:	4e90           	jsr (a0)
    2588:	7800           	moveq #0,d4
    258a:	47fa ec26      	lea 11b2 __aio_writes+0x4a(pc),a3
    258e:	2e3c 0000 0aba 	move.l #2746,d7
			2590: RELOC32	.text
    2594:	45f9 0000 01c6 	lea 1c6 _TIMER_+0x2,a2
			2596: RELOC32	.bss
    259a:	2a3c 0000 01bc 	move.l #444,d5
			259c: RELOC32	.bss
    25a0:	4878 0001      	pea 1 _start+0x1
    25a4:	4e93           	jsr (a3)
    25a6:	588f           	addq.l #4,sp
    25a8:	4a79 0000 001e 	tst.w 1e __atimer_shutdown+0x2
			25aa: RELOC32	.bss
    25ae:	6600 00e6      	bne.w 2696 __astr_init+0x1a
    25b2:	2639 0000 01a0 	move.l 1a0 ___pow_s1+0x2,d3
			25b4: RELOC32	.bss
    25b8:	6700 0086      	beq.w 2640 _LOCATE+0x26
    25bc:	7001           	moveq #1,d0
    25be:	b083           	cmp.l d3,d0
    25c0:	6700 00b6      	beq.w 2678 _MEMSET+0x2a
    25c4:	3239 0000 01c4 	move.w 1c4 _TIMER_,d1
			25c6: RELOC32	.bss
    25ca:	6700 00da      	beq.w 26a6 __astr_init+0x2a
    25ce:	7000           	moveq #0,d0
    25d0:	2045           	movea.l d5,a0
    25d2:	3039 0000 01c0 	move.w 1c0 __aio_puttab+0x4,d0
			25d4: RELOC32	.bss
    25d8:	1430 0800      	move.b (0,a0,d0.l),d2

000025dc _CLS:
    25dc:	1482           	move.b d2,(a2)
    25de:	5280           	addq.l #1,d0
    25e0:	0240 0003      	andi.w #3,d0
    25e4:	33c0 0000 01c0 	move.w d0,1c0 __aio_puttab+0x4
			25e6: RELOC32	.bss
    25ea:	5341           	subq.w #1,d1
    25ec:	33c1 0000 01c4 	move.w d1,1c4 _TIMER_
			25ee: RELOC32	.bss
    25f2:	4a02           	tst.b d2
    25f4:	67aa           	beq.s 25a0 _EOF_+0x7e
    25f6:	0c02 0008      	cmpi.b #8,d2
    25fa:	6700 00ee      	beq.w 26ea __astr_init+0x6e
    25fe:	0c02 000d      	cmpi.b #13,d2
    2602:	6700 00b8      	beq.w 26bc __astr_init+0x40
    2606:	0c02 000a      	cmpi.b #10,d2
    260a:	6700 00b0      	beq.w 26bc __astr_init+0x40
    260e:	2c79 0000 0004 	movea.l 4 _start+0x4,a6
			2610: RELOC32	.bss
    2614:	2279 0000 000a 	movea.l a ___mulsi4+0x4,a1
			2616: RELOC32	.bss

0000261a _LOCATE:
    261a:	7001           	moveq #1,d0
    261c:	204a           	movea.l a2,a0
    261e:	4eae ffc4      	jsr -60(a6)
    2622:	2046           	movea.l d6,a0
    2624:	4e90           	jsr (a0)
    2626:	1982 4800      	move.b d2,(0,a4,d4.l)
    262a:	5284           	addq.l #1,d4
    262c:	4878 0001      	pea 1 _start+0x1
    2630:	4e93           	jsr (a3)
    2632:	588f           	addq.l #4,sp
    2634:	4a79 0000 001e 	tst.w 1e __atimer_shutdown+0x2
			2636: RELOC32	.bss
    263a:	6700 ff76      	beq.w 25b2 _EOF_+0x90
    263e:	6056           	bra.s 2696 __astr_init+0x1a
    2640:	2f03           	move.l d3,-(sp)
    2642:	4878 140f      	pea 140f __s2toa_+0x3
    2646:	4878 ffff      	pea ffffffff __awindow_init+0xffffc149
    264a:	4878 ffff      	pea ffffffff __awindow_init+0xffffc149

0000264e _MEMSET:
    264e:	2f03           	move.l d3,-(sp)
    2650:	4878 ffff      	pea ffffffff __awindow_init+0xffffc149
    2654:	4878 ffff      	pea ffffffff __awindow_init+0xffffc149
    2658:	2f03           	move.l d3,-(sp)
    265a:	487a db30      	pea 18c __debug_puts1(pc)
    265e:	4878 0001      	pea 1 _start+0x1
    2662:	4eba db34      	jsr 198 _WINDOW(pc)
    2666:	2639 0000 01a0 	move.l 1a0 ___pow_s1+0x2,d3
			2668: RELOC32	.bss
    266c:	4fef 0028      	lea 40(sp),sp
    2670:	7001           	moveq #1,d0
    2672:	b083           	cmp.l d3,d0
    2674:	6600 ff4e      	bne.w 25c4 _EOF_+0xa2
    2678:	2c79           	.short 0x2c79
	...
			267a: RELOC32	.bss

0000267c __astr_init:
    267c:	0004 2239      	ori.b #57,d4
    2680:	0000 0070      	ori.b #112,d0
			2680: RELOC32	.bss
    2684:	240a           	move.l a2,d2
    2686:	4eae ffd6      	jsr -42(a6)
    268a:	5380           	subq.l #1,d0
    268c:	6600 ff12      	bne.w 25a0 _EOF_+0x7e
    2690:	1412           	move.b (a2),d2
    2692:	6000 ff5e      	bra.w 25f2 _CLS+0x16
    2696:	2047           	movea.l d7,a0
    2698:	4e90           	jsr (a0)
    269a:	2639 0000 01a0 	move.l 1a0 ___pow_s1+0x2,d3
			269c: RELOC32	.bss
    26a0:	6600 ff1a      	bne.w 25bc _EOF_+0x9a
    26a4:	609a           	bra.s 2640 _LOCATE+0x26
    26a6:	1481           	move.b d1,(a2)
    26a8:	4878 0001      	pea 1 _start+0x1
    26ac:	4e93           	jsr (a3)
    26ae:	588f           	addq.l #4,sp
    26b0:	4a79 0000 001e 	tst.w 1e __atimer_shutdown+0x2
			26b2: RELOC32	.bss
    26b6:	6700 fefa      	beq.w 25b2 _EOF_+0x90
    26ba:	60da           	bra.s 2696 __astr_init+0x1a
    26bc:	4234 4800      	clr.b (0,a4,d4.l)
    26c0:	2c79 0000 0004 	movea.l 4 _start+0x4,a6
			26c2: RELOC32	.bss
    26c6:	2279 0000 000a 	movea.l a ___mulsi4+0x4,a1
			26c8: RELOC32	.bss
    26cc:	7001           	moveq #1,d0
    26ce:	41f9 0000 0054 	lea 54 __aqb_read2+0x14,a0
			26d0: RELOC32	.data
    26d4:	4eae ffc4      	jsr -60(a6)
    26d8:	4a6d fffe      	tst.w -2(a5)
    26dc:	667a           	bne.s 2758 __aio_shutdown+0x38
    26de:	7001           	moveq #1,d0
    26e0:	4ced 5cfc ffd4 	movem.l -44(a5),d2-d7/a2-a4/a6
    26e6:	4e5d           	unlk a5
    26e8:	4e75           	rts
    26ea:	4a84           	tst.l d4
    26ec:	6700 feb2      	beq.w 25a0 _EOF_+0x7e
    26f0:	2279 0000 000a 	movea.l a ___mulsi4+0x4,a1
			26f2: RELOC32	.bss
    26f6:	3c69 0024      	movea.w 36(a1),a6
    26fa:	2069 0034      	movea.l 52(a1),a0
    26fe:	7000           	moveq #0,d0
    2700:	3028 0018      	move.w 24(a0),d0
    2704:	240e           	move.l a6,d2
    2706:	9480           	sub.l d0,d2
    2708:	3629 0026      	move.w 38(a1),d3
    270c:	48c3           	ext.l d3
    270e:	2c79 0000 0004 	movea.l 4 _start+0x4,a6
			2710: RELOC32	.bss
    2714:	2002           	move.l d2,d0
    2716:	2203           	move.l d3,d1
    2718:	4eae ff10      	jsr -240(a6)
    271c:	2279           	.short 0x2279
	...
			271e: RELOC32	.bss

00002720 __aio_shutdown:
    2720:	000a           	.short 0x000a
    2722:	7002           	moveq #2,d0
    2724:	41f9 0000 0054 	lea 54 __aqb_read2+0x14,a0
			2726: RELOC32	.data
    272a:	4eae ffc4      	jsr -60(a6)
    272e:	2279 0000 000a 	movea.l a ___mulsi4+0x4,a1
			2730: RELOC32	.bss
    2734:	2002           	move.l d2,d0
    2736:	2203           	move.l d3,d1
    2738:	4eae ff10      	jsr -240(a6)
    273c:	2046           	movea.l d6,a0
    273e:	4e90           	jsr (a0)
    2740:	5384           	subq.l #1,d4
    2742:	4878 0001      	pea 1 _start+0x1
    2746:	4e93           	jsr (a3)
    2748:	588f           	addq.l #4,sp
    274a:	4a79 0000 001e 	tst.w 1e __atimer_shutdown+0x2
			274c: RELOC32	.bss
    2750:	6700 fe60      	beq.w 25b2 _EOF_+0x90
    2754:	6000 ff40      	bra.w 2696 __astr_init+0x1a
    2758:	2279 0000 000a 	movea.l a ___mulsi4+0x4,a1
			275a: RELOC32	.bss
    275e:	2069 0034      	movea.l 52(a1),a0
    2762:	7200           	moveq #0,d1
    2764:	3228 0014      	move.w 20(a0),d1
    2768:	3069 0026      	movea.w 38(a1),a0
    276c:	7000           	moveq #0,d0
    276e:	d288           	add.l a0,d1
    2770:	4eae ff10      	jsr -240(a6)
    2774:	4eba f520      	jsr 1c96 _ON_MOUSE_MOTION_CALL+0x10(pc)
    2778:	7001           	moveq #1,d0
    277a:	4ced 5cfc ffd4 	movem.l -44(a5),d2-d7/a2-a4/a6
    2780:	4e5d           	unlk a5
    2782:	4e75           	rts
    2784:	2f02           	move.l d2,-(sp)
    2786:	4878 140f      	pea 140f __s2toa_+0x3
    278a:	4878 ffff      	pea ffffffff __awindow_init+0xffffc149
    278e:	4878 ffff      	pea ffffffff __awindow_init+0xffffc149
    2792:	2f02           	move.l d2,-(sp)
    2794:	4878 ffff      	pea ffffffff __awindow_init+0xffffc149
    2798:	4878 ffff      	pea ffffffff __awindow_init+0xffffc149
    279c:	2f02           	move.l d2,-(sp)
    279e:	487a d9ec      	pea 18c __debug_puts1(pc)
    27a2:	4878 0001      	pea 1 _start+0x1
    27a6:	4eba d9f0      	jsr 198 _WINDOW(pc)
    27aa:	2439 0000 01a0 	move.l 1a0 ___pow_s1+0x2,d2
			27ac: RELOC32	.bss
    27b0:	4fef 0028      	lea 40(sp),sp
    27b4:	7001           	moveq #1,d0
    27b6:	b082           	cmp.l d2,d0
    27b8:	6600 fdc6      	bne.w 2580 _EOF_+0x5e
    27bc:	4eb9 0000 219e 	jsr 219e __aio_init
			27be: RELOC32	.text
    27c2:	2f02           	move.l d2,-(sp)
    27c4:	45f9 0000 00a0 	lea a0 __aio_set_dos_cursor_visible,a2
			27c6: RELOC32	.text
    27ca:	4e92           	jsr (a2)
    27cc:	2c79 0000 0004 	movea.l 4 _start+0x4,a6
			27ce: RELOC32	.bss
    27d2:	2239 0000 0070 	move.l 70 _DEALLOCATE,d1
			27d4: RELOC32	.bss
    27d8:	240c           	move.l a4,d2
    27da:	7600           	moveq #0,d3
    27dc:	3604           	move.w d4,d3
    27de:	4eae ffd6      	jsr -42(a6)
    27e2:	4234 08ff      	clr.b (-1,a4,d0.l)
    27e6:	42a7           	clr.l -(sp)
    27e8:	4e92           	jsr (a2)
    27ea:	7001           	moveq #1,d0
    27ec:	4ced 5cfc ffd4 	movem.l -44(a5),d2-d7/a2-a4/a6
    27f2:	4e5d           	unlk a5
    27f4:	4e75           	rts
    27f6:	4eb9 0000 0aba 	jsr aba ___handle_break
			27f8: RELOC32	.text
    27fc:	2439 0000 01a0 	move.l 1a0 ___pow_s1+0x2,d2
			27fe: RELOC32	.bss
    2802:	6600 fd74      	bne.w 2578 _EOF_+0x56
    2806:	6000 ff7c      	bra.w 2784 __aio_shutdown+0x64

0000280a _PALETTE:
    280a:	4e55 0000      	link.w a5,#0
    280e:	48e7 3c02      	movem.l d2-d5/a6,-(sp)
    2812:	282d 0008      	move.l 8(a5),d4
    2816:	222d 000c      	move.l 12(a5),d1
    281a:	242d 0010      	move.l 16(a5),d2
    281e:	262d 0014      	move.l 20(a5),d3
    2822:	4ab9 0000 000e 	tst.l e _SCREEN+0x2
			2824: RELOC32	.bss
    2828:	6770           	beq.s 289a _PALETTE+0x90
    282a:	0c44 003f      	cmpi.w #63,d4
    282e:	626a           	bhi.s 289a _PALETTE+0x90
    2830:	2039 0000 0018 	move.l 18 ___DARRAY_T_REDIM,d0
			2832: RELOC32	.bss
    2836:	2c79 0000 0008 	movea.l 8 ___mulsi4+0x2,a6
			2838: RELOC32	.bss
    283c:	4eae ffb2      	jsr -78(a6)
    2840:	4eae ffe2      	jsr -30(a6)
    2844:	2a00           	move.l d0,d5
    2846:	700f           	moveq #15,d0
    2848:	b085           	cmp.l d5,d0
    284a:	654e           	bcs.s 289a _PALETTE+0x90
    284c:	2039 0000 0018 	move.l 18 ___DARRAY_T_REDIM,d0
			284e: RELOC32	.bss
    2852:	2202           	move.l d2,d1
    2854:	4eae ffb2      	jsr -78(a6)
    2858:	4eae ffe2      	jsr -30(a6)
    285c:	2400           	move.l d0,d2
    285e:	700f           	moveq #15,d0
    2860:	b082           	cmp.l d2,d0
    2862:	6536           	bcs.s 289a _PALETTE+0x90
    2864:	2039 0000 0018 	move.l 18 ___DARRAY_T_REDIM,d0
			2866: RELOC32	.bss
    286a:	2203           	move.l d3,d1
    286c:	4eae ffb2      	jsr -78(a6)
    2870:	4eae ffe2      	jsr -30(a6)
    2874:	2600           	move.l d0,d3
    2876:	700f           	moveq #15,d0
    2878:	b083           	cmp.l d3,d0
    287a:	651e           	bcs.s 289a _PALETTE+0x90
    287c:	2c79 0000 0004 	movea.l 4 _start+0x4,a6
			287e: RELOC32	.bss
    2882:	3004           	move.w d4,d0
    2884:	2079 0000 000e 	movea.l e _SCREEN+0x2,a0
			2886: RELOC32	.bss
    288a:	48c0           	ext.l d0
    288c:	2205           	move.l d5,d1
    288e:	4eae fee0      	jsr -288(a6)
    2892:	4cdf 403c      	movem.l (sp)+,d2-d5/a6
    2896:	4e5d           	unlk a5
    2898:	4e75           	rts
    289a:	7067           	moveq #103,d0
    289c:	2b40 0008      	move.l d0,8(a5)
    28a0:	4cdf 403c      	movem.l (sp)+,d2-d5/a6
    28a4:	4e5d           	unlk a5
    28a6:	4ef9 0000 011e 	jmp 11e _ERROR
			28a8: RELOC32	.text

000028ac _COLOR:
    28ac:	4e55 0000      	link.w a5,#0
    28b0:	48e7 3f32      	movem.l d2-d7/a2-a3/a6,-(sp)
    28b4:	2a2d 0008      	move.l 8(a5),d5
    28b8:	282d 000c      	move.l 12(a5),d4
    28bc:	262d 0010      	move.l 16(a5),d3
    28c0:	242d 0014      	move.l 20(a5),d2
    28c4:	3645           	movea.w d5,a3
    28c6:	3444           	movea.w d4,a2
    28c8:	3e03           	move.w d3,d7
    28ca:	3c02           	move.w d2,d6
    28cc:	4a79 0000 001e 	tst.w 1e __atimer_shutdown+0x2
			28ce: RELOC32	.bss
    28d2:	6674           	bne.s 2948 _COLOR+0x9c
    28d4:	7001           	moveq #1,d0
    28d6:	b0b9 0000 01a0 	cmp.l 1a0 ___pow_s1+0x2,d0
			28d8: RELOC32	.bss
    28dc:	647a           	bcc.s 2958 _COLOR+0xac
    28de:	4ab9 0000 000a 	tst.l a ___mulsi4+0x4
			28e0: RELOC32	.bss
    28e4:	6700 00a6      	beq.w 298c _COLOR+0xe0
    28e8:	300b           	move.w a3,d0
    28ea:	6d14           	blt.s 2900 _COLOR+0x54
    28ec:	2c79 0000 0004 	movea.l 4 _start+0x4,a6
			28ee: RELOC32	.bss
    28f2:	3005           	move.w d5,d0
    28f4:	48c0           	ext.l d0
    28f6:	2279 0000 000a 	movea.l a ___mulsi4+0x4,a1
			28f8: RELOC32	.bss
    28fc:	4eae feaa      	jsr -342(a6)
    2900:	300a           	move.w a2,d0
    2902:	6d14           	blt.s 2918 _COLOR+0x6c
    2904:	2c79 0000 0004 	movea.l 4 _start+0x4,a6
			2906: RELOC32	.bss
    290a:	3004           	move.w d4,d0
    290c:	48c0           	ext.l d0
    290e:	2279 0000 000a 	movea.l a ___mulsi4+0x4,a1
			2910: RELOC32	.bss
    2914:	4eae fea4      	jsr -348(a6)
    2918:	4a47           	tst.w d7
    291a:	6d0a           	blt.s 2926 _COLOR+0x7a
    291c:	2079 0000 000a 	movea.l a ___mulsi4+0x4,a0
			291e: RELOC32	.bss
    2922:	1143 001b      	move.b d3,27(a0)
    2926:	4a46           	tst.w d6
    2928:	6d14           	blt.s 293e _COLOR+0x92
    292a:	2c79 0000 0004 	movea.l 4 _start+0x4,a6
			292c: RELOC32	.bss
    2930:	3002           	move.w d2,d0
    2932:	48c0           	ext.l d0
    2934:	2279 0000 000a 	movea.l a ___mulsi4+0x4,a1
			2936: RELOC32	.bss
    293a:	4eae fe9e      	jsr -354(a6)
    293e:	4ced 4cfc ffdc 	movem.l -36(a5),d2-d7/a2-a3/a6
    2944:	4e5d           	unlk a5
    2946:	4e75           	rts
    2948:	4eb9 0000 0aba 	jsr aba ___handle_break
			294a: RELOC32	.text
    294e:	7001           	moveq #1,d0
    2950:	b0b9 0000 01a0 	cmp.l 1a0 ___pow_s1+0x2,d0
			2952: RELOC32	.bss
    2956:	6586           	bcs.s 28de _COLOR+0x32
    2958:	42a7           	clr.l -(sp)
    295a:	4878 140f      	pea 140f __s2toa_+0x3
    295e:	4878 ffff      	pea ffffffff __awindow_init+0xffffc149
    2962:	4878 ffff      	pea ffffffff __awindow_init+0xffffc149
    2966:	42a7           	clr.l -(sp)
    2968:	4878 ffff      	pea ffffffff __awindow_init+0xffffc149
    296c:	4878 ffff      	pea ffffffff __awindow_init+0xffffc149
    2970:	42a7           	clr.l -(sp)
    2972:	487a d818      	pea 18c __debug_puts1(pc)
    2976:	4878 0001      	pea 1 _start+0x1
    297a:	4eba d81c      	jsr 198 _WINDOW(pc)
    297e:	4fef 0028      	lea 40(sp),sp
    2982:	4ab9 0000 000a 	tst.l a ___mulsi4+0x4
			2984: RELOC32	.bss
    2988:	6600 ff5e      	bne.w 28e8 _COLOR+0x3c
    298c:	4878 007a      	pea 7a __atimer_process_signals+0x2
    2990:	4eb9 0000 011e 	jsr 11e _ERROR
			2992: RELOC32	.text
    2996:	6000 ff50      	bra.w 28e8 _COLOR+0x3c

0000299a _PAINT:
    299a:	4e55 0000      	link.w a5,#0
    299e:	48e7 3f3a      	movem.l d2-d7/a2-a4/a6,-(sp)
    29a2:	266d 0014      	movea.l 20(a5),a3
    29a6:	242d 0018      	move.l 24(a5),d2
    29aa:	362d 000a      	move.w 10(a5),d3
    29ae:	346d 000e      	movea.w 14(a5),a2
    29b2:	3e2d 0012      	move.w 18(a5),d7
    29b6:	3c0b           	move.w a3,d6
    29b8:	3802           	move.w d2,d4
    29ba:	4a79 0000 001e 	tst.w 1e __atimer_shutdown+0x2
			29bc: RELOC32	.bss
    29c0:	6600 0096      	bne.w 2a58 _PAINT+0xbe
    29c4:	7001           	moveq #1,d0
    29c6:	b0b9 0000 01a0 	cmp.l 1a0 ___pow_s1+0x2,d0
			29c8: RELOC32	.bss
    29cc:	6400 009c      	bcc.w 2a6a _PAINT+0xd0
    29d0:	2279 0000 000a 	movea.l a ___mulsi4+0x4,a1
			29d2: RELOC32	.bss
    29d6:	2009           	move.l a1,d0
    29d8:	6700 0136      	beq.w 2b10 _PAINT+0x176
    29dc:	4aa9 000c      	tst.l 12(a1)
    29e0:	6700 00c0      	beq.w 2aa2 _PAINT+0x108
    29e4:	4a43           	tst.w d3
    29e6:	6708           	beq.s 29f0 _PAINT+0x56
    29e8:	d4e9 0024      	adda.w 36(a1),a2
    29ec:	de69 0026      	add.w 38(a1),d7
    29f0:	1629 0019      	move.b 25(a1),d3
    29f4:	1a29 001b      	move.b 27(a1),d5
    29f8:	4a46           	tst.w d6
    29fa:	6d14           	blt.s 2a10 _PAINT+0x76
    29fc:	300b           	move.w a3,d0
    29fe:	48c0           	ext.l d0
    2a00:	2c79 0000 0004 	movea.l 4 _start+0x4,a6
			2a02: RELOC32	.bss
    2a06:	4eae feaa      	jsr -342(a6)
    2a0a:	2279 0000 000a 	movea.l a ___mulsi4+0x4,a1
			2a0c: RELOC32	.bss
    2a10:	4a44           	tst.w d4
    2a12:	6d04           	blt.s 2a18 _PAINT+0x7e
    2a14:	1342 001b      	move.b d2,27(a1)
    2a18:	2c79 0000 0004 	movea.l 4 _start+0x4,a6
			2a1a: RELOC32	.bss
    2a1e:	7400           	moveq #0,d2
    2a20:	300a           	move.w a2,d0
    2a22:	48c0           	ext.l d0
    2a24:	3207           	move.w d7,d1
    2a26:	48c1           	ext.l d1
    2a28:	4eae feb6      	jsr -330(a6)
    2a2c:	4a46           	tst.w d6
    2a2e:	6d10           	blt.s 2a40 _PAINT+0xa6
    2a30:	4883           	ext.w d3
    2a32:	3003           	move.w d3,d0
    2a34:	48c0           	ext.l d0
    2a36:	2279 0000 000a 	movea.l a ___mulsi4+0x4,a1
			2a38: RELOC32	.bss
    2a3c:	4eae feaa      	jsr -342(a6)
    2a40:	4a44           	tst.w d4
    2a42:	6d0a           	blt.s 2a4e _PAINT+0xb4
    2a44:	2079 0000 000a 	movea.l a ___mulsi4+0x4,a0
			2a46: RELOC32	.bss
    2a4a:	1145 001b      	move.b d5,27(a0)
    2a4e:	4ced 5cfc ffd8 	movem.l -40(a5),d2-d7/a2-a4/a6
    2a54:	4e5d           	unlk a5
    2a56:	4e75           	rts
    2a58:	4eb9 0000 0aba 	jsr aba ___handle_break
			2a5a: RELOC32	.text
    2a5e:	7001           	moveq #1,d0
    2a60:	b0b9 0000 01a0 	cmp.l 1a0 ___pow_s1+0x2,d0
			2a62: RELOC32	.bss
    2a66:	6500 ff68      	bcs.w 29d0 _PAINT+0x36
    2a6a:	42a7           	clr.l -(sp)
    2a6c:	4878 140f      	pea 140f __s2toa_+0x3
    2a70:	4878 ffff      	pea ffffffff __awindow_init+0xffffc149
    2a74:	4878 ffff      	pea ffffffff __awindow_init+0xffffc149
    2a78:	42a7           	clr.l -(sp)
    2a7a:	4878 ffff      	pea ffffffff __awindow_init+0xffffc149
    2a7e:	4878 ffff      	pea ffffffff __awindow_init+0xffffc149
    2a82:	42a7           	clr.l -(sp)
    2a84:	487a d706      	pea 18c __debug_puts1(pc)
    2a88:	4878 0001      	pea 1 _start+0x1
    2a8c:	4eba d70a      	jsr 198 _WINDOW(pc)
    2a90:	2279 0000 000a 	movea.l a ___mulsi4+0x4,a1
			2a92: RELOC32	.bss
    2a96:	4fef 0028      	lea 40(sp),sp
    2a9a:	2009           	move.l a1,d0
    2a9c:	6600 ff3e      	bne.w 29dc _PAINT+0x42
    2aa0:	606e           	bra.s 2b10 _PAINT+0x176
    2aa2:	2c79 0000 0000 	movea.l 0 _start,a6
			2aa4: RELOC32	.bss
    2aa8:	7008           	moveq #8,d0
    2aaa:	7201           	moveq #1,d1
    2aac:	4841           	swap d1
    2aae:	4eae fd54      	jsr -684(a6)
    2ab2:	2a00           	move.l d0,d5
    2ab4:	6778           	beq.s 2b2e _PAINT+0x194
    2ab6:	2279 0000 0006 	movea.l 6 ___mulsi4,a1
			2ab8: RELOC32	.bss
    2abc:	700f           	moveq #15,d0
    2abe:	3069 0008      	movea.w 8(a1),a0
    2ac2:	d088           	add.l a0,d0
    2ac4:	3269 000a      	movea.w 10(a1),a1
    2ac8:	e688           	lsr.l #3,d0
    2aca:	2f09           	move.l a1,-(sp)
    2acc:	0280 0000 fffe 	andi.l #65534,d0
    2ad2:	2f00           	move.l d0,-(sp)
    2ad4:	4eb9 0000 0000 	jsr 0 _start
			2ad6: RELOC32	.text
    2ada:	508f           	addq.l #8,sp
    2adc:	2840           	movea.l d0,a4
    2ade:	223c 0001 0002 	move.l #65538,d1
    2ae4:	2c79 0000 0000 	movea.l 0 _start,a6
			2ae6: RELOC32	.bss
    2aea:	4eae fd54      	jsr -684(a6)
    2aee:	4a80           	tst.l d0
    2af0:	673c           	beq.s 2b2e _PAINT+0x194
    2af2:	2c79 0000 0004 	movea.l 4 _start+0x4,a6
			2af4: RELOC32	.bss
    2af8:	2045           	movea.l d5,a0
    2afa:	2240           	movea.l d0,a1
    2afc:	200c           	move.l a4,d0
    2afe:	4eae fe2c      	jsr -468(a6)
    2b02:	2279 0000 000a 	movea.l a ___mulsi4+0x4,a1
			2b04: RELOC32	.bss
    2b08:	2345 000c      	move.l d5,12(a1)
    2b0c:	6000 fed6      	bra.w 29e4 _PAINT+0x4a
    2b10:	4878 007a      	pea 7a __atimer_process_signals+0x2
    2b14:	4eb9 0000 011e 	jsr 11e _ERROR
			2b16: RELOC32	.text
    2b1a:	2279 0000 000a 	movea.l a ___mulsi4+0x4,a1
			2b1c: RELOC32	.bss
    2b20:	588f           	addq.l #4,sp
    2b22:	4aa9 000c      	tst.l 12(a1)
    2b26:	6600 febc      	bne.w 29e4 _PAINT+0x4a
    2b2a:	6000 ff76      	bra.w 2aa2 _PAINT+0x108
    2b2e:	4878 006e      	pea 6e __aqb_read4
    2b32:	4eb9 0000 011e 	jsr 11e _ERROR
			2b34: RELOC32	.text
    2b38:	2279 0000 000a 	movea.l a ___mulsi4+0x4,a1
			2b3a: RELOC32	.bss
    2b3e:	6000 fea4      	bra.w 29e4 _PAINT+0x4a

00002b42 _AREA:
    2b42:	4e55 0000      	link.w a5,#0
    2b46:	48e7 3832      	movem.l d2-d4/a2-a3/a6,-(sp)
    2b4a:	382d 000a      	move.w 10(a5),d4
    2b4e:	362d 000e      	move.w 14(a5),d3
    2b52:	342d 0012      	move.w 18(a5),d2
    2b56:	4a79 0000 001e 	tst.w 1e __atimer_shutdown+0x2
			2b58: RELOC32	.bss
    2b5c:	6600 0096      	bne.w 2bf4 _AREA+0xb2
    2b60:	7001           	moveq #1,d0
    2b62:	b0b9 0000 01a0 	cmp.l 1a0 ___pow_s1+0x2,d0
			2b64: RELOC32	.bss
    2b68:	6400 009c      	bcc.w 2c06 _AREA+0xc4
    2b6c:	2279 0000 000a 	movea.l a ___mulsi4+0x4,a1
			2b6e: RELOC32	.bss
    2b72:	2009           	move.l a1,d0
    2b74:	6700 0190      	beq.w 2d06 _AREA+0x1c4
    2b78:	2469 0010      	movea.l 16(a1),a2
    2b7c:	200a           	move.l a2,d0
    2b7e:	6700 00c0      	beq.w 2c40 _AREA+0xfe
    2b82:	4aa9 000c      	tst.l 12(a1)
    2b86:	6700 0102      	beq.w 2c8a _AREA+0x148
    2b8a:	4a44           	tst.w d4
    2b8c:	662a           	bne.s 2bb8 _AREA+0x76
    2b8e:	302a 0010      	move.w 16(a2),d0
    2b92:	0c40 0063      	cmpi.w #99,d0
    2b96:	6e32           	bgt.s 2bca _AREA+0x88
    2b98:	2c79 0000 0004 	movea.l 4 _start+0x4,a6
			2b9a: RELOC32	.bss
    2b9e:	4a40           	tst.w d0
    2ba0:	673c           	beq.s 2bde _AREA+0x9c
    2ba2:	3003           	move.w d3,d0
    2ba4:	48c0           	ext.l d0
    2ba6:	3202           	move.w d2,d1
    2ba8:	48c1           	ext.l d1
    2baa:	4eae fefe      	jsr -258(a6)
    2bae:	4ced 4c1c ffe8 	movem.l -24(a5),d2-d4/a2-a3/a6
    2bb4:	4e5d           	unlk a5
    2bb6:	4e75           	rts
    2bb8:	d669 0024      	add.w 36(a1),d3
    2bbc:	d469 0026      	add.w 38(a1),d2
    2bc0:	302a 0010      	move.w 16(a2),d0
    2bc4:	0c40 0063      	cmpi.w #99,d0
    2bc8:	6fce           	ble.s 2b98 _AREA+0x56
    2bca:	7069           	moveq #105,d0
    2bcc:	2b40 0008      	move.l d0,8(a5)
    2bd0:	4ced 4c1c ffe8 	movem.l -24(a5),d2-d4/a2-a3/a6
    2bd6:	4e5d           	unlk a5
    2bd8:	4ef9 0000 011e 	jmp 11e _ERROR
			2bda: RELOC32	.text
    2bde:	3003           	move.w d3,d0
    2be0:	48c0           	ext.l d0
    2be2:	3202           	move.w d2,d1
    2be4:	48c1           	ext.l d1
    2be6:	4eae ff04      	jsr -252(a6)
    2bea:	4ced 4c1c ffe8 	movem.l -24(a5),d2-d4/a2-a3/a6
    2bf0:	4e5d           	unlk a5
    2bf2:	4e75           	rts
    2bf4:	4eb9 0000 0aba 	jsr aba ___handle_break
			2bf6: RELOC32	.text
    2bfa:	7001           	moveq #1,d0
    2bfc:	b0b9 0000 01a0 	cmp.l 1a0 ___pow_s1+0x2,d0
			2bfe: RELOC32	.bss
    2c02:	6500 ff68      	bcs.w 2b6c _AREA+0x2a
    2c06:	42a7           	clr.l -(sp)
    2c08:	4878 140f      	pea 140f __s2toa_+0x3
    2c0c:	4878 ffff      	pea ffffffff __awindow_init+0xffffc149
    2c10:	4878 ffff      	pea ffffffff __awindow_init+0xffffc149
    2c14:	42a7           	clr.l -(sp)
    2c16:	4878 ffff      	pea ffffffff __awindow_init+0xffffc149
    2c1a:	4878 ffff      	pea ffffffff __awindow_init+0xffffc149
    2c1e:	42a7           	clr.l -(sp)
    2c20:	487a d56a      	pea 18c __debug_puts1(pc)
    2c24:	4878 0001      	pea 1 _start+0x1
    2c28:	4eba d56e      	jsr 198 _WINDOW(pc)
    2c2c:	2279 0000 000a 	movea.l a ___mulsi4+0x4,a1
			2c2e: RELOC32	.bss
    2c32:	4fef 0028      	lea 40(sp),sp
    2c36:	2009           	move.l a1,d0
    2c38:	6600 ff3e      	bne.w 2b78 _AREA+0x36
    2c3c:	6000 00c8      	bra.w 2d06 _AREA+0x1c4
    2c40:	2f0a           	move.l a2,-(sp)
    2c42:	4878 0018      	pea 18 ___DARRAY_T_REDIM
    2c46:	47f9 0000 0000 	lea 0 _start,a3
			2c48: RELOC32	.text
    2c4c:	4e93           	jsr (a3)
    2c4e:	2440           	movea.l d0,a2
    2c50:	508f           	addq.l #8,sp
    2c52:	4a80           	tst.l d0
    2c54:	6700 ff74      	beq.w 2bca _AREA+0x88
    2c58:	42a7           	clr.l -(sp)
    2c5a:	4878 01f4      	pea 1f4 ___DARRAY_T_LBOUND_+0xc
    2c5e:	4e93           	jsr (a3)
    2c60:	508f           	addq.l #8,sp
    2c62:	4a80           	tst.l d0
    2c64:	6700 ff64      	beq.w 2bca _AREA+0x88
    2c68:	2c79 0000 0004 	movea.l 4 _start+0x4,a6
			2c6a: RELOC32	.bss
    2c6e:	204a           	movea.l a2,a0
    2c70:	2240           	movea.l d0,a1
    2c72:	7064           	moveq #100,d0
    2c74:	4eae fee6      	jsr -282(a6)
    2c78:	2279 0000 000a 	movea.l a ___mulsi4+0x4,a1
			2c7a: RELOC32	.bss
    2c7e:	234a 0010      	move.l a2,16(a1)
    2c82:	4aa9 000c      	tst.l 12(a1)
    2c86:	6600 ff02      	bne.w 2b8a _AREA+0x48
    2c8a:	2c79 0000 0000 	movea.l 0 _start,a6
			2c8c: RELOC32	.bss
    2c90:	7008           	moveq #8,d0
    2c92:	7201           	moveq #1,d1
    2c94:	4841           	swap d1
    2c96:	4eae fd54      	jsr -684(a6)
    2c9a:	2440           	movea.l d0,a2
    2c9c:	4a80           	tst.l d0
    2c9e:	6700 0086      	beq.w 2d26 _AREA+0x1e4
    2ca2:	2279 0000 0006 	movea.l 6 ___mulsi4,a1
			2ca4: RELOC32	.bss
    2ca8:	700f           	moveq #15,d0
    2caa:	3069 0008      	movea.w 8(a1),a0
    2cae:	d088           	add.l a0,d0
    2cb0:	3269 000a      	movea.w 10(a1),a1
    2cb4:	e688           	lsr.l #3,d0
    2cb6:	2f09           	move.l a1,-(sp)
    2cb8:	0280 0000 fffe 	andi.l #65534,d0
    2cbe:	2f00           	move.l d0,-(sp)
    2cc0:	4eb9 0000 0000 	jsr 0 _start
			2cc2: RELOC32	.text
    2cc6:	508f           	addq.l #8,sp
    2cc8:	2640           	movea.l d0,a3
    2cca:	223c 0001 0002 	move.l #65538,d1
    2cd0:	2c79 0000 0000 	movea.l 0 _start,a6
			2cd2: RELOC32	.bss
    2cd6:	4eae fd54      	jsr -684(a6)
    2cda:	4a80           	tst.l d0
    2cdc:	6748           	beq.s 2d26 _AREA+0x1e4
    2cde:	2c79 0000 0004 	movea.l 4 _start+0x4,a6
			2ce0: RELOC32	.bss
    2ce4:	204a           	movea.l a2,a0
    2ce6:	2240           	movea.l d0,a1
    2ce8:	200b           	move.l a3,d0
    2cea:	4eae fe2c      	jsr -468(a6)
    2cee:	2279 0000 000a 	movea.l a ___mulsi4+0x4,a1
			2cf0: RELOC32	.bss
    2cf4:	234a 000c      	move.l a2,12(a1)
    2cf8:	2469 0010      	movea.l 16(a1),a2
    2cfc:	4a44           	tst.w d4
    2cfe:	6700 fe8e      	beq.w 2b8e _AREA+0x4c
    2d02:	6000 feb4      	bra.w 2bb8 _AREA+0x76
    2d06:	4878 007a      	pea 7a __atimer_process_signals+0x2
    2d0a:	4eb9 0000 011e 	jsr 11e _ERROR
			2d0c: RELOC32	.text
    2d10:	2279 0000 000a 	movea.l a ___mulsi4+0x4,a1
			2d12: RELOC32	.bss
    2d16:	2469 0010      	movea.l 16(a1),a2
    2d1a:	588f           	addq.l #4,sp
    2d1c:	200a           	move.l a2,d0
    2d1e:	6600 fe62      	bne.w 2b82 _AREA+0x40
    2d22:	6000 ff1c      	bra.w 2c40 _AREA+0xfe
    2d26:	4878 006e      	pea 6e __aqb_read4
    2d2a:	4eb9 0000 011e 	jsr 11e _ERROR
			2d2c: RELOC32	.text
    2d30:	2279 0000 000a 	movea.l a ___mulsi4+0x4,a1
			2d32: RELOC32	.bss
    2d36:	2469 0010      	movea.l 16(a1),a2
    2d3a:	4a44           	tst.w d4
    2d3c:	6700 fe50      	beq.w 2b8e _AREA+0x4c
    2d40:	6000 fe76      	bra.w 2bb8 _AREA+0x76

00002d44 _AREAFILL:
    2d44:	4e55 0000      	link.w a5,#0
    2d48:	48e7 3002      	movem.l d2-d3/a6,-(sp)
    2d4c:	362d 000a      	move.w 10(a5),d3
    2d50:	4a79 0000 001e 	tst.w 1e __atimer_shutdown+0x2
			2d52: RELOC32	.bss
    2d56:	6650           	bne.s 2da8 _AREAFILL+0x64
    2d58:	7001           	moveq #1,d0
    2d5a:	b0b9 0000 01a0 	cmp.l 1a0 ___pow_s1+0x2,d0
			2d5c: RELOC32	.bss
    2d60:	6456           	bcc.s 2db8 _AREAFILL+0x74
    2d62:	2279 0000 000a 	movea.l a ___mulsi4+0x4,a1
			2d64: RELOC32	.bss
    2d68:	2009           	move.l a1,d0
    2d6a:	6700 00ac      	beq.w 2e18 _AREAFILL+0xd4
    2d6e:	1429 001c      	move.b 28(a1),d2
    2d72:	2c79 0000 0004 	movea.l 4 _start+0x4,a6
			2d74: RELOC32	.bss
    2d78:	0c43 0001      	cmpi.w #1,d3
    2d7c:	6770           	beq.s 2dee _AREAFILL+0xaa
    2d7e:	7001           	moveq #1,d0
    2d80:	4eae fe9e      	jsr -354(a6)
    2d84:	2279 0000 000a 	movea.l a ___mulsi4+0x4,a1
			2d86: RELOC32	.bss
    2d8a:	4eae fef8      	jsr -264(a6)
    2d8e:	4882           	ext.w d2
    2d90:	3002           	move.w d2,d0
    2d92:	48c0           	ext.l d0
    2d94:	2279 0000 000a 	movea.l a ___mulsi4+0x4,a1
			2d96: RELOC32	.bss
    2d9a:	4eae fe9e      	jsr -354(a6)
    2d9e:	4ced 400c fff4 	movem.l -12(a5),d2-d3/a6
    2da4:	4e5d           	unlk a5
    2da6:	4e75           	rts
    2da8:	4eb9 0000 0aba 	jsr aba ___handle_break
			2daa: RELOC32	.text
    2dae:	7001           	moveq #1,d0
    2db0:	b0b9 0000 01a0 	cmp.l 1a0 ___pow_s1+0x2,d0
			2db2: RELOC32	.bss
    2db6:	65aa           	bcs.s 2d62 _AREAFILL+0x1e
    2db8:	42a7           	clr.l -(sp)
    2dba:	4878 140f      	pea 140f __s2toa_+0x3
    2dbe:	4878 ffff      	pea ffffffff __awindow_init+0xffffc149
    2dc2:	4878 ffff      	pea ffffffff __awindow_init+0xffffc149
    2dc6:	42a7           	clr.l -(sp)
    2dc8:	4878 ffff      	pea ffffffff __awindow_init+0xffffc149
    2dcc:	4878 ffff      	pea ffffffff __awindow_init+0xffffc149
    2dd0:	42a7           	clr.l -(sp)
    2dd2:	487a d3b8      	pea 18c __debug_puts1(pc)
    2dd6:	4878 0001      	pea 1 _start+0x1
    2dda:	4eba d3bc      	jsr 198 _WINDOW(pc)
    2dde:	2279 0000 000a 	movea.l a ___mulsi4+0x4,a1
			2de0: RELOC32	.bss
    2de4:	4fef 0028      	lea 40(sp),sp
    2de8:	2009           	move.l a1,d0
    2dea:	6682           	bne.s 2d6e _AREAFILL+0x2a
    2dec:	602a           	bra.s 2e18 _AREAFILL+0xd4
    2dee:	7002           	moveq #2,d0
    2df0:	4eae fe9e      	jsr -354(a6)
    2df4:	2279 0000 000a 	movea.l a ___mulsi4+0x4,a1
			2df6: RELOC32	.bss
    2dfa:	4eae fef8      	jsr -264(a6)
    2dfe:	4882           	ext.w d2
    2e00:	3002           	move.w d2,d0
    2e02:	48c0           	ext.l d0
    2e04:	2279 0000 000a 	movea.l a ___mulsi4+0x4,a1
			2e06: RELOC32	.bss
    2e0a:	4eae fe9e      	jsr -354(a6)
    2e0e:	4ced 400c fff4 	movem.l -12(a5),d2-d3/a6
    2e14:	4e5d           	unlk a5
    2e16:	4e75           	rts
    2e18:	4878 007a      	pea 7a __atimer_process_signals+0x2
    2e1c:	4eb9 0000 011e 	jsr 11e _ERROR
			2e1e: RELOC32	.text
    2e22:	2279 0000 000a 	movea.l a ___mulsi4+0x4,a1
			2e24: RELOC32	.bss
    2e28:	6000 ff44      	bra.w 2d6e _AREAFILL+0x2a

00002e2c _AREA_OUTLINE:
    2e2c:	4e55 0000      	link.w a5,#0
    2e30:	2f02           	move.l d2,-(sp)
    2e32:	342d 000a      	move.w 10(a5),d2
    2e36:	4a79 0000 001e 	tst.w 1e __atimer_shutdown+0x2
			2e38: RELOC32	.bss
    2e3c:	6626           	bne.s 2e64 _AREA_OUTLINE+0x38
    2e3e:	7001           	moveq #1,d0
    2e40:	b0b9 0000 01a0 	cmp.l 1a0 ___pow_s1+0x2,d0
			2e42: RELOC32	.bss
    2e46:	643c           	bcc.s 2e84 _AREA_OUTLINE+0x58
    2e48:	2079 0000 000a 	movea.l a ___mulsi4+0x4,a0
			2e4a: RELOC32	.bss
    2e4e:	2008           	move.l a0,d0
    2e50:	6766           	beq.s 2eb8 _AREA_OUTLINE+0x8c
    2e52:	4a42           	tst.w d2
    2e54:	6620           	bne.s 2e76 _AREA_OUTLINE+0x4a
    2e56:	0268 fff7 0020 	andi.w #-9,32(a0)
    2e5c:	242d fffc      	move.l -4(a5),d2
    2e60:	4e5d           	unlk a5
    2e62:	4e75           	rts
    2e64:	4eb9 0000 0aba 	jsr aba ___handle_break
			2e66: RELOC32	.text
    2e6a:	7001           	moveq #1,d0
    2e6c:	b0b9 0000 01a0 	cmp.l 1a0 ___pow_s1+0x2,d0
			2e6e: RELOC32	.bss
    2e72:	65d4           	bcs.s 2e48 _AREA_OUTLINE+0x1c
    2e74:	600e           	bra.s 2e84 _AREA_OUTLINE+0x58
    2e76:	0068 0008 0020 	ori.w #8,32(a0)
    2e7c:	242d fffc      	move.l -4(a5),d2
    2e80:	4e5d           	unlk a5
    2e82:	4e75           	rts
    2e84:	42a7           	clr.l -(sp)
    2e86:	4878 140f      	pea 140f __s2toa_+0x3
    2e8a:	4878 ffff      	pea ffffffff __awindow_init+0xffffc149
    2e8e:	4878 ffff      	pea ffffffff __awindow_init+0xffffc149
    2e92:	42a7           	clr.l -(sp)
    2e94:	4878 ffff      	pea ffffffff __awindow_init+0xffffc149
    2e98:	4878 ffff      	pea ffffffff __awindow_init+0xffffc149
    2e9c:	42a7           	clr.l -(sp)
    2e9e:	487a d2ec      	pea 18c __debug_puts1(pc)
    2ea2:	4878 0001      	pea 1 _start+0x1
    2ea6:	4eba d2f0      	jsr 198 _WINDOW(pc)
    2eaa:	2079 0000 000a 	movea.l a ___mulsi4+0x4,a0
			2eac: RELOC32	.bss
    2eb0:	4fef 0028      	lea 40(sp),sp
    2eb4:	2008           	move.l a0,d0
    2eb6:	669a           	bne.s 2e52 _AREA_OUTLINE+0x26
    2eb8:	4878 007a      	pea 7a __atimer_process_signals+0x2
    2ebc:	4eb9 0000 011e 	jsr 11e _ERROR
			2ebe: RELOC32	.text
    2ec2:	2079 0000 000a 	movea.l a ___mulsi4+0x4,a0
			2ec4: RELOC32	.bss
    2ec8:	6088           	bra.s 2e52 _AREA_OUTLINE+0x26

00002eca _PATTERN:
    2eca:	4e55 0000      	link.w a5,#0
    2ece:	2f0a           	move.l a2,-(sp)
    2ed0:	2f02           	move.l d2,-(sp)
    2ed2:	242d 0008      	move.l 8(a5),d2
    2ed6:	246d 000c      	movea.l 12(a5),a2
    2eda:	4a79 0000 001e 	tst.w 1e __atimer_shutdown+0x2
			2edc: RELOC32	.bss
    2ee0:	665e           	bne.s 2f40 _PATTERN+0x76
    2ee2:	7001           	moveq #1,d0
    2ee4:	b0b9 0000 01a0 	cmp.l 1a0 ___pow_s1+0x2,d0
			2ee6: RELOC32	.bss
    2eea:	647c           	bcc.s 2f68 _PATTERN+0x9e
    2eec:	2079 0000 000a 	movea.l a ___mulsi4+0x4,a0
			2eee: RELOC32	.bss
    2ef2:	2008           	move.l a0,d0
    2ef4:	6700 00b6      	beq.w 2fac _PATTERN+0xe2
    2ef8:	3142 0022      	move.w d2,34(a0)
    2efc:	0068 0001 0020 	ori.w #1,32(a0)
    2f02:	117c 000f 001e 	move.b #15,30(a0)
    2f08:	200a           	move.l a2,d0
    2f0a:	6728           	beq.s 2f34 _PATTERN+0x6a
    2f0c:	0c6a 0001 0004 	cmpi.w #1,4(a2)
    2f12:	663e           	bne.s 2f52 _PATTERN+0x88
    2f14:	7001           	moveq #1,d0
    2f16:	226a 000e      	movea.l 14(a2),a1
    2f1a:	d0a9 0004      	add.l 4(a1),d0
    2f1e:	9091           	sub.l (a1),d0
    2f20:	e288           	lsr.l #1,d0
    2f22:	677c           	beq.s 2fa0 _PATTERN+0xd6
    2f24:	7200           	moveq #0,d1
    2f26:	5281           	addq.l #1,d1
    2f28:	e288           	lsr.l #1,d0
    2f2a:	66fa           	bne.s 2f26 _PATTERN+0x5c
    2f2c:	2152 0008      	move.l (a2),8(a0)
    2f30:	1141 001d      	move.b d1,29(a0)
    2f34:	242d fff8      	move.l -8(a5),d2
    2f38:	246d fffc      	movea.l -4(a5),a2
    2f3c:	4e5d           	unlk a5
    2f3e:	4e75           	rts
    2f40:	4eb9 0000 0aba 	jsr aba ___handle_break
			2f42: RELOC32	.text
    2f46:	7001           	moveq #1,d0
    2f48:	b0b9 0000 01a0 	cmp.l 1a0 ___pow_s1+0x2,d0
			2f4a: RELOC32	.bss
    2f4e:	659c           	bcs.s 2eec _PATTERN+0x22
    2f50:	6016           	bra.s 2f68 _PATTERN+0x9e
    2f52:	706a           	moveq #106,d0
    2f54:	2b40 0008      	move.l d0,8(a5)
    2f58:	242d fff8      	move.l -8(a5),d2
    2f5c:	246d fffc      	movea.l -4(a5),a2
    2f60:	4e5d           	unlk a5
    2f62:	4ef9 0000 011e 	jmp 11e _ERROR
			2f64: RELOC32	.text
    2f68:	42a7           	clr.l -(sp)
    2f6a:	4878 140f      	pea 140f __s2toa_+0x3
    2f6e:	4878 ffff      	pea ffffffff __awindow_init+0xffffc149
    2f72:	4878 ffff      	pea ffffffff __awindow_init+0xffffc149
    2f76:	42a7           	clr.l -(sp)
    2f78:	4878 ffff      	pea ffffffff __awindow_init+0xffffc149
    2f7c:	4878 ffff      	pea ffffffff __awindow_init+0xffffc149
    2f80:	42a7           	clr.l -(sp)
    2f82:	487a d208      	pea 18c __debug_puts1(pc)
    2f86:	4878 0001      	pea 1 _start+0x1
    2f8a:	4eba d20c      	jsr 198 _WINDOW(pc)
    2f8e:	2079 0000 000a 	movea.l a ___mulsi4+0x4,a0
			2f90: RELOC32	.bss
    2f94:	4fef 0028      	lea 40(sp),sp
    2f98:	2008           	move.l a0,d0
    2f9a:	6600 ff5c      	bne.w 2ef8 _PATTERN+0x2e
    2f9e:	600c           	bra.s 2fac _PATTERN+0xe2
    2fa0:	1200           	move.b d0,d1
    2fa2:	2152 0008      	move.l (a2),8(a0)
    2fa6:	1141 001d      	move.b d1,29(a0)
    2faa:	6088           	bra.s 2f34 _PATTERN+0x6a
    2fac:	4878 007a      	pea 7a __atimer_process_signals+0x2
    2fb0:	4eb9 0000 011e 	jsr 11e _ERROR
			2fb2: RELOC32	.text
    2fb6:	2079 0000 000a 	movea.l a ___mulsi4+0x4,a0
			2fb8: RELOC32	.bss
    2fbc:	6000 ff3a      	bra.w 2ef8 _PATTERN+0x2e

00002fc0 _PATTERN_RESTORE:
    2fc0:	4e55 0000      	link.w a5,#0
    2fc4:	4a79 0000 001e 	tst.w 1e __atimer_shutdown+0x2
			2fc6: RELOC32	.bss
    2fca:	6632           	bne.s 2ffe _PATTERN_RESTORE+0x3e
    2fcc:	7001           	moveq #1,d0
    2fce:	b0b9 0000 01a0 	cmp.l 1a0 ___pow_s1+0x2,d0
			2fd0: RELOC32	.bss
    2fd4:	6438           	bcc.s 300e _PATTERN_RESTORE+0x4e
    2fd6:	2079 0000 000a 	movea.l a ___mulsi4+0x4,a0
			2fd8: RELOC32	.bss
    2fdc:	2008           	move.l a0,d0
    2fde:	6762           	beq.s 3042 _PATTERN_RESTORE+0x82
    2fe0:	317c ffff 0022 	move.w #-1,34(a0)
    2fe6:	0068 0001 0020 	ori.w #1,32(a0)
    2fec:	117c 000f 001e 	move.b #15,30(a0)
    2ff2:	42a8 0008      	clr.l 8(a0)
    2ff6:	4228 001d      	clr.b 29(a0)
    2ffa:	4e5d           	unlk a5
    2ffc:	4e75           	rts
    2ffe:	4eb9 0000 0aba 	jsr aba ___handle_break
			3000: RELOC32	.text
    3004:	7001           	moveq #1,d0
    3006:	b0b9 0000 01a0 	cmp.l 1a0 ___pow_s1+0x2,d0
			3008: RELOC32	.bss
    300c:	65c8           	bcs.s 2fd6 _PATTERN_RESTORE+0x16
    300e:	42a7           	clr.l -(sp)
    3010:	4878 140f      	pea 140f __s2toa_+0x3
    3014:	4878 ffff      	pea ffffffff __awindow_init+0xffffc149
    3018:	4878 ffff      	pea ffffffff __awindow_init+0xffffc149
    301c:	42a7           	clr.l -(sp)
    301e:	4878 ffff      	pea ffffffff __awindow_init+0xffffc149
    3022:	4878 ffff      	pea ffffffff __awindow_init+0xffffc149
    3026:	42a7           	clr.l -(sp)
    3028:	487a d162      	pea 18c __debug_puts1(pc)
    302c:	4878 0001      	pea 1 _start+0x1
    3030:	4eba d166      	jsr 198 _WINDOW(pc)
    3034:	2079 0000 000a 	movea.l a ___mulsi4+0x4,a0
			3036: RELOC32	.bss
    303a:	4fef 0028      	lea 40(sp),sp
    303e:	2008           	move.l a0,d0
    3040:	669e           	bne.s 2fe0 _PATTERN_RESTORE+0x20
    3042:	4878 007a      	pea 7a __atimer_process_signals+0x2
    3046:	4eb9 0000 011e 	jsr 11e _ERROR
			3048: RELOC32	.text
    304c:	2079 0000 000a 	movea.l a ___mulsi4+0x4,a0
			304e: RELOC32	.bss
    3052:	317c ffff 0022 	move.w #-1,34(a0)
    3058:	0068 0001 0020 	ori.w #1,32(a0)
    305e:	117c 000f 001e 	move.b #15,30(a0)
    3064:	42a8 0008      	clr.l 8(a0)
    3068:	4228 001d      	clr.b 29(a0)
    306c:	4e5d           	unlk a5
    306e:	4e75           	rts

00003070 _BITMAP_FREE:
    3070:	4e55 0000      	link.w a5,#0
    3074:	48e7 2032      	movem.l d2/a2-a3/a6,-(sp)
    3078:	246d 0008      	movea.l 8(a5),a2
    307c:	2052           	movea.l (a2),a0
    307e:	2008           	move.l a0,d0
    3080:	6700 00aa      	beq.w 312c _BITMAP_FREE+0xbc
    3084:	216a 0004 0004 	move.l 4(a2),4(a0)
    308a:	226a 0004      	movea.l 4(a2),a1
    308e:	2009           	move.l a1,d0
    3090:	6700 0090      	beq.w 3122 _BITMAP_FREE+0xb2
    3094:	2288           	move.l a0,(a1)
    3096:	226a 000e      	movea.l 14(a2),a1
    309a:	2009           	move.l a1,d0
    309c:	670e           	beq.s 30ac _BITMAP_FREE+0x3c
    309e:	2c79 0000 0000 	movea.l 0 _start,a6
			30a0: RELOC32	.bss
    30a4:	4eae fd4e      	jsr -690(a6)
    30a8:	42aa 000e      	clr.l 14(a2)
    30ac:	4a6a 000c      	tst.w 12(a2)
    30b0:	6650           	bne.s 3102 _BITMAP_FREE+0x92
    30b2:	4a2a 0017      	tst.b 23(a2)
    30b6:	6736           	beq.s 30ee _BITMAP_FREE+0x7e
    30b8:	91c8           	suba.l a0,a0
    30ba:	3408           	move.w a0,d2
    30bc:	2008           	move.l a0,d0
    30be:	5480           	addq.l #2,d0
    30c0:	e588           	lsl.l #2,d0
    30c2:	47f2 0812      	lea (18,a2,d0.l),a3
    30c6:	2c79 0000 0004 	movea.l 4 _start+0x4,a6
			30c8: RELOC32	.bss
    30cc:	302a 0008      	move.w 8(a2),d0
    30d0:	2053           	movea.l (a3),a0
    30d2:	48c0           	ext.l d0
    30d4:	322a 000a      	move.w 10(a2),d1
    30d8:	48c1           	ext.l d1
    30da:	4eae fe0e      	jsr -498(a6)
    30de:	4293           	clr.l (a3)
    30e0:	5242           	addq.w #1,d2
    30e2:	3042           	movea.w d2,a0
    30e4:	7000           	moveq #0,d0
    30e6:	102a 0017      	move.b 23(a2),d0
    30ea:	b088           	cmp.l a0,d0
    30ec:	6ece           	bgt.s 30bc _BITMAP_FREE+0x4c
    30ee:	224a           	movea.l a2,a1
    30f0:	2c79 0000 0000 	movea.l 0 _start,a6
			30f2: RELOC32	.bss
    30f6:	4eae fd4e      	jsr -690(a6)
    30fa:	4cdf 4c04      	movem.l (sp)+,d2/a2-a3/a6
    30fe:	4e5d           	unlk a5
    3100:	4e75           	rts
    3102:	226a 001a      	movea.l 26(a2),a1
    3106:	2c79 0000 0000 	movea.l 0 _start,a6
			3108: RELOC32	.bss
    310c:	4eae fd4e      	jsr -690(a6)
    3110:	42aa 001a      	clr.l 26(a2)
    3114:	224a           	movea.l a2,a1
    3116:	4eae fd4e      	jsr -690(a6)
    311a:	4cdf 4c04      	movem.l (sp)+,d2/a2-a3/a6
    311e:	4e5d           	unlk a5
    3120:	4e75           	rts
    3122:	23c8 0000 018c 	move.l a0,18c __debug_puts1
			3124: RELOC32	.bss
    3128:	6000 ff6c      	bra.w 3096 _BITMAP_FREE+0x26
    312c:	226a 0004      	movea.l 4(a2),a1
    3130:	23c9 0000 0188 	move.l a1,188 ___pow_u2+0x16
			3132: RELOC32	.bss
    3136:	6000 ff56      	bra.w 308e _BITMAP_FREE+0x1e

0000313a _BITMAP_:
    313a:	4e55 0000      	link.w a5,#0
    313e:	48e7 3e3a      	movem.l d2-d6/a2-a4/a6,-(sp)
    3142:	286d 0008      	movea.l 8(a5),a4
    3146:	242d 000c      	move.l 12(a5),d2
    314a:	282d 0010      	move.l 16(a5),d4
    314e:	266d 0014      	movea.l 20(a5),a3
    3152:	3604           	move.w d4,d3
    3154:	3a0b           	move.w a3,d5
    3156:	2c79 0000 0000 	movea.l 0 _start,a6
			3158: RELOC32	.bss
    315c:	7061           	moveq #97,d0
    315e:	4600           	not.b d0
    3160:	7201           	moveq #1,d1
    3162:	4841           	swap d1
    3164:	4eae fd54      	jsr -684(a6)
    3168:	2440           	movea.l d0,a2
    316a:	4a80           	tst.l d0
    316c:	6700 01ce      	beq.w 333c _BITMAP_+0x202
    3170:	2079 0000 018c 	movea.l 18c __debug_puts1,a0
			3172: RELOC32	.bss
    3176:	2488           	move.l a0,(a2)
    3178:	2208           	move.l a0,d1
    317a:	6700 01d6      	beq.w 3352 _BITMAP_+0x218
    317e:	2140 0004      	move.l d0,4(a0)
    3182:	23c0 0000 018c 	move.l d0,18c __debug_puts1
			3184: RELOC32	.bss
    3188:	354c 0008      	move.w a4,8(a2)
    318c:	3542 000a      	move.w d2,10(a2)
    3190:	354b 000c      	move.w a3,12(a2)
    3194:	42aa 000e      	clr.l 14(a2)
    3198:	47ea 0012      	lea 18(a2),a3
    319c:	48c4           	ext.l d4
    319e:	3c02           	move.w d2,d6
    31a0:	384c           	movea.w a4,a4
    31a2:	48c6           	ext.l d6
    31a4:	2c79 0000 0004 	movea.l 4 _start+0x4,a6
			31a6: RELOC32	.bss
    31aa:	204b           	movea.l a3,a0
    31ac:	2004           	move.l d4,d0
    31ae:	220c           	move.l a4,d1
    31b0:	2406           	move.l d6,d2
    31b2:	4eae fe7a      	jsr -390(a6)
    31b6:	4a45           	tst.w d5
    31b8:	6600 00d0      	bne.w 328a _BITMAP_+0x150
    31bc:	4a43           	tst.w d3
    31be:	6f00 015e      	ble.w 331e _BITMAP_+0x1e4
    31c2:	200c           	move.l a4,d0
    31c4:	2206           	move.l d6,d1
    31c6:	4eae fe14      	jsr -492(a6)
    31ca:	2540 001a      	move.l d0,26(a2)
    31ce:	6700 016c      	beq.w 333c _BITMAP_+0x202
    31d2:	0c43 0001      	cmpi.w #1,d3
    31d6:	6700 0146      	beq.w 331e _BITMAP_+0x1e4
    31da:	200c           	move.l a4,d0
    31dc:	2206           	move.l d6,d1
    31de:	4eae fe14      	jsr -492(a6)
    31e2:	2540 001e      	move.l d0,30(a2)
    31e6:	6700 0154      	beq.w 333c _BITMAP_+0x202
    31ea:	0c43 0002      	cmpi.w #2,d3
    31ee:	6700 012e      	beq.w 331e _BITMAP_+0x1e4
    31f2:	200c           	move.l a4,d0
    31f4:	2206           	move.l d6,d1
    31f6:	4eae fe14      	jsr -492(a6)
    31fa:	2540 0022      	move.l d0,34(a2)
    31fe:	6700 013c      	beq.w 333c _BITMAP_+0x202
    3202:	0c43 0003      	cmpi.w #3,d3
    3206:	6700 0116      	beq.w 331e _BITMAP_+0x1e4
    320a:	200c           	move.l a4,d0
    320c:	2206           	move.l d6,d1
    320e:	4eae fe14      	jsr -492(a6)
    3212:	2540 0026      	move.l d0,38(a2)
    3216:	6700 0124      	beq.w 333c _BITMAP_+0x202
    321a:	0c43 0004      	cmpi.w #4,d3
    321e:	6700 00fe      	beq.w 331e _BITMAP_+0x1e4
    3222:	200c           	move.l a4,d0
    3224:	2206           	move.l d6,d1
    3226:	4eae fe14      	jsr -492(a6)
    322a:	2540 002a      	move.l d0,42(a2)
    322e:	6700 010c      	beq.w 333c _BITMAP_+0x202
    3232:	0c43 0005      	cmpi.w #5,d3
    3236:	6700 00e6      	beq.w 331e _BITMAP_+0x1e4
    323a:	200c           	move.l a4,d0
    323c:	2206           	move.l d6,d1
    323e:	4eae fe14      	jsr -492(a6)
    3242:	2540 002e      	move.l d0,46(a2)
    3246:	6700 00f4      	beq.w 333c _BITMAP_+0x202
    324a:	0c43 0006      	cmpi.w #6,d3
    324e:	6700 00ce      	beq.w 331e _BITMAP_+0x1e4
    3252:	200c           	move.l a4,d0
    3254:	2206           	move.l d6,d1
    3256:	4eae fe14      	jsr -492(a6)
    325a:	2540 0032      	move.l d0,50(a2)
    325e:	6700 00dc      	beq.w 333c _BITMAP_+0x202
    3262:	0c43 0007      	cmpi.w #7,d3
    3266:	6700 00b6      	beq.w 331e _BITMAP_+0x1e4
    326a:	200c           	move.l a4,d0
    326c:	2206           	move.l d6,d1
    326e:	4eae fe14      	jsr -492(a6)
    3272:	2540 0036      	move.l d0,54(a2)
    3276:	6700 00c4      	beq.w 333c _BITMAP_+0x202
    327a:	0c43 0008      	cmpi.w #8,d3
    327e:	6700 009e      	beq.w 331e _BITMAP_+0x1e4
    3282:	200c           	move.l a4,d0
    3284:	2206           	move.l d6,d1
    3286:	4eae fe14      	jsr -492(a6)
    328a:	700f           	moveq #15,d0
    328c:	d08c           	add.l a4,d0
    328e:	e688           	lsr.l #3,d0
    3290:	49f9 0000 0000 	lea 0 _start,a4
			3292: RELOC32	.text
    3296:	2f06           	move.l d6,-(sp)
    3298:	0280 0000 fffe 	andi.l #65534,d0
    329e:	2f00           	move.l d0,-(sp)
    32a0:	4e94           	jsr (a4)
    32a2:	508f           	addq.l #8,sp
    32a4:	2400           	move.l d0,d2
    32a6:	2f00           	move.l d0,-(sp)
    32a8:	2f04           	move.l d4,-(sp)
    32aa:	4e94           	jsr (a4)
    32ac:	508f           	addq.l #8,sp
    32ae:	223c 0001 0002 	move.l #65538,d1
    32b4:	2c79 0000 0000 	movea.l 0 _start,a6
			32b6: RELOC32	.bss
    32ba:	4eae fd54      	jsr -684(a6)
    32be:	4a80           	tst.l d0
    32c0:	677a           	beq.s 333c _BITMAP_+0x202
    32c2:	4a43           	tst.w d3
    32c4:	6f58           	ble.s 331e _BITMAP_+0x1e4
    32c6:	2540 001a      	move.l d0,26(a2)
    32ca:	d082           	add.l d2,d0
    32cc:	0c43 0001      	cmpi.w #1,d3
    32d0:	674c           	beq.s 331e _BITMAP_+0x1e4
    32d2:	2540 001e      	move.l d0,30(a2)
    32d6:	d082           	add.l d2,d0
    32d8:	0c43 0002      	cmpi.w #2,d3
    32dc:	6740           	beq.s 331e _BITMAP_+0x1e4
    32de:	2540 0022      	move.l d0,34(a2)
    32e2:	d082           	add.l d2,d0
    32e4:	0c43 0003      	cmpi.w #3,d3
    32e8:	6734           	beq.s 331e _BITMAP_+0x1e4
    32ea:	2540 0026      	move.l d0,38(a2)
    32ee:	d082           	add.l d2,d0
    32f0:	0c43 0004      	cmpi.w #4,d3
    32f4:	6728           	beq.s 331e _BITMAP_+0x1e4
    32f6:	2540 002a      	move.l d0,42(a2)
    32fa:	d082           	add.l d2,d0
    32fc:	0c43 0005      	cmpi.w #5,d3
    3300:	671c           	beq.s 331e _BITMAP_+0x1e4
    3302:	2540 002e      	move.l d0,46(a2)
    3306:	d082           	add.l d2,d0
    3308:	0c43 0006      	cmpi.w #6,d3
    330c:	6710           	beq.s 331e _BITMAP_+0x1e4
    330e:	2540 0032      	move.l d0,50(a2)
    3312:	d082           	add.l d2,d0
    3314:	0c43 0007      	cmpi.w #7,d3
    3318:	6704           	beq.s 331e _BITMAP_+0x1e4
    331a:	2540 0036      	move.l d0,54(a2)
    331e:	43ea 003a      	lea 58(a2),a1
    3322:	2c79 0000 0004 	movea.l 4 _start+0x4,a6
			3324: RELOC32	.bss
    3328:	4eae ff3a      	jsr -198(a6)
    332c:	254b 003e      	move.l a3,62(a2)
    3330:	200a           	move.l a2,d0
    3332:	4ced 5c7c ffdc 	movem.l -36(a5),d2-d6/a2-a4/a6
    3338:	4e5d           	unlk a5
    333a:	4e75           	rts
    333c:	4878 0079      	pea 79 __atimer_process_signals+0x1
    3340:	4eb9 0000 011e 	jsr 11e _ERROR
			3342: RELOC32	.text
    3346:	7000           	moveq #0,d0
    3348:	4ced 5c7c ffdc 	movem.l -36(a5),d2-d6/a2-a4/a6
    334e:	4e5d           	unlk a5
    3350:	4e75           	rts
    3352:	23c0 0000 018c 	move.l d0,18c __debug_puts1
			3354: RELOC32	.bss
    3358:	23c0 0000 0188 	move.l d0,188 ___pow_u2+0x16
			335a: RELOC32	.bss
    335e:	354c 0008      	move.w a4,8(a2)
    3362:	3542 000a      	move.w d2,10(a2)
    3366:	354b 000c      	move.w a3,12(a2)
    336a:	42aa 000e      	clr.l 14(a2)
    336e:	47ea 0012      	lea 18(a2),a3
    3372:	48c4           	ext.l d4
    3374:	3c02           	move.w d2,d6
    3376:	384c           	movea.w a4,a4
    3378:	48c6           	ext.l d6
    337a:	2c79 0000 0004 	movea.l 4 _start+0x4,a6
			337c: RELOC32	.bss
    3380:	204b           	movea.l a3,a0
    3382:	2004           	move.l d4,d0
    3384:	220c           	move.l a4,d1
    3386:	2406           	move.l d6,d2
    3388:	4eae fe7a      	jsr -390(a6)
    338c:	4a45           	tst.w d5
    338e:	6600 fefa      	bne.w 328a _BITMAP_+0x150
    3392:	6000 fe28      	bra.w 31bc _BITMAP_+0x82

00003396 _BITMAP_OUTPUT:
    3396:	4e55 0000      	link.w a5,#0
    339a:	202d 0008      	move.l 8(a5),d0
    339e:	671c           	beq.s 33bc _BITMAP_OUTPUT+0x26
    33a0:	23c0 0000 0012 	move.l d0,12 __aqb_read1+0x2
			33a2: RELOC32	.bss
    33a6:	723a           	moveq #58,d1
    33a8:	d280           	add.l d0,d1
    33aa:	23c1 0000 000a 	move.l d1,a ___mulsi4+0x4
			33ac: RELOC32	.bss
    33b0:	7004           	moveq #4,d0
    33b2:	23c0 0000 01a0 	move.l d0,1a0 ___pow_s1+0x2
			33b4: RELOC32	.bss
    33b8:	4e5d           	unlk a5
    33ba:	4e75           	rts
    33bc:	7079           	moveq #121,d0
    33be:	2b40 0008      	move.l d0,8(a5)
    33c2:	4e5d           	unlk a5
    33c4:	4ef9 0000 011e 	jmp 11e _ERROR
			33c6: RELOC32	.text

000033ca _BITMAP_MASK:
    33ca:	4e55 0000      	link.w a5,#0
    33ce:	48e7 3832      	movem.l d2-d4/a2-a3/a6,-(sp)
    33d2:	246d 0008      	movea.l 8(a5),a2
    33d6:	200a           	move.l a2,d0
    33d8:	6700 00b4      	beq.w 348e _BITMAP_MASK+0xc4
    33dc:	700f           	moveq #15,d0
    33de:	306a 0008      	movea.w 8(a2),a0
    33e2:	d088           	add.l a0,d0
    33e4:	e688           	lsr.l #3,d0
    33e6:	306a 000a      	movea.w 10(a2),a0
    33ea:	47f9 0000 0000 	lea 0 _start,a3
			33ec: RELOC32	.text
    33f0:	2f08           	move.l a0,-(sp)
    33f2:	0280 0000 fffe 	andi.l #65534,d0
    33f8:	2f00           	move.l d0,-(sp)
    33fa:	4e93           	jsr (a3)
    33fc:	508f           	addq.l #8,sp
    33fe:	2400           	move.l d0,d2
    3400:	222a 000e      	move.l 14(a2),d1
    3404:	6750           	beq.s 3456 _BITMAP_MASK+0x8c
    3406:	2f02           	move.l d2,-(sp)
    3408:	42a7           	clr.l -(sp)
    340a:	2f01           	move.l d1,-(sp)
    340c:	4eb9 0000 264e 	jsr 264e _MEMSET
			340e: RELOC32	.text
    3412:	4a2a 0017      	tst.b 23(a2)
    3416:	6734           	beq.s 344c _BITMAP_MASK+0x82
    3418:	282a 000e      	move.l 14(a2),d4
    341c:	e28a           	lsr.l #1,d2
    341e:	672c           	beq.s 344c _BITMAP_MASK+0x82
    3420:	4243           	clr.w d3
    3422:	7000           	moveq #0,d0
    3424:	3003           	move.w d3,d0
    3426:	5480           	addq.l #2,d0
    3428:	e588           	lsl.l #2,d0
    342a:	2272 0812      	movea.l (18,a2,d0.l),a1
    342e:	2044           	movea.l d4,a0
    3430:	7200           	moveq #0,d1
    3432:	3018           	move.w (a0)+,d0
    3434:	8059           	or.w (a1)+,d0
    3436:	3140 fffe      	move.w d0,-2(a0)
    343a:	5281           	addq.l #1,d1
    343c:	b481           	cmp.l d1,d2
    343e:	62f2           	bhi.s 3432 _BITMAP_MASK+0x68
    3440:	5243           	addq.w #1,d3
    3442:	4240           	clr.w d0
    3444:	102a 0017      	move.b 23(a2),d0
    3448:	b043           	cmp.w d3,d0
    344a:	62d6           	bhi.s 3422 _BITMAP_MASK+0x58
    344c:	4ced 4c1c ffe8 	movem.l -24(a5),d2-d4/a2-a3/a6
    3452:	4e5d           	unlk a5
    3454:	4e75           	rts
    3456:	7202           	moveq #2,d1
    3458:	2c79 0000 0000 	movea.l 0 _start,a6
			345a: RELOC32	.bss
    345e:	4eae fd54      	jsr -684(a6)
    3462:	2600           	move.l d0,d3
    3464:	2540 000e      	move.l d0,14(a2)
    3468:	6724           	beq.s 348e _BITMAP_MASK+0xc4
    346a:	700f           	moveq #15,d0
    346c:	306a 0008      	movea.w 8(a2),a0
    3470:	d088           	add.l a0,d0
    3472:	306a 000a      	movea.w 10(a2),a0
    3476:	e688           	lsr.l #3,d0
    3478:	2f08           	move.l a0,-(sp)
    347a:	0280 0000 fffe 	andi.l #65534,d0
    3480:	2f00           	move.l d0,-(sp)
    3482:	4e93           	jsr (a3)
    3484:	508f           	addq.l #8,sp
    3486:	2400           	move.l d0,d2
    3488:	2203           	move.l d3,d1
    348a:	6000 ff7a      	bra.w 3406 _BITMAP_MASK+0x3c
    348e:	7079           	moveq #121,d0
    3490:	2b40 0008      	move.l d0,8(a5)
    3494:	4ced 4c1c ffe8 	movem.l -24(a5),d2-d4/a2-a3/a6
    349a:	4e5d           	unlk a5
    349c:	4ef9 0000 011e 	jmp 11e _ERROR
			349e: RELOC32	.text

000034a2 _GET:
    34a2:	4e55 0000      	link.w a5,#0
    34a6:	48e7 3f22      	movem.l d2-d7/a2/a6,-(sp)
    34aa:	246d 0020      	movea.l 32(a5),a2
    34ae:	3c2d 000a      	move.w 10(a5),d6
    34b2:	3e2d 000e      	move.w 14(a5),d7
    34b6:	342d 0012      	move.w 18(a5),d2
    34ba:	382d 0016      	move.w 22(a5),d4
    34be:	362d 001a      	move.w 26(a5),d3
    34c2:	3a2d 001e      	move.w 30(a5),d5
    34c6:	4a79 0000 001e 	tst.w 1e __atimer_shutdown+0x2
			34c8: RELOC32	.bss
    34cc:	6600 00fe      	bne.w 35cc _GET+0x12a
    34d0:	7001           	moveq #1,d0
    34d2:	b0b9 0000 01a0 	cmp.l 1a0 ___pow_s1+0x2,d0
			34d4: RELOC32	.bss
    34d8:	6400 0126      	bcc.w 3600 _GET+0x15e
    34dc:	4ab9 0000 000a 	tst.l a ___mulsi4+0x4
			34de: RELOC32	.bss
    34e2:	6700 0150      	beq.w 3634 _GET+0x192
    34e6:	4a47           	tst.w d7
    34e8:	6d00 0104      	blt.w 35ee _GET+0x14c
    34ec:	4a42           	tst.w d2
    34ee:	6d00 00f0      	blt.w 35e0 _GET+0x13e
    34f2:	4a46           	tst.w d6
    34f4:	670e           	beq.s 3504 _GET+0x62
    34f6:	2079 0000 000a 	movea.l a ___mulsi4+0x4,a0
			34f8: RELOC32	.bss
    34fc:	de68 0024      	add.w 36(a0),d7
    3500:	d468 0026      	add.w 38(a0),d2
    3504:	4a44           	tst.w d4
    3506:	670e           	beq.s 3516 _GET+0x74
    3508:	2079 0000 000a 	movea.l a ___mulsi4+0x4,a0
			350a: RELOC32	.bss
    350e:	d668 0024      	add.w 36(a0),d3
    3512:	da68 0026      	add.w 38(a0),d5
    3516:	7801           	moveq #1,d4
    3518:	9847           	sub.w d7,d4
    351a:	d843           	add.w d3,d4
    351c:	4a44           	tst.w d4
    351e:	6f00 0128      	ble.w 3648 _GET+0x1a6
    3522:	7001           	moveq #1,d0
    3524:	9042           	sub.w d2,d0
    3526:	da40           	add.w d0,d5
    3528:	4a45           	tst.w d5
    352a:	6f00 011c      	ble.w 3648 _GET+0x1a6
    352e:	3202           	move.w d2,d1
    3530:	48c1           	ext.l d1
    3532:	7600           	moveq #0,d3
    3534:	43ea 003a      	lea 58(a2),a1
    3538:	2403           	move.l d3,d2
    353a:	48c4           	ext.l d4
    353c:	48c5           	ext.l d5
    353e:	7c3f           	moveq #63,d6
    3540:	4606           	not.b d6
    3542:	3007           	move.w d7,d0
    3544:	2079 0000 000a 	movea.l a ___mulsi4+0x4,a0
			3546: RELOC32	.bss
    354a:	2c79 0000 0004 	movea.l 4 _start+0x4,a6
			354c: RELOC32	.bss
    3550:	48c0           	ext.l d0
    3552:	4eae fdd8      	jsr -552(a6)
    3556:	282a 000e      	move.l 14(a2),d4
    355a:	6766           	beq.s 35c2 _GET+0x120
    355c:	700f           	moveq #15,d0
    355e:	306a 0008      	movea.w 8(a2),a0
    3562:	d088           	add.l a0,d0
    3564:	306a 000a      	movea.w 10(a2),a0
    3568:	e688           	lsr.l #3,d0
    356a:	2f08           	move.l a0,-(sp)
    356c:	0280 0000 fffe 	andi.l #65534,d0
    3572:	2f00           	move.l d0,-(sp)
    3574:	4eb9 0000 0000 	jsr 0 _start
			3576: RELOC32	.text
    357a:	508f           	addq.l #8,sp
    357c:	2600           	move.l d0,d3
    357e:	2f00           	move.l d0,-(sp)
    3580:	2f02           	move.l d2,-(sp)
    3582:	2f04           	move.l d4,-(sp)
    3584:	4eb9 0000 264e 	jsr 264e _MEMSET
			3586: RELOC32	.text
    358a:	4a2a 0017      	tst.b 23(a2)
    358e:	6732           	beq.s 35c2 _GET+0x120
    3590:	282a 000e      	move.l 14(a2),d4
    3594:	e28b           	lsr.l #1,d3
    3596:	672a           	beq.s 35c2 _GET+0x120
    3598:	7000           	moveq #0,d0
    359a:	3002           	move.w d2,d0
    359c:	5480           	addq.l #2,d0
    359e:	e588           	lsl.l #2,d0
    35a0:	2272 0812      	movea.l (18,a2,d0.l),a1
    35a4:	2044           	movea.l d4,a0
    35a6:	7200           	moveq #0,d1
    35a8:	3018           	move.w (a0)+,d0
    35aa:	8059           	or.w (a1)+,d0
    35ac:	3140 fffe      	move.w d0,-2(a0)
    35b0:	5281           	addq.l #1,d1
    35b2:	b681           	cmp.l d1,d3
    35b4:	62f2           	bhi.s 35a8 _GET+0x106
    35b6:	5242           	addq.w #1,d2
    35b8:	4240           	clr.w d0
    35ba:	102a 0017      	move.b 23(a2),d0
    35be:	b042           	cmp.w d2,d0
    35c0:	62d6           	bhi.s 3598 _GET+0xf6
    35c2:	4ced 44fc ffe0 	movem.l -32(a5),d2-d7/a2/a6
    35c8:	4e5d           	unlk a5
    35ca:	4e75           	rts
    35cc:	4eb9 0000 0aba 	jsr aba ___handle_break
			35ce: RELOC32	.text
    35d2:	7001           	moveq #1,d0
    35d4:	b0b9 0000 01a0 	cmp.l 1a0 ___pow_s1+0x2,d0
			35d6: RELOC32	.bss
    35da:	6500 ff00      	bcs.w 34dc _GET+0x3a
    35de:	6020           	bra.s 3600 _GET+0x15e
    35e0:	2079 0000 000a 	movea.l a ___mulsi4+0x4,a0
			35e2: RELOC32	.bss
    35e6:	3428 0026      	move.w 38(a0),d2
    35ea:	6000 ff06      	bra.w 34f2 _GET+0x50
    35ee:	2079 0000 000a 	movea.l a ___mulsi4+0x4,a0
			35f0: RELOC32	.bss
    35f4:	3e28 0024      	move.w 36(a0),d7
    35f8:	4a42           	tst.w d2
    35fa:	6c00 fef6      	bge.w 34f2 _GET+0x50
    35fe:	60e0           	bra.s 35e0 _GET+0x13e
    3600:	42a7           	clr.l -(sp)
    3602:	4878 140f      	pea 140f __s2toa_+0x3
    3606:	4878 ffff      	pea ffffffff __awindow_init+0xffffc149
    360a:	4878 ffff      	pea ffffffff __awindow_init+0xffffc149
    360e:	42a7           	clr.l -(sp)
    3610:	4878 ffff      	pea ffffffff __awindow_init+0xffffc149
    3614:	4878 ffff      	pea ffffffff __awindow_init+0xffffc149
    3618:	42a7           	clr.l -(sp)
    361a:	487a cb70      	pea 18c __debug_puts1(pc)
    361e:	4878 0001      	pea 1 _start+0x1
    3622:	4eba cb74      	jsr 198 _WINDOW(pc)
    3626:	4fef 0028      	lea 40(sp),sp
    362a:	4ab9 0000 000a 	tst.l a ___mulsi4+0x4
			362c: RELOC32	.bss
    3630:	6600 feb4      	bne.w 34e6 _GET+0x44
    3634:	4878 007a      	pea 7a __atimer_process_signals+0x2
    3638:	4eb9 0000 011e 	jsr 11e _ERROR
			363a: RELOC32	.text
    363e:	588f           	addq.l #4,sp
    3640:	4a47           	tst.w d7
    3642:	6c00 fea8      	bge.w 34ec _GET+0x4a
    3646:	60a6           	bra.s 35ee _GET+0x14c
    3648:	7079           	moveq #121,d0
    364a:	2b40 0008      	move.l d0,8(a5)
    364e:	4ced 44fc ffe0 	movem.l -32(a5),d2-d7/a2/a6
    3654:	4e5d           	unlk a5
    3656:	4ef9 0000 011e 	jmp 11e _ERROR
			3658: RELOC32	.text

0000365c _PUT:
    365c:	4e55 fffc      	link.w a5,#-4
    3660:	48e7 3f3a      	movem.l d2-d7/a2-a4/a6,-(sp)
    3664:	266d 0014      	movea.l 20(a5),a3
    3668:	2e2d 0018      	move.l 24(a5),d7
    366c:	202d 0020      	move.l 32(a5),d0
    3670:	2c2d 0024      	move.l 36(a5),d6
    3674:	3c6d 000a      	movea.w 10(a5),a6
    3678:	342d 000e      	move.w 14(a5),d2
    367c:	362d 0012      	move.w 18(a5),d3
    3680:	3a2d 001e      	move.w 30(a5),d5
    3684:	386d 002a      	movea.w 42(a5),a4
    3688:	382d 002e      	move.w 46(a5),d4
    368c:	346d 0032      	movea.w 50(a5),a2
    3690:	4a79 0000 001e 	tst.w 1e __atimer_shutdown+0x2
			3692: RELOC32	.bss
    3696:	6600 00bc      	bne.w 3754 _PUT+0xf8
    369a:	7201           	moveq #1,d1
    369c:	b2b9 0000 01a0 	cmp.l 1a0 ___pow_s1+0x2,d1
			369e: RELOC32	.bss
    36a2:	6400 00ca      	bcc.w 376e _PUT+0x112
    36a6:	4ab9 0000 000a 	tst.l a ___mulsi4+0x4
			36a8: RELOC32	.bss
    36ac:	6700 0162      	beq.w 3810 _PUT+0x1b4
    36b0:	4a45           	tst.w d5
    36b2:	6600 008c      	bne.w 3740 _PUT+0xe4
    36b6:	320c           	move.w a4,d1
    36b8:	6600 0086      	bne.w 3740 _PUT+0xe4
    36bc:	4a42           	tst.w d2
    36be:	6d00 0112      	blt.w 37d2 _PUT+0x176
    36c2:	4a43           	tst.w d3
    36c4:	6d00 00fe      	blt.w 37c4 _PUT+0x168
    36c8:	320e           	move.w a6,d1
    36ca:	670e           	beq.s 36da _PUT+0x7e
    36cc:	2079 0000 000a 	movea.l a ___mulsi4+0x4,a0
			36ce: RELOC32	.bss
    36d2:	d468 0024      	add.w 36(a0),d2
    36d6:	d668 0026      	add.w 38(a0),d3
    36da:	4a40           	tst.w d0
    36dc:	6d00 0106      	blt.w 37e4 _PUT+0x188
    36e0:	4a46           	tst.w d6
    36e2:	6d00 0108      	blt.w 37ec _PUT+0x190
    36e6:	4a44           	tst.w d4
    36e8:	6d00 00cc      	blt.w 37b6 _PUT+0x15a
    36ec:	320a           	move.w a2,d1
    36ee:	6d00 00bc      	blt.w 37ac _PUT+0x150
    36f2:	7201           	moveq #1,d1
    36f4:	9240           	sub.w d0,d1
    36f6:	d841           	add.w d1,d4
    36f8:	4a44           	tst.w d4
    36fa:	6f44           	ble.s 3740 _PUT+0xe4
    36fc:	7a01           	moveq #1,d5
    36fe:	9a46           	sub.w d6,d5
    3700:	da4a           	add.w a2,d5
    3702:	4a45           	tst.w d5
    3704:	6f3a           	ble.s 3740 _PUT+0xe4
    3706:	3206           	move.w d6,d1
    3708:	246b 000e      	movea.l 14(a3),a2
    370c:	48c1           	ext.l d1
    370e:	2279 0000 000a 	movea.l a ___mulsi4+0x4,a1
			3710: RELOC32	.bss
    3714:	48c2           	ext.l d2
    3716:	48c3           	ext.l d3
    3718:	48c4           	ext.l d4
    371a:	48c5           	ext.l d5
    371c:	7c00           	moveq #0,d6
    371e:	1c07           	move.b d7,d6
    3720:	2e0a           	move.l a2,d7
    3722:	6700 00d2      	beq.w 37f6 _PUT+0x19a
    3726:	41eb 0012      	lea 18(a3),a0
    372a:	2c79 0000 0004 	movea.l 4 _start+0x4,a6
			372c: RELOC32	.bss
    3730:	48c0           	ext.l d0
    3732:	4eae fd84      	jsr -636(a6)
    3736:	4ced 5cfc ffd4 	movem.l -44(a5),d2-d7/a2-a4/a6
    373c:	4e5d           	unlk a5
    373e:	4e75           	rts
    3740:	7079           	moveq #121,d0
    3742:	2b40 0008      	move.l d0,8(a5)
    3746:	4ced 5cfc ffd4 	movem.l -44(a5),d2-d7/a2-a4/a6
    374c:	4e5d           	unlk a5
    374e:	4ef9 0000 011e 	jmp 11e _ERROR
			3750: RELOC32	.text
    3754:	2b40 fffc      	move.l d0,-4(a5)
    3758:	4eb9 0000 0aba 	jsr aba ___handle_break
			375a: RELOC32	.text
    375e:	202d fffc      	move.l -4(a5),d0
    3762:	7201           	moveq #1,d1
    3764:	b2b9 0000 01a0 	cmp.l 1a0 ___pow_s1+0x2,d1
			3766: RELOC32	.bss
    376a:	6500 ff3a      	bcs.w 36a6 _PUT+0x4a
    376e:	42a7           	clr.l -(sp)
    3770:	4878 140f      	pea 140f __s2toa_+0x3
    3774:	4878 ffff      	pea ffffffff __awindow_init+0xffffc149
    3778:	4878 ffff      	pea ffffffff __awindow_init+0xffffc149
    377c:	42a7           	clr.l -(sp)
    377e:	4878 ffff      	pea ffffffff __awindow_init+0xffffc149
    3782:	4878 ffff      	pea ffffffff __awindow_init+0xffffc149
    3786:	42a7           	clr.l -(sp)
    3788:	487a ca02      	pea 18c __debug_puts1(pc)
    378c:	4878 0001      	pea 1 _start+0x1
    3790:	2b40 fffc      	move.l d0,-4(a5)
    3794:	4eba ca02      	jsr 198 _WINDOW(pc)
    3798:	4fef 0028      	lea 40(sp),sp
    379c:	202d fffc      	move.l -4(a5),d0
    37a0:	4ab9 0000 000a 	tst.l a ___mulsi4+0x4
			37a2: RELOC32	.bss
    37a6:	6600 ff08      	bne.w 36b0 _PUT+0x54
    37aa:	6064           	bra.s 3810 _PUT+0x1b4
    37ac:	346b 000a      	movea.w 10(a3),a2
    37b0:	534a           	subq.w #1,a2
    37b2:	6000 ff3e      	bra.w 36f2 _PUT+0x96
    37b6:	382b 0008      	move.w 8(a3),d4
    37ba:	5344           	subq.w #1,d4
    37bc:	320a           	move.w a2,d1
    37be:	6c00 ff32      	bge.w 36f2 _PUT+0x96
    37c2:	60e8           	bra.s 37ac _PUT+0x150
    37c4:	2079 0000 000a 	movea.l a ___mulsi4+0x4,a0
			37c6: RELOC32	.bss
    37ca:	3628 0026      	move.w 38(a0),d3
    37ce:	6000 fef8      	bra.w 36c8 _PUT+0x6c
    37d2:	2079 0000 000a 	movea.l a ___mulsi4+0x4,a0
			37d4: RELOC32	.bss
    37d8:	3428 0024      	move.w 36(a0),d2
    37dc:	4a43           	tst.w d3
    37de:	6c00 fee8      	bge.w 36c8 _PUT+0x6c
    37e2:	60e0           	bra.s 37c4 _PUT+0x168
    37e4:	4240           	clr.w d0
    37e6:	4a46           	tst.w d6
    37e8:	6c00 fefc      	bge.w 36e6 _PUT+0x8a
    37ec:	4246           	clr.w d6
    37ee:	4a44           	tst.w d4
    37f0:	6c00 fefa      	bge.w 36ec _PUT+0x90
    37f4:	60c0           	bra.s 37b6 _PUT+0x15a
    37f6:	41eb 003a      	lea 58(a3),a0
    37fa:	2c79 0000 0004 	movea.l 4 _start+0x4,a6
			37fc: RELOC32	.bss
    3800:	48c0           	ext.l d0
    3802:	4eae fdd8      	jsr -552(a6)
    3806:	4ced 5cfc ffd4 	movem.l -44(a5),d2-d7/a2-a4/a6
    380c:	4e5d           	unlk a5
    380e:	4e75           	rts
    3810:	4878 007a      	pea 7a __atimer_process_signals+0x2
    3814:	2b40 fffc      	move.l d0,-4(a5)
    3818:	4eb9 0000 011e 	jsr 11e _ERROR
			381a: RELOC32	.text
    381e:	202d fffc      	move.l -4(a5),d0
    3822:	6000 fe8c      	bra.w 36b0 _PUT+0x54

00003826 _FONT_FREE:
    3826:	4e55 0000      	link.w a5,#0
    382a:	2f0e           	move.l a6,-(sp)
    382c:	2f0a           	move.l a2,-(sp)
    382e:	246d 0008      	movea.l 8(a5),a2
    3832:	2052           	movea.l (a2),a0
    3834:	2008           	move.l a0,d0
    3836:	6752           	beq.s 388a _FONT_FREE+0x64
    3838:	216a 0004 0004 	move.l 4(a2),4(a0)
    383e:	226a 0004      	movea.l 4(a2),a1
    3842:	2009           	move.l a1,d0
    3844:	6752           	beq.s 3898 _FONT_FREE+0x72
    3846:	2288           	move.l a0,(a1)
    3848:	226a 000c      	movea.l 12(a2),a1
    384c:	2009           	move.l a1,d0
    384e:	670a           	beq.s 385a _FONT_FREE+0x34
    3850:	2c79 0000 0004 	movea.l 4 _start+0x4,a6
			3852: RELOC32	.bss
    3856:	4eae ffb2      	jsr -78(a6)
    385a:	206a 0008      	movea.l 8(a2),a0
    385e:	2008           	move.l a0,d0
    3860:	6714           	beq.s 3876 _FONT_FREE+0x50
    3862:	2228 0012      	move.l 18(a0),d1
    3866:	670e           	beq.s 3876 _FONT_FREE+0x50
    3868:	42a8 0012      	clr.l 18(a0)
    386c:	2c79 0000 0004 	movea.l 4 _start+0x4,a6
			386e: RELOC32	.bss
    3872:	4eae ff64      	jsr -156(a6)
    3876:	224a           	movea.l a2,a1
    3878:	2c79 0000 0000 	movea.l 0 _start,a6
			387a: RELOC32	.bss
    387e:	4eae fd4e      	jsr -690(a6)
    3882:	245f           	movea.l (sp)+,a2
    3884:	2c5f           	movea.l (sp)+,a6
    3886:	4e5d           	unlk a5
    3888:	4e75           	rts
    388a:	226a 0004      	movea.l 4(a2),a1
    388e:	23c9 0000 0190 	move.l a1,190 __debug_puts1+0x4
			3890: RELOC32	.bss
    3894:	2009           	move.l a1,d0
    3896:	66ae           	bne.s 3846 _FONT_FREE+0x20
    3898:	23c8 0000 0194 	move.l a0,194 __debug_puts1+0x8
			389a: RELOC32	.bss
    389e:	60a8           	bra.s 3848 _FONT_FREE+0x22

000038a0 _FONT_:
    38a0:	4e55 fff8      	link.w a5,#-8
    38a4:	48e7 3832      	movem.l d2-d4/a2-a3/a6,-(sp)
    38a8:	242d 0008      	move.l 8(a5),d2
    38ac:	202d 000c      	move.l 12(a5),d0
    38b0:	262d 0010      	move.l 16(a5),d3
    38b4:	6700 00ee      	beq.w 39a4 _FONT_+0x104
    38b8:	42a7           	clr.l -(sp)
    38ba:	4878 000a      	pea a ___mulsi4+0x4
    38be:	4879 0000 01c8 	pea 1c8 _TIMER_+0x4
			38c0: RELOC32	.bss
    38c4:	3040           	movea.w d0,a0
    38c6:	2f08           	move.l a0,-(sp)
    38c8:	4eb9 0000 0000 	jsr 0 _start
			38ca: RELOC32	.text
    38ce:	2f03           	move.l d3,-(sp)
    38d0:	45f9 0000 03f0 	lea 3f0 _LEN_,a2
			38d2: RELOC32	.text
    38d6:	4e92           	jsr (a2)
    38d8:	2800           	move.l d0,d4
    38da:	2f02           	move.l d2,-(sp)
    38dc:	4e92           	jsr (a2)
    38de:	d084           	add.l d4,d0
    38e0:	4fef 0018      	lea 24(sp),sp
    38e4:	0c80 0000 00fe 	cmpi.l #254,d0
    38ea:	6200 00de      	bhi.w 39ca _FONT_+0x12a
    38ee:	2c79 0000 0000 	movea.l 0 _start,a6
			38f0: RELOC32	.bss
    38f4:	2043           	movea.l d3,a0
    38f6:	7001           	moveq #1,d0
    38f8:	d084           	add.l d4,d0
    38fa:	43f9 0000 01d4 	lea 1d4 ___mul_s1+0xa,a1
			38fc: RELOC32	.bss
    3900:	4eae fd90      	jsr -624(a6)
    3904:	47f9 0000 0004 	lea 4 _start+0x4,a3
			3906: RELOC32	.bss
    390a:	2c53           	movea.l (a3),a6
    390c:	223c 0000 01d4 	move.l #468,d1
			390e: RELOC32	.bss
    3912:	263c 0000 0100 	move.l #256,d3
    3918:	4eae fc8e      	jsr -882(a6)
    391c:	4879 0000 01d4 	pea 1d4 ___mul_s1+0xa
			391e: RELOC32	.bss
    3922:	4e92           	jsr (a2)
    3924:	588f           	addq.l #4,sp
    3926:	7205           	moveq #5,d1
    3928:	b280           	cmp.l d0,d1
    392a:	6400 009e      	bcc.w 39ca _FONT_+0x12a
    392e:	45f9 0000 01d4 	lea 1d4 ___mul_s1+0xa,a2
			3930: RELOC32	.bss
    3934:	4232 08fb      	clr.b (-5,a2,d0.l)
    3938:	2c53           	movea.l (a3),a6
    393a:	220a           	move.l a2,d1
    393c:	243c 0000 01c8 	move.l #456,d2
			393e: RELOC32	.bss
    3942:	4eae fc8e      	jsr -882(a6)
    3946:	220a           	move.l a2,d1
    3948:	2c53           	movea.l (a3),a6
    394a:	4eae ff6a      	jsr -150(a6)
    394e:	4a80           	tst.l d0
    3950:	6778           	beq.s 39ca _FONT_+0x12a
    3952:	2200           	move.l d0,d1
    3954:	e589           	lsl.l #2,d1
    3956:	2641           	movea.l d1,a3
    3958:	45eb 0008      	lea 8(a3),a2
    395c:	2540 0012      	move.l d0,18(a2)
    3960:	47eb 003e      	lea 62(a3),a3
    3964:	2c79 0000 0000 	movea.l 0 _start,a6
			3966: RELOC32	.bss
    396a:	7010           	moveq #16,d0
    396c:	7201           	moveq #1,d1
    396e:	4841           	swap d1
    3970:	4eae fd54      	jsr -684(a6)
    3974:	4a80           	tst.l d0
    3976:	6752           	beq.s 39ca _FONT_+0x12a
    3978:	2040           	movea.l d0,a0
    397a:	2279 0000 0194 	movea.l 194 __debug_puts1+0x8,a1
			397c: RELOC32	.bss
    3980:	2089           	move.l a1,(a0)
    3982:	2209           	move.l a1,d1
    3984:	675a           	beq.s 39e0 _FONT_+0x140
    3986:	2340 0004      	move.l d0,4(a1)
    398a:	23c0 0000 0194 	move.l d0,194 __debug_puts1+0x8
			398c: RELOC32	.bss
    3990:	2040           	movea.l d0,a0
    3992:	214a 0008      	move.l a2,8(a0)
    3996:	214b 000c      	move.l a3,12(a0)
    399a:	4ced 4c1c ffe0 	movem.l -32(a5),d2-d4/a2-a3/a6
    39a0:	4e5d           	unlk a5
    39a2:	4e75           	rts
    39a4:	2b42 fff8      	move.l d2,-8(a5)
    39a8:	3b40 fffc      	move.w d0,-4(a5)
    39ac:	1b43 fffe      	move.b d3,-2(a5)
    39b0:	1b43 ffff      	move.b d3,-1(a5)
    39b4:	41ed fff8      	lea -8(a5),a0
    39b8:	2c79 0000 0008 	movea.l 8 ___mulsi4+0x2,a6
			39ba: RELOC32	.bss
    39be:	4eae ffe2      	jsr -30(a6)
    39c2:	2640           	movea.l d0,a3
    39c4:	2443           	movea.l d3,a2
    39c6:	4a80           	tst.l d0
    39c8:	669a           	bne.s 3964 _FONT_+0xc4
    39ca:	4878 007b      	pea 7b __atimer_process_signals+0x3
    39ce:	4eb9 0000 011e 	jsr 11e _ERROR
			39d0: RELOC32	.text
    39d4:	7000           	moveq #0,d0
    39d6:	4ced 4c1c ffe0 	movem.l -32(a5),d2-d4/a2-a3/a6
    39dc:	4e5d           	unlk a5
    39de:	4e75           	rts
    39e0:	23c0 0000 0194 	move.l d0,194 __debug_puts1+0x8
			39e2: RELOC32	.bss
    39e6:	23c0 0000 0190 	move.l d0,190 __debug_puts1+0x4
			39e8: RELOC32	.bss
    39ec:	2040           	movea.l d0,a0
    39ee:	214a 0008      	move.l a2,8(a0)
    39f2:	214b 000c      	move.l a3,12(a0)
    39f6:	60a2           	bra.s 399a _FONT_+0xfa

000039f8 _FONT:
    39f8:	4e55 0000      	link.w a5,#0
    39fc:	2f0e           	move.l a6,-(sp)
    39fe:	4a79 0000 001e 	tst.w 1e __atimer_shutdown+0x2
			3a00: RELOC32	.bss
    3a04:	662e           	bne.s 3a34 _FONT+0x3c
    3a06:	7001           	moveq #1,d0
    3a08:	b0b9 0000 01a0 	cmp.l 1a0 ___pow_s1+0x2,d0
			3a0a: RELOC32	.bss
    3a0e:	6434           	bcc.s 3a44 _FONT+0x4c
    3a10:	2279 0000 000a 	movea.l a ___mulsi4+0x4,a1
			3a12: RELOC32	.bss
    3a16:	2009           	move.l a1,d0
    3a18:	675e           	beq.s 3a78 _FONT+0x80
    3a1a:	206d 0008      	movea.l 8(a5),a0
    3a1e:	2068 000c      	movea.l 12(a0),a0
    3a22:	2c79 0000 0004 	movea.l 4 _start+0x4,a6
			3a24: RELOC32	.bss
    3a28:	4eae ffbe      	jsr -66(a6)
    3a2c:	2c6d fffc      	movea.l -4(a5),a6
    3a30:	4e5d           	unlk a5
    3a32:	4e75           	rts
    3a34:	4eb9 0000 0aba 	jsr aba ___handle_break
			3a36: RELOC32	.text
    3a3a:	7001           	moveq #1,d0
    3a3c:	b0b9 0000 01a0 	cmp.l 1a0 ___pow_s1+0x2,d0
			3a3e: RELOC32	.bss
    3a42:	65cc           	bcs.s 3a10 _FONT+0x18
    3a44:	42a7           	clr.l -(sp)
    3a46:	4878 140f      	pea 140f __s2toa_+0x3
    3a4a:	4878 ffff      	pea ffffffff __awindow_init+0xffffc149
    3a4e:	4878 ffff      	pea ffffffff __awindow_init+0xffffc149
    3a52:	42a7           	clr.l -(sp)
    3a54:	4878 ffff      	pea ffffffff __awindow_init+0xffffc149
    3a58:	4878 ffff      	pea ffffffff __awindow_init+0xffffc149
    3a5c:	42a7           	clr.l -(sp)
    3a5e:	487a c72c      	pea 18c __debug_puts1(pc)
    3a62:	4878 0001      	pea 1 _start+0x1
    3a66:	4eba c730      	jsr 198 _WINDOW(pc)
    3a6a:	2279 0000 000a 	movea.l a ___mulsi4+0x4,a1
			3a6c: RELOC32	.bss
    3a70:	4fef 0028      	lea 40(sp),sp
    3a74:	2009           	move.l a1,d0
    3a76:	66a2           	bne.s 3a1a _FONT+0x22
    3a78:	4878 007a      	pea 7a __atimer_process_signals+0x2
    3a7c:	4eb9 0000 011e 	jsr 11e _ERROR
			3a7e: RELOC32	.text
    3a82:	2279 0000 000a 	movea.l a ___mulsi4+0x4,a1
			3a84: RELOC32	.bss
    3a88:	206d 0008      	movea.l 8(a5),a0
    3a8c:	2068 000c      	movea.l 12(a0),a0
    3a90:	2c79 0000 0004 	movea.l 4 _start+0x4,a6
			3a92: RELOC32	.bss
    3a96:	4eae ffbe      	jsr -66(a6)
    3a9a:	2c6d fffc      	movea.l -4(a5),a6
    3a9e:	4e5d           	unlk a5
    3aa0:	4e75           	rts

00003aa2 _FONTSTYLE:
    3aa2:	4e55 0000      	link.w a5,#0
    3aa6:	2f0e           	move.l a6,-(sp)
    3aa8:	4a79 0000 001e 	tst.w 1e __atimer_shutdown+0x2
			3aaa: RELOC32	.bss
    3aae:	662e           	bne.s 3ade _FONTSTYLE+0x3c
    3ab0:	7001           	moveq #1,d0
    3ab2:	b0b9 0000 01a0 	cmp.l 1a0 ___pow_s1+0x2,d0
			3ab4: RELOC32	.bss
    3ab8:	6434           	bcc.s 3aee _FONTSTYLE+0x4c
    3aba:	2279 0000 000a 	movea.l a ___mulsi4+0x4,a1
			3abc: RELOC32	.bss
    3ac0:	2009           	move.l a1,d0
    3ac2:	675e           	beq.s 3b22 _FONTSTYLE+0x80
    3ac4:	2c79 0000 0004 	movea.l 4 _start+0x4,a6
			3ac6: RELOC32	.bss
    3aca:	202d 0008      	move.l 8(a5),d0
    3ace:	7200           	moveq #0,d1
    3ad0:	4601           	not.b d1
    3ad2:	4eae ffa6      	jsr -90(a6)
    3ad6:	2c6d fffc      	movea.l -4(a5),a6
    3ada:	4e5d           	unlk a5
    3adc:	4e75           	rts
    3ade:	4eb9 0000 0aba 	jsr aba ___handle_break
			3ae0: RELOC32	.text
    3ae4:	7001           	moveq #1,d0
    3ae6:	b0b9 0000 01a0 	cmp.l 1a0 ___pow_s1+0x2,d0
			3ae8: RELOC32	.bss
    3aec:	65cc           	bcs.s 3aba _FONTSTYLE+0x18
    3aee:	42a7           	clr.l -(sp)
    3af0:	4878 140f      	pea 140f __s2toa_+0x3
    3af4:	4878 ffff      	pea ffffffff __awindow_init+0xffffc149
    3af8:	4878 ffff      	pea ffffffff __awindow_init+0xffffc149
    3afc:	42a7           	clr.l -(sp)
    3afe:	4878 ffff      	pea ffffffff __awindow_init+0xffffc149
    3b02:	4878 ffff      	pea ffffffff __awindow_init+0xffffc149
    3b06:	42a7           	clr.l -(sp)
    3b08:	487a c682      	pea 18c __debug_puts1(pc)
    3b0c:	4878 0001      	pea 1 _start+0x1
    3b10:	4eba c686      	jsr 198 _WINDOW(pc)
    3b14:	2279 0000 000a 	movea.l a ___mulsi4+0x4,a1
			3b16: RELOC32	.bss
    3b1a:	4fef 0028      	lea 40(sp),sp
    3b1e:	2009           	move.l a1,d0
    3b20:	66a2           	bne.s 3ac4 _FONTSTYLE+0x22
    3b22:	4878 007a      	pea 7a __atimer_process_signals+0x2
    3b26:	4eb9 0000 011e 	jsr 11e _ERROR
			3b28: RELOC32	.text
    3b2c:	2279 0000 000a 	movea.l a ___mulsi4+0x4,a1
			3b2e: RELOC32	.bss
    3b32:	2c79 0000 0004 	movea.l 4 _start+0x4,a6
			3b34: RELOC32	.bss
    3b38:	202d 0008      	move.l 8(a5),d0
    3b3c:	7200           	moveq #0,d1
    3b3e:	4601           	not.b d1
    3b40:	4eae ffa6      	jsr -90(a6)
    3b44:	2c6d fffc      	movea.l -4(a5),a6
    3b48:	4e5d           	unlk a5
    3b4a:	4e75           	rts

00003b4c _FONTSTYLE_:
    3b4c:	4e55 0000      	link.w a5,#0
    3b50:	2f0e           	move.l a6,-(sp)
    3b52:	4a79 0000 001e 	tst.w 1e __atimer_shutdown+0x2
			3b54: RELOC32	.bss
    3b58:	6626           	bne.s 3b80 _FONTSTYLE_+0x34
    3b5a:	7001           	moveq #1,d0
    3b5c:	b0b9 0000 01a0 	cmp.l 1a0 ___pow_s1+0x2,d0
			3b5e: RELOC32	.bss
    3b62:	642c           	bcc.s 3b90 _FONTSTYLE_+0x44
    3b64:	2279 0000 000a 	movea.l a ___mulsi4+0x4,a1
			3b66: RELOC32	.bss
    3b6a:	2009           	move.l a1,d0
    3b6c:	6756           	beq.s 3bc4 _FONTSTYLE_+0x78
    3b6e:	2c79 0000 0004 	movea.l 4 _start+0x4,a6
			3b70: RELOC32	.bss
    3b74:	4eae ffac      	jsr -84(a6)
    3b78:	2c6d fffc      	movea.l -4(a5),a6
    3b7c:	4e5d           	unlk a5
    3b7e:	4e75           	rts
    3b80:	4eb9 0000 0aba 	jsr aba ___handle_break
			3b82: RELOC32	.text
    3b86:	7001           	moveq #1,d0
    3b88:	b0b9 0000 01a0 	cmp.l 1a0 ___pow_s1+0x2,d0
			3b8a: RELOC32	.bss
    3b8e:	65d4           	bcs.s 3b64 _FONTSTYLE_+0x18
    3b90:	42a7           	clr.l -(sp)
    3b92:	4878 140f      	pea 140f __s2toa_+0x3
    3b96:	4878 ffff      	pea ffffffff __awindow_init+0xffffc149
    3b9a:	4878 ffff      	pea ffffffff __awindow_init+0xffffc149
    3b9e:	42a7           	clr.l -(sp)
    3ba0:	4878 ffff      	pea ffffffff __awindow_init+0xffffc149
    3ba4:	4878 ffff      	pea ffffffff __awindow_init+0xffffc149
    3ba8:	42a7           	clr.l -(sp)
    3baa:	487a c5e0      	pea 18c __debug_puts1(pc)
    3bae:	4878 0001      	pea 1 _start+0x1
    3bb2:	4eba c5e4      	jsr 198 _WINDOW(pc)
    3bb6:	2279 0000 000a 	movea.l a ___mulsi4+0x4,a1
			3bb8: RELOC32	.bss
    3bbc:	4fef 0028      	lea 40(sp),sp
    3bc0:	2009           	move.l a1,d0
    3bc2:	66aa           	bne.s 3b6e _FONTSTYLE_+0x22
    3bc4:	4878 007a      	pea 7a __atimer_process_signals+0x2
    3bc8:	4eb9 0000 011e 	jsr 11e _ERROR
			3bca: RELOC32	.text
    3bce:	2c79 0000 0004 	movea.l 4 _start+0x4,a6
			3bd0: RELOC32	.bss
    3bd4:	2279 0000 000a 	movea.l a ___mulsi4+0x4,a1
			3bd6: RELOC32	.bss
    3bda:	4eae ffac      	jsr -84(a6)
    3bde:	2c6d fffc      	movea.l -4(a5),a6
    3be2:	4e5d           	unlk a5
    3be4:	4e75           	rts

00003be6 _TEXTWIDTH_:
    3be6:	4e55 0000      	link.w a5,#0
    3bea:	2f0e           	move.l a6,-(sp)
    3bec:	2f02           	move.l d2,-(sp)
    3bee:	242d 0008      	move.l 8(a5),d2
    3bf2:	4a79 0000 001e 	tst.w 1e __atimer_shutdown+0x2
			3bf4: RELOC32	.bss
    3bf8:	663a           	bne.s 3c34 _TEXTWIDTH_+0x4e
    3bfa:	7001           	moveq #1,d0
    3bfc:	b0b9 0000 01a0 	cmp.l 1a0 ___pow_s1+0x2,d0
			3bfe: RELOC32	.bss
    3c02:	6440           	bcc.s 3c44 _TEXTWIDTH_+0x5e
    3c04:	4ab9 0000 000a 	tst.l a ___mulsi4+0x4
			3c06: RELOC32	.bss
    3c0a:	676a           	beq.s 3c76 _TEXTWIDTH_+0x90
    3c0c:	2f02           	move.l d2,-(sp)
    3c0e:	4eb9 0000 03f0 	jsr 3f0 _LEN_
			3c10: RELOC32	.text
    3c14:	2c79 0000 0004 	movea.l 4 _start+0x4,a6
			3c16: RELOC32	.bss
    3c1a:	2279 0000 000a 	movea.l a ___mulsi4+0x4,a1
			3c1c: RELOC32	.bss
    3c20:	48c0           	ext.l d0
    3c22:	2042           	movea.l d2,a0
    3c24:	4eae ffca      	jsr -54(a6)
    3c28:	242d fff8      	move.l -8(a5),d2
    3c2c:	2c6d fffc      	movea.l -4(a5),a6
    3c30:	4e5d           	unlk a5
    3c32:	4e75           	rts
    3c34:	4eb9 0000 0aba 	jsr aba ___handle_break
			3c36: RELOC32	.text
    3c3a:	7001           	moveq #1,d0
    3c3c:	b0b9 0000 01a0 	cmp.l 1a0 ___pow_s1+0x2,d0
			3c3e: RELOC32	.bss
    3c42:	65c0           	bcs.s 3c04 _TEXTWIDTH_+0x1e
    3c44:	42a7           	clr.l -(sp)
    3c46:	4878 140f      	pea 140f __s2toa_+0x3
    3c4a:	4878 ffff      	pea ffffffff __awindow_init+0xffffc149
    3c4e:	4878 ffff      	pea ffffffff __awindow_init+0xffffc149
    3c52:	42a7           	clr.l -(sp)
    3c54:	4878 ffff      	pea ffffffff __awindow_init+0xffffc149
    3c58:	4878 ffff      	pea ffffffff __awindow_init+0xffffc149
    3c5c:	42a7           	clr.l -(sp)
    3c5e:	487a c52c      	pea 18c __debug_puts1(pc)
    3c62:	4878 0001      	pea 1 _start+0x1
    3c66:	4eba c530      	jsr 198 _WINDOW(pc)
    3c6a:	4fef 0028      	lea 40(sp),sp
    3c6e:	4ab9 0000 000a 	tst.l a ___mulsi4+0x4
			3c70: RELOC32	.bss
    3c74:	6696           	bne.s 3c0c _TEXTWIDTH_+0x26
    3c76:	4878 007a      	pea 7a __atimer_process_signals+0x2
    3c7a:	4eb9 0000 011e 	jsr 11e _ERROR
			3c7c: RELOC32	.text
    3c80:	2e82           	move.l d2,(sp)
    3c82:	4eb9 0000 03f0 	jsr 3f0 _LEN_
			3c84: RELOC32	.text
    3c88:	2c79 0000 0004 	movea.l 4 _start+0x4,a6
			3c8a: RELOC32	.bss
    3c8e:	2279 0000 000a 	movea.l a ___mulsi4+0x4,a1
			3c90: RELOC32	.bss
    3c94:	48c0           	ext.l d0
    3c96:	2042           	movea.l d2,a0
    3c98:	4eae ffca      	jsr -54(a6)
    3c9c:	242d fff8      	move.l -8(a5),d2
    3ca0:	2c6d fffc      	movea.l -4(a5),a6
    3ca4:	4e5d           	unlk a5
    3ca6:	4e75           	rts

00003ca8 __palette_load:
    3ca8:	4e55 0000      	link.w a5,#0
    3cac:	48e7 3c32      	movem.l d2-d5/a2-a3/a6,-(sp)
    3cb0:	306d 000a      	movea.w 10(a5),a0
    3cb4:	2008           	move.l a0,d0
    3cb6:	5380           	subq.l #1,d0
    3cb8:	246d 000c      	movea.l 12(a5),a2
    3cbc:	41f9 0000 0174 	lea 174 ___pow_u2+0x2,a0
			3cbe: RELOC32	.bss
    3cc2:	e588           	lsl.l #2,d0
    3cc4:	2670 0800      	movea.l (0,a0,d0.l),a3
    3cc8:	200b           	move.l a3,d0
    3cca:	674c           	beq.s 3d18 __palette_load+0x70
    3ccc:	4a52           	tst.w (a2)
    3cce:	6f40           	ble.s 3d10 __palette_load+0x68
    3cd0:	47eb 002c      	lea 44(a3),a3
    3cd4:	4244           	clr.w d4
    3cd6:	3004           	move.w d4,d0
    3cd8:	48c0           	ext.l d0
    3cda:	2200           	move.l d0,d1
    3cdc:	e589           	lsl.l #2,d1
    3cde:	2041           	movea.l d1,a0
    3ce0:	91c0           	suba.l d0,a0
    3ce2:	d1ca           	adda.l a2,a0
    3ce4:	1228 0002      	move.b 2(a0),d1
    3ce8:	e889           	lsr.l #4,d1
    3cea:	1428 0003      	move.b 3(a0),d2
    3cee:	e88a           	lsr.l #4,d2
    3cf0:	1628 0004      	move.b 4(a0),d3
    3cf4:	e88b           	lsr.l #4,d3
    3cf6:	2c79 0000 0004 	movea.l 4 _start+0x4,a6
			3cf8: RELOC32	.bss
    3cfc:	7a0f           	moveq #15,d5
    3cfe:	204b           	movea.l a3,a0
    3d00:	c285           	and.l d5,d1
    3d02:	c485           	and.l d5,d2
    3d04:	c685           	and.l d5,d3
    3d06:	4eae fee0      	jsr -288(a6)
    3d0a:	5244           	addq.w #1,d4
    3d0c:	b852           	cmp.w (a2),d4
    3d0e:	6dc6           	blt.s 3cd6 __palette_load+0x2e
    3d10:	4cdf 4c3c      	movem.l (sp)+,d2-d5/a2-a3/a6
    3d14:	4e5d           	unlk a5
    3d16:	4e75           	rts
    3d18:	7067           	moveq #103,d0
    3d1a:	2b40 0008      	move.l d0,8(a5)
    3d1e:	4cdf 4c3c      	movem.l (sp)+,d2-d5/a2-a3/a6
    3d22:	4e5d           	unlk a5
    3d24:	4ef9 0000 011e 	jmp 11e _ERROR
			3d26: RELOC32	.text

00003d2a _PALETTE_LOAD:
    3d2a:	4e55 0000      	link.w a5,#0
    3d2e:	48e7 3c32      	movem.l d2-d5/a2-a3/a6,-(sp)
    3d32:	246d 0008      	movea.l 8(a5),a2
    3d36:	4ab9 0000 0002 	tst.l 2 _start+0x2
			3d38: RELOC32	.bss
    3d3c:	6766           	beq.s 3da4 _PALETTE_LOAD+0x7a
    3d3e:	3079 0000 0000 	movea.w 0 _start,a0
			3d40: RELOC32	.bss
    3d44:	2008           	move.l a0,d0
    3d46:	5380           	subq.l #1,d0
    3d48:	41f9 0000 0174 	lea 174 ___pow_u2+0x2,a0
			3d4a: RELOC32	.bss
    3d4e:	e588           	lsl.l #2,d0
    3d50:	2670 0800      	movea.l (0,a0,d0.l),a3
    3d54:	200b           	move.l a3,d0
    3d56:	674c           	beq.s 3da4 _PALETTE_LOAD+0x7a
    3d58:	4a52           	tst.w (a2)
    3d5a:	6f40           	ble.s 3d9c _PALETTE_LOAD+0x72
    3d5c:	47eb 002c      	lea 44(a3),a3
    3d60:	4244           	clr.w d4
    3d62:	3004           	move.w d4,d0
    3d64:	48c0           	ext.l d0
    3d66:	2200           	move.l d0,d1
    3d68:	e589           	lsl.l #2,d1
    3d6a:	2041           	movea.l d1,a0
    3d6c:	91c0           	suba.l d0,a0
    3d6e:	d1ca           	adda.l a2,a0
    3d70:	1228 0002      	move.b 2(a0),d1
    3d74:	e889           	lsr.l #4,d1
    3d76:	1428 0003      	move.b 3(a0),d2
    3d7a:	e88a           	lsr.l #4,d2
    3d7c:	1628 0004      	move.b 4(a0),d3
    3d80:	e88b           	lsr.l #4,d3
    3d82:	2c79 0000 0004 	movea.l 4 _start+0x4,a6
			3d84: RELOC32	.bss
    3d88:	7a0f           	moveq #15,d5
    3d8a:	204b           	movea.l a3,a0
    3d8c:	c285           	and.l d5,d1
    3d8e:	c485           	and.l d5,d2
    3d90:	c685           	and.l d5,d3
    3d92:	4eae fee0      	jsr -288(a6)
    3d96:	5244           	addq.w #1,d4
    3d98:	b852           	cmp.w (a2),d4
    3d9a:	6dc6           	blt.s 3d62 _PALETTE_LOAD+0x38
    3d9c:	4cdf 4c3c      	movem.l (sp)+,d2-d5/a2-a3/a6
    3da0:	4e5d           	unlk a5
    3da2:	4e75           	rts
    3da4:	7067           	moveq #103,d0
    3da6:	2b40 0008      	move.l d0,8(a5)
    3daa:	4cdf 4c3c      	movem.l (sp)+,d2-d5/a2-a3/a6
    3dae:	4e5d           	unlk a5
    3db0:	4ef9 0000 011e 	jmp 11e _ERROR
			3db2: RELOC32	.text

00003db6 _INKEY_:
    3db6:	4e55 0000      	link.w a5,#0
    3dba:	48e7 3002      	movem.l d2-d3/a6,-(sp)
    3dbe:	4a79 0000 001e 	tst.w 1e __atimer_shutdown+0x2
			3dc0: RELOC32	.bss
    3dc4:	6600 00ae      	bne.w 3e74 _INKEY_+0xbe
    3dc8:	2639 0000 01a0 	move.l 1a0 ___pow_s1+0x2,d3
			3dca: RELOC32	.bss
    3dce:	6748           	beq.s 3e18 _INKEY_+0x62
    3dd0:	7001           	moveq #1,d0
    3dd2:	b083           	cmp.l d3,d0
    3dd4:	6774           	beq.s 3e4a _INKEY_+0x94
    3dd6:	3439 0000 01c4 	move.w 1c4 _TIMER_,d2
			3dd8: RELOC32	.bss
    3ddc:	6700 00a8      	beq.w 3e86 _INKEY_+0xd0
    3de0:	7200           	moveq #0,d1
    3de2:	3239 0000 01c0 	move.w 1c0 __aio_puttab+0x4,d1
			3de4: RELOC32	.bss
    3de8:	43f9 0000 01c6 	lea 1c6 _TIMER_+0x2,a1
			3dea: RELOC32	.bss
    3dee:	2009           	move.l a1,d0
    3df0:	41f9 0000 01bc 	lea 1bc __aio_puttab,a0
			3df2: RELOC32	.bss
    3df6:	12b0 1800      	move.b (0,a0,d1.l),(a1)
    3dfa:	5281           	addq.l #1,d1
    3dfc:	0241 0003      	andi.w #3,d1
    3e00:	33c1 0000 01c0 	move.w d1,1c0 __aio_puttab+0x4
			3e02: RELOC32	.bss
    3e06:	5342           	subq.w #1,d2
    3e08:	33c2 0000 01c4 	move.w d2,1c4 _TIMER_
			3e0a: RELOC32	.bss
    3e0e:	4ced 400c fff4 	movem.l -12(a5),d2-d3/a6
    3e14:	4e5d           	unlk a5
    3e16:	4e75           	rts
    3e18:	2f03           	move.l d3,-(sp)
    3e1a:	4878 140f      	pea 140f __s2toa_+0x3
    3e1e:	4878 ffff      	pea ffffffff __awindow_init+0xffffc149
    3e22:	4878 ffff      	pea ffffffff __awindow_init+0xffffc149
    3e26:	2f03           	move.l d3,-(sp)
    3e28:	4878 ffff      	pea ffffffff __awindow_init+0xffffc149
    3e2c:	4878 ffff      	pea ffffffff __awindow_init+0xffffc149
    3e30:	2f03           	move.l d3,-(sp)
    3e32:	487a c358      	pea 18c __debug_puts1(pc)
    3e36:	4878 0001      	pea 1 _start+0x1
    3e3a:	4eba c35c      	jsr 198 _WINDOW(pc)
    3e3e:	2639 0000 01a0 	move.l 1a0 ___pow_s1+0x2,d3
			3e40: RELOC32	.bss
    3e44:	7001           	moveq #1,d0
    3e46:	b083           	cmp.l d3,d0
    3e48:	668c           	bne.s 3dd6 _INKEY_+0x20
    3e4a:	2c79 0000 0004 	movea.l 4 _start+0x4,a6
			3e4c: RELOC32	.bss
    3e50:	2239 0000 0070 	move.l 70 _DEALLOCATE,d1
			3e52: RELOC32	.bss
    3e56:	243c 0000 01c6 	move.l #454,d2
			3e58: RELOC32	.bss
    3e5c:	4eae ffd6      	jsr -42(a6)
    3e60:	5380           	subq.l #1,d0
    3e62:	6736           	beq.s 3e9a _INKEY_+0xe4
    3e64:	203c 0000 000b 	move.l #11,d0
			3e66: RELOC32	.text
    3e6a:	4ced 400c fff4 	movem.l -12(a5),d2-d3/a6
    3e70:	4e5d           	unlk a5
    3e72:	4e75           	rts
    3e74:	4eb9 0000 0aba 	jsr aba ___handle_break
			3e76: RELOC32	.text
    3e7a:	2639 0000 01a0 	move.l 1a0 ___pow_s1+0x2,d3
			3e7c: RELOC32	.bss
    3e80:	6600 ff4e      	bne.w 3dd0 _INKEY_+0x1a
    3e84:	6092           	bra.s 3e18 _INKEY_+0x62
    3e86:	41f9 0000 01c6 	lea 1c6 _TIMER_+0x2,a0
			3e88: RELOC32	.bss
    3e8c:	2008           	move.l a0,d0
    3e8e:	1082           	move.b d2,(a0)
    3e90:	4ced 400c fff4 	movem.l -12(a5),d2-d3/a6
    3e96:	4e5d           	unlk a5
    3e98:	4e75           	rts
    3e9a:	2002           	move.l d2,d0
    3e9c:	4ced 400c fff4 	movem.l -12(a5),d2-d3/a6
    3ea2:	4e5d           	unlk a5
    3ea4:	4e75           	rts
    3ea6:	636f           	bls.s 3f17 __awindow_init+0x61
    3ea8:	6e73           	bgt.s 3f1d __awindow_init+0x67
    3eaa:	6f6c           	ble.s 3f18 __awindow_init+0x62
    3eac:	652e           	bcs.s 3edc __awindow_init+0x26
    3eae:	6465           	bcc.s 3f15 __awindow_init+0x5f
    3eb0:	7669           	moveq #105,d3
    3eb2:	6365           	bls.s 3f19 __awindow_init+0x63
	...

00003eb6 __awindow_init:
    3eb6:	2f0e           	move.l a6,-(sp)
    3eb8:	2c79 0000 0004 	movea.l 4 _start+0x4,a6
			3eba: RELOC32	.bss
    3ebe:	4eae ffc4      	jsr -60(a6)
    3ec2:	23c0 0000 006c 	move.l d0,6c __aqb_read2+0x2c
			3ec4: RELOC32	.bss
    3ec8:	4eae ffca      	jsr -54(a6)
    3ecc:	23c0 0000 0070 	move.l d0,70 _DEALLOCATE
			3ece: RELOC32	.bss
    3ed2:	23fc 0000 1d62 	move.l #7522,0 _start
    3ed8:	0000 0000 
			3ed4: RELOC32	.text
			3ed8: RELOC32	.bss
    3edc:	23fc 0000 254e 	move.l #9550,4 _start+0x4
    3ee2:	0000 0004 
			3ede: RELOC32	.text
			3ee2: RELOC32	.bss
    3ee6:	23fc 0000 090e 	move.l #2318,8 ___mulsi4+0x2
    3eec:	0000 0008 
			3ee8: RELOC32	.text
			3eec: RELOC32	.bss
    3ef0:	23fc 0000 2016 	move.l #8214,c _SCREEN
    3ef6:	0000 000c 
			3ef2: RELOC32	.text
			3ef6: RELOC32	.bss
    3efa:	23fc 0000 15e2 	move.l #5602,0 _start
    3f00:	0000 0000 
			3efc: RELOC32	.text
			3f00: RELOC32	.bss
    3f04:	41f9 0000 0074 	lea 74 __MEMSET+0x2,a0
			3f06: RELOC32	.bss
    3f0a:	7000           	moveq #0,d0
    3f0c:	20c0           	move.l d0,(a0)+
    3f0e:	4298           	clr.l (a0)+
    3f10:	4298           	clr.l (a0)+
    3f12:	4298           	clr.l (a0)+
    3f14:	4298           	clr.l (a0)+
    3f16:	4298           	clr.l (a0)+
    3f18:	4298           	clr.l (a0)+
    3f1a:	4298           	clr.l (a0)+
    3f1c:	4298           	clr.l (a0)+
    3f1e:	4298           	clr.l (a0)+
    3f20:	4298           	clr.l (a0)+
    3f22:	4298           	clr.l (a0)+
    3f24:	4298           	clr.l (a0)+
    3f26:	4298           	clr.l (a0)+
    3f28:	4298           	clr.l (a0)+
    3f2a:	4298           	clr.l (a0)+
    3f2c:	4298           	clr.l (a0)+
    3f2e:	4298           	clr.l (a0)+
    3f30:	4298           	clr.l (a0)+
    3f32:	4298           	clr.l (a0)+
    3f34:	4298           	clr.l (a0)+
    3f36:	4298           	clr.l (a0)+
    3f38:	4298           	clr.l (a0)+
    3f3a:	4298           	clr.l (a0)+
    3f3c:	4298           	clr.l (a0)+
    3f3e:	4298           	clr.l (a0)+
    3f40:	4298           	clr.l (a0)+
    3f42:	4298           	clr.l (a0)+
    3f44:	4298           	clr.l (a0)+
    3f46:	4298           	clr.l (a0)+
    3f48:	4298           	clr.l (a0)+
    3f4a:	4298           	clr.l (a0)+
    3f4c:	4298           	clr.l (a0)+
    3f4e:	4298           	clr.l (a0)+
    3f50:	4298           	clr.l (a0)+
    3f52:	4298           	clr.l (a0)+
    3f54:	4298           	clr.l (a0)+
    3f56:	4298           	clr.l (a0)+
    3f58:	4298           	clr.l (a0)+
    3f5a:	4298           	clr.l (a0)+
    3f5c:	4298           	clr.l (a0)+
    3f5e:	4298           	clr.l (a0)+
    3f60:	4298           	clr.l (a0)+
    3f62:	4298           	clr.l (a0)+
    3f64:	4298           	clr.l (a0)+
    3f66:	4298           	clr.l (a0)+
    3f68:	4298           	clr.l (a0)+
    3f6a:	4298           	clr.l (a0)+
    3f6c:	4298           	clr.l (a0)+
    3f6e:	4298           	clr.l (a0)+
    3f70:	4298           	clr.l (a0)+
    3f72:	4298           	clr.l (a0)+
    3f74:	4298           	clr.l (a0)+
    3f76:	4298           	clr.l (a0)+
    3f78:	4298           	clr.l (a0)+
    3f7a:	4298           	clr.l (a0)+
    3f7c:	4298           	clr.l (a0)+
    3f7e:	4298           	clr.l (a0)+
    3f80:	4298           	clr.l (a0)+
    3f82:	4298           	clr.l (a0)+
    3f84:	4298           	clr.l (a0)+
    3f86:	4298           	clr.l (a0)+
    3f88:	4298           	clr.l (a0)+
    3f8a:	4290           	clr.l (a0)
    3f8c:	700f           	moveq #15,d0
    3f8e:	2c79 0000 0008 	movea.l 8 ___mulsi4+0x2,a6
			3f90: RELOC32	.bss
    3f94:	4eae ffdc      	jsr -36(a6)
    3f98:	23c0 0000 0018 	move.l d0,18 ___DARRAY_T_REDIM
			3f9a: RELOC32	.bss
    3f9e:	7032           	moveq #50,d0
    3fa0:	4eae ffdc      	jsr -36(a6)
    3fa4:	23c0 0000 001c 	move.l d0,1c __atimer_shutdown
			3fa6: RELOC32	.bss
    3faa:	2c79 0000 0000 	movea.l 0 _start,a6
			3fac: RELOC32	.bss
    3fb0:	41fa fef4      	lea 3ea6 _INKEY_+0xf0(pc),a0
    3fb4:	70ff           	moveq #-1,d0
    3fb6:	7200           	moveq #0,d1
    3fb8:	43f9 0000 0020 	lea 20 __debug_putc,a1
			3fba: RELOC32	.bss
    3fbe:	4eae fe44      	jsr -444(a6)
    3fc2:	4a00           	tst.b d0
    3fc4:	6612           	bne.s 3fd8 __awindow_init+0x122
    3fc6:	33fc 0001 0000 	move.w #1,50 __aqb_read2+0x10
    3fcc:	0050 
			3fca: RELOC32	.bss
    3fce:	23f9 0000 0034 	move.l 34 ___umodsi4+0x4,0 _start
    3fd4:	0000 0000 
			3fd0: RELOC32	.bss
			3fd4: RELOC32	.data
    3fd8:	0c79 0001 0000 	cmpi.w #1,18 ___DARRAY_T_REDIM
    3fde:	0018 
			3fdc: RELOC32	.bss
    3fe0:	57c0           	seq d0
    3fe2:	4880           	ext.w d0
    3fe4:	48c0           	ext.l d0
    3fe6:	4480           	neg.l d0
    3fe8:	23c0 0000 01a0 	move.l d0,1a0 ___pow_s1+0x2
			3fea: RELOC32	.bss
    3fee:	91c8           	suba.l a0,a0
    3ff0:	2c79 0000 0000 	movea.l 0 _start,a6
			3ff2: RELOC32	.bss
    3ff6:	4eae fe02      	jsr -510(a6)
    3ffa:	4a80           	tst.l d0
    3ffc:	6712           	beq.s 4010 __awindow_init+0x15a
    3ffe:	722c           	moveq #44,d1
    4000:	d280           	add.l d0,d1
    4002:	23c1 0000 000e 	move.l d1,e _SCREEN+0x2
			4004: RELOC32	.bss
    4008:	2240           	movea.l d0,a1
    400a:	91c8           	suba.l a0,a0
    400c:	4eae fdfc      	jsr -516(a6)
    4010:	2c5f           	movea.l (sp)+,a6
    4012:	4e75           	rts

Disassembly of section .text:

00000000 _start:
   0:	2f0e           	move.l a6,-(sp)
   2:	4a79           	.short 0x4a79
	...
			4: RELOC32	.bss

00000006 ___mulsi4:
   6:	0010 6668      	ori.b #104,(a0)
   a:	4a79           	.short 0x4a79

0000000c _SCREEN:
   c:	0000 000e      	ori.b #14,d0
			c: RELOC32	.bss

00000010 __aqb_read1:
  10:	6650           	bne.s 62 __aqb_read2+0x22
  12:	4a79 0000 000c 	tst.w c _SCREEN
			14: RELOC32	.bss

00000018 ___DARRAY_T_REDIM:
  18:	6640           	bne.s 5a __aqb_read2+0x1a
  1a:	2279           	.short 0x2279

0000001c __atimer_shutdown:
  1c:	0000 0008      	ori.b #8,d0
			1c: RELOC32	.bss

00000020 __debug_putc:
  20:	2009           	move.l a1,d0
  22:	670a           	beq.s 2e ___umodsi3+0x4
  24:	2c79 0000 0000 	movea.l 0 _start,a6
			26: RELOC32	.bss

0000002a ___umodsi3:
  2a:	4eae fe62      	jsr -414(a6)
  2e:	2279           	.short 0x2279

00000030 ___umodsi4:
  30:	0000 0004      	ori.b #4,d0
			30: RELOC32	.bss
  34:	2009           	move.l a1,d0

00000036 __aqb_clear:
  36:	670a           	beq.s 42 __aqb_read2+0x2
  38:	2c79           	.short 0x2c79
	...
			3a: RELOC32	.bss

0000003c ___udivsi4:
	...

0000003e _foo:
  3e:	4eae           	.short 0x4eae

00000040 __aqb_read2:
  40:	fe62           	.short 0xfe62
  42:	2279 0000 0000 	movea.l 0 _start,a1
			44: RELOC32	.bss
  48:	2009           	move.l a1,d0
  4a:	670a           	beq.s 56 __aqb_read2+0x16
  4c:	2c79 0000 0000 	movea.l 0 _start,a6
			4e: RELOC32	.bss
  52:	4eae fe62      	jsr -414(a6)
  56:	2c5f           	movea.l (sp)+,a6
  58:	4e75           	rts
  5a:	4eb9 0000 05fc 	jsr 5fc __awindow_shutdown
			5c: RELOC32	.text
  60:	60b8           	bra.s 1a ___DARRAY_T_REDIM+0x2
  62:	4eb9 0000 001c 	jsr 1c __atimer_shutdown
			64: RELOC32	.text
  68:	4a79 0000 000c 	tst.w c _SCREEN
			6a: RELOC32	.bss

0000006e __aqb_read4:
  6e:	67aa           	beq.s 1a ___DARRAY_T_REDIM+0x2

00000070 _DEALLOCATE:
  70:	60e8           	bra.s 5a __aqb_read2+0x1a

00000072 __MEMSET:
  72:	4eb9 0000 0ec0 	jsr ec0 __asound_shutdown
			74: RELOC32	.text

00000078 __atimer_process_signals:
  78:	4a79 0000 000e 	tst.w e _SCREEN+0x2
			7a: RELOC32	.bss
  7e:	6792           	beq.s 12 __aqb_read1+0x2
  80:	60e0           	bra.s 62 __aqb_read2+0x22

00000082 ___modsi3:
  82:	696e           	bvs.s f2 _ON_ERROR_CALL+0x8
  84:	7475           	moveq #117,d2

00000086 __autil_exit:
  86:	6974           	bvs.s fc _ON_ERROR_CALL+0x12

00000088 ___modsi4:
  88:	696f           	bvs.s f9 _ON_ERROR_CALL+0xf
  8a:	6e2e           	bgt.s ba _SOUND
  8c:	6c69           	bge.s f7 _ON_ERROR_CALL+0xd

0000008e ___divsi3:
  8e:	6272           	bhi.s 102 _ON_ERROR_CALL+0x18
  90:	6172           	bsr.s 104 ___pow_u4
  92:	7900           	.short 0x7900

00000094 ___divsi4:
  94:	2a2a 2a20      	move.l 10784(a2),d5
  98:	6572           	bcs.s 10c __aio_putnl+0x2

0000009a _TAGITEMS_:
  9a:	726f           	moveq #111,d1

0000009c __aqb_assert:
  9c:	723a           	moveq #58,d1
  9e:	2066           	movea.l -(a6),a0

000000a0 __aio_set_dos_cursor_visible:
  a0:	6169           	bsr.s 10b __aio_putnl+0x1
  a2:	6c65           	bge.s 109 ___pow_u4+0x5
  a4:	6420           	bcc.s c6 ___pow_s4+0x4
  a6:	746f           	moveq #111,d2
  a8:	206f 7065      	movea.l 28773(sp),a0
  ac:	6e20           	bgt.s ce __debug_puts+0x2

000000ae _TAGS_:
  ae:	696e           	bvs.s 11e _ERROR
  b0:	7475           	moveq #117,d2
  b2:	6974           	bvs.s 128 _ERROR+0xa
  b4:	696f           	bvs.s 125 _ERROR+0x7
  b6:	6e2e           	bgt.s e6 __debug_puts+0x1a
  b8:	6c69           	bge.s 123 _ERROR+0x5

000000ba _SOUND:
  ba:	6272           	bhi.s 12e _ERROR+0x10
  bc:	6172           	bsr.s 130 _ERROR+0x12
  be:	7921           	.short 0x7921
  c0:	0a00           	Address 0x00000000000000c2 is out of bounds.
.short 0x0a00

000000c2 ___pow_s4:
  c2:	6772           	beq.s 136 _ERROR+0x18
  c4:	6170           	bsr.s 136 _ERROR+0x18
  c6:	6869           	bvc.s 131 _ERROR+0x13
  c8:	6373           	bls.s 13d _SCREEN_CLOSE+0x5
  ca:	2e6c           	.short 0x2e6c

000000cc __debug_puts:
  cc:	6962           	bvs.s 130 _ERROR+0x12
  ce:	7261           	moveq #97,d1
  d0:	7279           	moveq #121,d1
  d2:	002a 2a2a 2065 	ori.b #42,8293(a2)
  d8:	7272           	moveq #114,d1
  da:	6f72           	ble.s 14e ___pow_s2+0x8
  dc:	3a20           	move.w -(a0),d5
  de:	6661           	bne.s 141 ___aqb_init+0x3
  e0:	696c           	bvs.s 14e ___pow_s2+0x8
  e2:	6564           	bcs.s 148 ___pow_s2+0x2
  e4:	2074 6f20 6f70 	movea.l (28528,a4,d6.l*8),a0

000000ea _ON_ERROR_CALL:
  ea:	656e           	bcs.s 15a ___pow_s2+0x14
  ec:	2067           	movea.l -(sp),a0
  ee:	7261           	moveq #97,d1
  f0:	7068           	moveq #104,d0
  f2:	6963           	bvs.s 157 ___pow_s2+0x11
  f4:	732e           	.short 0x732e
  f6:	6c69           	bge.s 161 ___pow_s2+0x1b
  f8:	6272           	bhi.s 16c ___pow_s2+0x26
  fa:	6172           	bsr.s 16e ___pow_s2+0x28
  fc:	7921           	.short 0x7921
  fe:	0a00 6469      	eori.b #105,d0
 102:	736b           	.short 0x736b

00000104 ___pow_u4:
 104:	666f           	bne.s 175 ___pow_u2+0x3
 106:	6e74           	bgt.s 17c ___pow_u2+0xa
 108:	2e6c           	.short 0x2e6c

0000010a __aio_putnl:
 10a:	6962           	bvs.s 16e ___pow_s2+0x28
 10c:	7261           	moveq #97,d1
 10e:	7279           	moveq #121,d1
 110:	002a 2a2a 2065 	ori.b #42,8293(a2)
 116:	7272           	moveq #114,d1
 118:	6f72           	ble.s 18c __debug_puts1
 11a:	3a20           	move.w -(a0),d5
 11c:	6661           	bne.s 17f ___pow_u2+0xd

0000011e _ERROR:
 11e:	696c           	bvs.s 18c __debug_puts1
 120:	6564           	bcs.s 186 ___pow_u2+0x14
 122:	2074 6f20 6f70 	movea.l (28528,a4,d6.l*8),a0
 128:	656e           	bcs.s 198 _WINDOW
 12a:	2064           	movea.l -(a4),a0
 12c:	6973           	bvs.s 1a1 ___pow_s1+0x3
 12e:	6b66           	bmi.s 196 __debug_puts1+0xa
 130:	6f6e           	ble.s 1a0 ___pow_s1+0x2
 132:	742e           	moveq #46,d2
 134:	6c69           	bge.s 19f ___pow_s1+0x1
 136:	6272           	bhi.s 1aa ___pow_s1+0xc

00000138 _SCREEN_CLOSE:
 138:	6172           	bsr.s 1ac ___pow_s1+0xe
 13a:	7921           	.short 0x7921
 13c:	0a00           	Address 0x000000000000013e is out of bounds.
.short 0x0a00

0000013e ___aqb_init:
 13e:	4e55 0000      	link.w a5,#0

00000142 __astr_itoa:
 142:	2f0e           	move.l a6,-(sp)
 144:	487a           	.short 0x487a

00000146 ___pow_s2:
 146:	feba           	.short 0xfeba
 148:	4eb9 0000 0a74 	jsr a74 _ON_EXIT_CALL
			14a: RELOC32	.text
 14e:	2c79 0000 0000 	movea.l 0 _start,a6
			150: RELOC32	.bss
 154:	7000           	moveq #0,d0
 156:	43fa ff2a      	lea 82 ___modsi3(pc),a1
 15a:	4eae fdd8      	jsr -552(a6)
 15e:	23c0 0000 0000 	move.l d0,0 _start
			160: RELOC32	.bss
 164:	588f           	addq.l #4,sp
 166:	6700 009c      	beq.w 204 ___mod_s1+0xa
 16a:	7000           	moveq #0,d0
 16c:	43fa ff54      	lea c2 ___pow_s4(pc),a1
 170:	4eae           	.short 0x4eae

00000172 ___pow_u2:
 172:	fdd8           	.short 0xfdd8
 174:	23c0 0000 0004 	move.l d0,4 _start+0x4
			176: RELOC32	.bss
 17a:	6700 00b2      	beq.w 22e ___DARRAY_T_UBOUND_+0x4
 17e:	7000           	moveq #0,d0
 180:	43fa ff7e      	lea 100 _ON_ERROR_CALL+0x16(pc),a1
 184:	4eae fdd8      	jsr -552(a6)
 188:	23c0           	.short 0x23c0
	...
			18a: RELOC32	.bss

0000018c __debug_puts1:
 18c:	0008           	.short 0x0008
 18e:	6732           	beq.s 1c2 __aio_puttab+0x6
 190:	4eb9 0000 3eb6 	jsr 3eb6 __awindow_init
			192: RELOC32	.text
 196:	33fc           	.short 0x33fc

00000198 _WINDOW:
 198:	0001 0000      	ori.b #0,d1
			19a: RELOC32	.bss
 19c:	000c           	Address 0x000000000000019e is out of bounds.
.short 0x000c

0000019e ___pow_s1:
 19e:	4eb9 0000 0000 	jsr 0 _start
			1a0: RELOC32	.text
 1a4:	33fc 0001 0000 	move.w #1,e _SCREEN+0x2
 1aa:	000e 
			1a8: RELOC32	.bss
 1ac:	4eb9 0000 0dc0 	jsr dc0 __asound_init
			1ae: RELOC32	.text
 1b2:	33fc 0001 0000 	move.w #1,10 __aqb_read1
 1b8:	0010 
			1b6: RELOC32	.bss

000001ba _RESUME_NEXT:
 1ba:	2c6d           	.short 0x2c6d

000001bc __aio_puttab:
 1bc:	fffc           	.short 0xfffc
 1be:	4e5d           	unlk a5
 1c0:	4e75           	rts
 1c2:	487a           	.short 0x487a

000001c4 _TIMER_:
 1c4:	ff4d           	.short 0xff4d
 1c6:	4878 0014      	pea 14 __aqb_read1+0x4

000001ca ___mul_s1:
 1ca:	4eb9 0000 0cae 	jsr cae __cshutdown
			1cc: RELOC32	.text
 1d0:	508f           	addq.l #8,sp
 1d2:	4eb9 0000 3eb6 	jsr 3eb6 __awindow_init
			1d4: RELOC32	.text
 1d8:	33fc           	.short 0x33fc

000001da ___div_s1:
 1da:	0001 0000      	ori.b #0,d1
			1dc: RELOC32	.bss
 1de:	000c           	.short 0x000c
 1e0:	4eb9 0000 0000 	jsr 0 _start
			1e2: RELOC32	.text
 1e6:	33fc           	.short 0x33fc

000001e8 ___DARRAY_T_LBOUND_:
 1e8:	0001 0000      	ori.b #0,d1
			1ea: RELOC32	.bss
 1ec:	000e           	.short 0x000e
 1ee:	4eb9 0000 0dc0 	jsr dc0 __asound_init
			1f0: RELOC32	.text
 1f4:	33fc           	.short 0x33fc
 1f6:	0001 0000      	ori.b #0,d1
			1f8: RELOC32	.bss

000001fa ___mod_s1:
 1fa:	0010 2c6d      	ori.b #109,(a0)
 1fe:	fffc           	.short 0xfffc
 200:	4e5d           	unlk a5
 202:	4e75           	rts
 204:	487a fe8e      	pea 94 ___divsi4(pc)
 208:	4878 0014      	pea 14 __aqb_read1+0x4
 20c:	4eb9 0000 0cae 	jsr cae __cshutdown
			20e: RELOC32	.text
 212:	508f           	addq.l #8,sp
 214:	2c79           	.short 0x2c79
	...
			216: RELOC32	.bss

00000218 _DATE_:
	...

0000021a ___pow_u1:
 21a:	7000           	moveq #0,d0
 21c:	43fa fea4      	lea c2 ___pow_s4(pc),a1
 220:	4eae fdd8      	jsr -552(a6)
 224:	23c0 0000 0004 	move.l d0,4 _start+0x4
			226: RELOC32	.bss

0000022a ___DARRAY_T_UBOUND_:
 22a:	6600 ff52      	bne.w 17e ___pow_u2+0xc
 22e:	487a fea3      	pea d3 __debug_puts+0x7(pc)
 232:	4878 0014      	pea 14 __aqb_read1+0x4
 236:	4eb9 0000 0cae 	jsr cae __cshutdown
			238: RELOC32	.text
 23c:	508f           	addq.l #8,sp
 23e:	2c79 0000 0000 	movea.l 0 _start,a6
			240: RELOC32	.bss
 244:	7000           	moveq #0,d0

00000246 ___mul_u1:
 246:	43fa feb8      	lea 100 _ON_ERROR_CALL+0x16(pc),a1

0000024a __astr_utoa_ext:
 24a:	4eae fdd8      	jsr -552(a6)
 24e:	23c0 0000 0008 	move.l d0,8 ___mulsi4+0x2
			250: RELOC32	.bss
 254:	6600           	.short 0x6600

00000256 ___div_u1:
 256:	ff3a           	.short 0xff3a
 258:	6000 ff68      	bra.w 1c2 __aio_puttab+0x6

Disassembly of section .text:

00000000 _start:
   0:	2f0e           	move.l a6,-(sp)
   2:	203c           	.short 0x203c
   4:	000f           	Address 0x0000000000000006 is out of bounds.
.short 0x000f

00000006 ___mulsi4:
   6:	4240           	clr.w d0
   8:	2c79           	.short 0x2c79
	...
			a: RELOC32	.bss

0000000c _SCREEN:
   c:	0008           	.short 0x0008
   e:	4eae           	.short 0x4eae

00000010 __aqb_read1:
  10:	ffdc           	.short 0xffdc
  12:	23c0 0000 00a4 	move.l d0,a4 __aio_set_dos_cursor_visible+0x4
			14: RELOC32	.bss

00000018 ___DARRAY_T_REDIM:
  18:	2c5f           	movea.l (sp)+,a6
  1a:	4e75           	rts

0000001c __atimer_shutdown:
  1c:	4e55 0000      	link.w a5,#0

00000020 __debug_putc:
  20:	48e7 203a      	movem.l d2/a2-a4/a6,-(sp)
  24:	45f9 0000 0014 	lea 14 __aqb_read1+0x4,a2
			26: RELOC32	.bss

0000002a ___umodsi3:
  2a:	7408           	moveq #8,d2
  2c:	49f9           	.short 0x49f9
	...
			2e: RELOC32	.text

00000030 ___umodsi4:
  30:	063a           	.short 0x063a
  32:	47f9           	.short 0x47f9
	...
			34: RELOC32	.text

00000036 __aqb_clear:
  36:	0572 2252      	bchg d2,(82,a2,d2.w*2)
  3a:	2009           	move.l a1,d0

0000003c ___udivsi4:
  3c:	6718           	beq.s 56 __aqb_read2+0x16

0000003e _foo:
  3e:	2c79           	.short 0x2c79

00000040 __aqb_read2:
  40:	0000 0000      	ori.b #0,d0
			40: RELOC32	.bss
  44:	4eae fe20      	jsr -480(a6)
  48:	2252           	movea.l (a2),a1
  4a:	4eae fe3e      	jsr -450(a6)
  4e:	2f12           	move.l (a2),-(sp)
  50:	4e94           	jsr (a4)
  52:	4292           	clr.l (a2)
  54:	588f           	addq.l #4,sp
  56:	202a fffc      	move.l -4(a2),d0
  5a:	670a           	beq.s 66 __aqb_read2+0x26
  5c:	2f00           	move.l d0,-(sp)
  5e:	4e93           	jsr (a3)
  60:	42aa fffc      	clr.l -4(a2)
  64:	588f           	addq.l #4,sp
  66:	5382           	subq.l #1,d2
  68:	45ea 0014      	lea 20(a2),a2
  6c:	66ca           	bne.s 38 __aqb_clear+0x2

0000006e __aqb_read4:
  6e:	4ced           	Address 0x0000000000000070 is out of bounds.
.short 0x4ced

00000070 _DEALLOCATE:
  70:	5c04           	addq.b #6,d4

00000072 __MEMSET:
  72:	ffec           	.short 0xffec
  74:	4e5d           	unlk a5
  76:	4e75           	rts

00000078 __atimer_process_signals:
  78:	4e55 0000      	link.w a5,#0
  7c:	2f0e           	move.l a6,-(sp)
  7e:	2f02           	move.l d2,-(sp)
  80:	2279           	.short 0x2279

00000082 ___modsi3:
  82:	0000 0004      	ori.b #4,d0
			82: RELOC32	.bss

00000086 __autil_exit:
  86:	242d           	.short 0x242d

00000088 ___modsi4:
  88:	0008           	.short 0x0008
  8a:	2009           	move.l a1,d0
  8c:	6716           	beq.s a4 __aio_set_dos_cursor_visible+0x4

0000008e ___divsi3:
  8e:	2079 0000 0010 	movea.l 10 __aqb_read1,a0
			90: RELOC32	.bss

00000094 ___divsi4:
  94:	2008           	move.l a0,d0
  96:	670c           	beq.s a4 __aio_set_dos_cursor_visible+0x4
  98:	7000           	moveq #0,d0

0000009a _TAGITEMS_:
  9a:	1028           	.short 0x1028

0000009c __aqb_assert:
  9c:	000f           	.short 0x000f
  9e:	0102           	btst d0,d2

000000a0 __aio_set_dos_cursor_visible:
  a0:	6600 0268      	bne.w 30a ___DARRAY_T_CLEAR+0x22
  a4:	2279 0000 0018 	movea.l 18 ___DARRAY_T_REDIM,a1
			a6: RELOC32	.bss
  aa:	2009           	move.l a1,d0
  ac:	6716           	beq.s c4 ___pow_s4+0x2

000000ae _TAGS_:
  ae:	2079 0000 0024 	movea.l 24 __debug_putc+0x4,a0
			b0: RELOC32	.bss
  b4:	2008           	move.l a0,d0
  b6:	670c           	beq.s c4 ___pow_s4+0x2
  b8:	7000           	moveq #0,d0

000000ba _SOUND:
  ba:	1028 000f      	move.b 15(a0),d0
  be:	0102           	btst d0,d2
  c0:	6600           	.short 0x6600

000000c2 ___pow_s4:
  c2:	0212 2279      	andi.b #121,(a2)
  c6:	0000 002c      	ori.b #44,d0
			c6: RELOC32	.bss
  ca:	2009           	move.l a1,d0

000000cc __debug_puts:
  cc:	6716           	beq.s e4 __debug_puts+0x18
  ce:	2079 0000 0038 	movea.l 38 __aqb_clear+0x2,a0
			d0: RELOC32	.bss
  d4:	2008           	move.l a0,d0
  d6:	670c           	beq.s e4 __debug_puts+0x18
  d8:	7000           	moveq #0,d0
  da:	1028 000f      	move.b 15(a0),d0
  de:	0102           	btst d0,d2
  e0:	6600 01bc      	bne.w 29e ___aqb_mod+0xc
  e4:	2279 0000 0040 	movea.l 40 __aqb_read2,a1
			e6: RELOC32	.bss

000000ea _ON_ERROR_CALL:
  ea:	2009           	move.l a1,d0
  ec:	6716           	beq.s 104 ___pow_u4
  ee:	2079 0000 004c 	movea.l 4c __aqb_read2+0xc,a0
			f0: RELOC32	.bss
  f4:	2008           	move.l a0,d0
  f6:	670c           	beq.s 104 ___pow_u4
  f8:	7000           	moveq #0,d0
  fa:	1028 000f      	move.b 15(a0),d0
  fe:	0102           	btst d0,d2
 100:	6600 0166      	bne.w 268 ___div_u1+0x12

00000104 ___pow_u4:
 104:	2279 0000 0054 	movea.l 54 __aqb_read2+0x14,a1
			106: RELOC32	.bss

0000010a __aio_putnl:
 10a:	2009           	move.l a1,d0
 10c:	6716           	beq.s 124 _ERROR+0x6
 10e:	2079 0000 0060 	movea.l 60 __aqb_read2+0x20,a0
			110: RELOC32	.bss
 114:	2008           	move.l a0,d0
 116:	670c           	beq.s 124 _ERROR+0x6
 118:	7000           	moveq #0,d0
 11a:	1028 000f      	move.b 15(a0),d0

0000011e _ERROR:
 11e:	0102           	btst d0,d2
 120:	6600 0110      	bne.w 232 ___DARRAY_T_UBOUND_+0x8
 124:	2279 0000 0068 	movea.l 68 __aqb_read2+0x28,a1
			126: RELOC32	.bss
 12a:	2009           	move.l a1,d0
 12c:	6716           	beq.s 144 __astr_itoa+0x2
 12e:	2079 0000 0074 	movea.l 74 __MEMSET+0x2,a0
			130: RELOC32	.bss
 134:	2008           	move.l a0,d0
 136:	670c           	beq.s 144 __astr_itoa+0x2

00000138 _SCREEN_CLOSE:
 138:	7000           	moveq #0,d0
 13a:	1028 000f      	move.b 15(a0),d0

0000013e ___aqb_init:
 13e:	0102           	btst d0,d2
 140:	6600           	.short 0x6600

00000142 __astr_itoa:
 142:	00ba           	Address 0x0000000000000144 is out of bounds.
.short 0x00ba
 144:	2279           	.short 0x2279

00000146 ___pow_s2:
 146:	0000 007c      	ori.b #124,d0
			146: RELOC32	.bss
 14a:	2009           	move.l a1,d0
 14c:	6714           	beq.s 162 ___pow_s2+0x1c
 14e:	2079 0000 0088 	movea.l 88 ___modsi4,a0
			150: RELOC32	.bss
 154:	2008           	move.l a0,d0
 156:	670a           	beq.s 162 ___pow_s2+0x1c
 158:	7000           	moveq #0,d0
 15a:	1028 000f      	move.b 15(a0),d0
 15e:	0102           	btst d0,d2
 160:	6666           	bne.s 1c8 _TIMER_+0x4
 162:	2279 0000 0090 	movea.l 90 ___divsi3+0x2,a1
			164: RELOC32	.bss
 168:	2009           	move.l a1,d0
 16a:	6714           	beq.s 180 ___pow_u2+0xe
 16c:	2079 0000 009c 	movea.l 9c __aqb_assert,a0
			16e: RELOC32	.bss

00000172 ___pow_u2:
 172:	2008           	move.l a0,d0
 174:	670a           	beq.s 180 ___pow_u2+0xe
 176:	7000           	moveq #0,d0
 178:	1028 000f      	move.b 15(a0),d0
 17c:	0102           	btst d0,d2
 17e:	660c           	bne.s 18c __debug_puts1
 180:	242d fff8      	move.l -8(a5),d2
 184:	2c6d fffc      	movea.l -4(a5),a6
 188:	4e5d           	unlk a5
 18a:	4e75           	rts

0000018c __debug_puts1:
 18c:	4e91           	jsr (a1)
 18e:	2279 0000 00a0 	movea.l a0 __aio_set_dos_cursor_visible,a1
			190: RELOC32	.bss
 194:	2009           	move.l a1,d0
 196:	67e8           	beq.s 180 ___pow_u2+0xe

00000198 _WINDOW:
 198:	337c 0009 001c 	move.w #9,28(a1)

0000019e ___pow_s1:
 19e:	2039 0000 0094 	move.l 94 ___divsi4,d0
			1a0: RELOC32	.bss
 1a4:	2239 0000 0098 	move.l 98 ___divsi4+0x4,d1
			1a6: RELOC32	.bss
 1aa:	2340 0020      	move.l d0,32(a1)
 1ae:	2341 0024      	move.l d1,36(a1)
 1b2:	2c79 0000 0000 	movea.l 0 _start,a6
			1b4: RELOC32	.bss
 1b8:	4eae           	.short 0x4eae

000001ba _RESUME_NEXT:
 1ba:	fe32           	Address 0x00000000000001bc is out of bounds.
Address 0x00000000000001bc is out of bounds.
Address 0x00000000000001bc is out of bounds.
Address 0x00000000000001bc is out of bounds.
Address 0x00000000000001bc is out of bounds.
Address 0x00000000000001bc is out of bounds.
Address 0x00000000000001bc is out of bounds.
Address 0x00000000000001bc is out of bounds.
Address 0x00000000000001bc is out of bounds.
Address 0x00000000000001bc is out of bounds.
Address 0x00000000000001bc is out of bounds.
Address 0x00000000000001bc is out of bounds.
Address 0x00000000000001bc is out of bounds.
Address 0x00000000000001bc is out of bounds.
Address 0x00000000000001bc is out of bounds.
Address 0x00000000000001bc is out of bounds.
Address 0x00000000000001bc is out of bounds.
Address 0x00000000000001bc is out of bounds.
Address 0x00000000000001bc is out of bounds.
Address 0x00000000000001bc is out of bounds.
Address 0x00000000000001bc is out of bounds.
Address 0x00000000000001bc is out of bounds.
Address 0x00000000000001bc is out of bounds.
Address 0x00000000000001bc is out of bounds.
Address 0x00000000000001bc is out of bounds.
Address 0x00000000000001bc is out of bounds.
Address 0x00000000000001bc is out of bounds.
Address 0x00000000000001bc is out of bounds.
Address 0x00000000000001bc is out of bounds.
Address 0x00000000000001bc is out of bounds.
Address 0x00000000000001bc is out of bounds.
Address 0x00000000000001bc is out of bounds.
Address 0x00000000000001bc is out of bounds.
Address 0x00000000000001bc is out of bounds.
Address 0x00000000000001bc is out of bounds.
Address 0x00000000000001bc is out of bounds.
Address 0x00000000000001bc is out of bounds.
Address 0x00000000000001bc is out of bounds.
Address 0x00000000000001bc is out of bounds.
Address 0x00000000000001bc is out of bounds.
Address 0x00000000000001bc is out of bounds.
Address 0x00000000000001bc is out of bounds.
Address 0x00000000000001bc is out of bounds.
Address 0x00000000000001bc is out of bounds.
Address 0x00000000000001bc is out of bounds.
Address 0x00000000000001bc is out of bounds.
Address 0x00000000000001bc is out of bounds.
Address 0x00000000000001bc is out of bounds.
Address 0x00000000000001bc is out of bounds.
Address 0x00000000000001bc is out of bounds.
Address 0x00000000000001bc is out of bounds.
Address 0x00000000000001bc is out of bounds.
Address 0x00000000000001bc is out of bounds.
Address 0x00000000000001bc is out of bounds.
Address 0x00000000000001bc is out of bounds.
Address 0x00000000000001bc is out of bounds.
Address 0x00000000000001bc is out of bounds.
Address 0x00000000000001bc is out of bounds.
Address 0x00000000000001bc is out of bounds.
Address 0x00000000000001bc is out of bounds.
Address 0x00000000000001bc is out of bounds.
Address 0x00000000000001bc is out of bounds.
Address 0x00000000000001bc is out of bounds.
Address 0x00000000000001bc is out of bounds.
Address 0x00000000000001bc is out of bounds.
Address 0x00000000000001bc is out of bounds.
Address 0x00000000000001bc is out of bounds.
Address 0x00000000000001bc is out of bounds.
Address 0x00000000000001bc is out of bounds.
Address 0x00000000000001bc is out of bounds.
Address 0x00000000000001bc is out of bounds.
Address 0x00000000000001bc is out of bounds.
Address 0x00000000000001bc is out of bounds.
Address 0x00000000000001bc is out of bounds.
Address 0x00000000000001bc is out of bounds.
Address 0x00000000000001bc is out of bounds.
Address 0x00000000000001bc is out of bounds.
Address 0x00000000000001bc is out of bounds.
Address 0x00000000000001bc is out of bounds.
Address 0x00000000000001bc is out of bounds.
Address 0x00000000000001bc is out of bounds.
Address 0x00000000000001bc is out of bounds.
Address 0x00000000000001bc is out of bounds.
Address 0x00000000000001bc is out of bounds.
Address 0x00000000000001bc is out of bounds.
Address 0x00000000000001bc is out of bounds.
Address 0x00000000000001bc is out of bounds.
Address 0x00000000000001bc is out of bounds.
Address 0x00000000000001bc is out of bounds.
Address 0x00000000000001bc is out of bounds.
Address 0x00000000000001bc is out of bounds.
Address 0x00000000000001bc is out of bounds.
Address 0x00000000000001bc is out of bounds.
Address 0x00000000000001bc is out of bounds.
Address 0x00000000000001bc is out of bounds.
Address 0x00000000000001bc is out of bounds.
Address 0x00000000000001bc is out of bounds.
Address 0x00000000000001bc is out of bounds.
Address 0x00000000000001bc is out of bounds.
Address 0x00000000000001bc is out of bounds.
Address 0x00000000000001bc is out of bounds.
Address 0x00000000000001bc is out of bounds.
Address 0x00000000000001bc is out of bounds.
Address 0x00000000000001bc is out of bounds.
Address 0x00000000000001bc is out of bounds.
Address 0x00000000000001bc is out of bounds.
Address 0x00000000000001bc is out of bounds.
Address 0x00000000000001bc is out of bounds.
Address 0x00000000000001bc is out of bounds.
Address 0x00000000000001bc is out of bounds.
Address 0x00000000000001bc is out of bounds.
Address 0x00000000000001bc is out of bounds.
Address 0x00000000000001bc is out of bounds.
Address 0x00000000000001bc is out of bounds.
Address 0x00000000000001bc is out of bounds.
Address 0x00000000000001bc is out of bounds.
Address 0x00000000000001bc is out of bounds.
Address 0x00000000000001bc is out of bounds.
Address 0x00000000000001bc is out of bounds.
Address 0x00000000000001bc is out of bounds.
Address 0x00000000000001bc is out of bounds.
Address 0x00000000000001bc is out of bounds.
Address 0x00000000000001bc is out of bounds.
Address 0x00000000000001bc is out of bounds.
Address 0x00000000000001bc is out of bounds.
Address 0x00000000000001bc is out of bounds.
Address 0x00000000000001bc is out of bounds.
Address 0x00000000000001bc is out of bounds.
Address 0x00000000000001bc is out of bounds.
Address 0x00000000000001bc is out of bounds.
Address 0x00000000000001bc is out of bounds.
Address 0x00000000000001bc is out of bounds.
Address 0x00000000000001bc is out of bounds.
Address 0x00000000000001bc is out of bounds.
Address 0x00000000000001bc is out of bounds.
Address 0x00000000000001bc is out of bounds.
Address 0x00000000000001bc is out of bounds.
Address 0x00000000000001bc is out of bounds.
Address 0x00000000000001bc is out of bounds.
Address 0x00000000000001bc is out of bounds.
Address 0x00000000000001bc is out of bounds.
Address 0x00000000000001bc is out of bounds.
Address 0x00000000000001bc is out of bounds.
Address 0x00000000000001bc is out of bounds.
Address 0x00000000000001bc is out of bounds.
Address 0x00000000000001bc is out of bounds.
Address 0x00000000000001bc is out of bounds.
Address 0x00000000000001bc is out of bounds.
Address 0x00000000000001bc is out of bounds.
Address 0x00000000000001bc is out of bounds.
Address 0x00000000000001bc is out of bounds.
Address 0x00000000000001bc is out of bounds.
Address 0x00000000000001bc is out of bounds.
Address 0x00000000000001bc is out of bounds.
Address 0x00000000000001bc is out of bounds.
Address 0x00000000000001bc is out of bounds.
Address 0x00000000000001bc is out of bounds.
Address 0x00000000000001bc is out of bounds.
Address 0x00000000000001bc is out of bounds.
Address 0x00000000000001bc is out of bounds.
Address 0x00000000000001bc is out of bounds.
Address 0x00000000000001bc is out of bounds.
Address 0x00000000000001bc is out of bounds.
Address 0x00000000000001bc is out of bounds.
Address 0x00000000000001bc is out of bounds.
Address 0x00000000000001bc is out of bounds.
Address 0x00000000000001bc is out of bounds.
Address 0x00000000000001bc is out of bounds.
Address 0x00000000000001bc is out of bounds.
Address 0x00000000000001bc is out of bounds.
Address 0x00000000000001bc is out of bounds.
Address 0x00000000000001bc is out of bounds.
Address 0x00000000000001bc is out of bounds.
Address 0x00000000000001bc is out of bounds.
Address 0x00000000000001bc is out of bounds.
Address 0x00000000000001bc is out of bounds.
Address 0x00000000000001bc is out of bounds.
Address 0x00000000000001bc is out of bounds.
Address 0x00000000000001bc is out of bounds.
Address 0x00000000000001bc is out of bounds.
Address 0x00000000000001bc is out of bounds.
Address 0x00000000000001bc is out of bounds.
Address 0x00000000000001bc is out of bounds.
Address 0x00000000000001bc is out of bounds.
Address 0x00000000000001bc is out of bounds.
Address 0x00000000000001bc is out of bounds.
Address 0x00000000000001bc is out of bounds.
Address 0x00000000000001bc is out of bounds.
Address 0x00000000000001bc is out of bounds.
Address 0x00000000000001bc is out of bounds.
Address 0x00000000000001bc is out of bounds.
Address 0x00000000000001bc is out of bounds.
Address 0x00000000000001bc is out of bounds.
Address 0x00000000000001bc is out of bounds.
Address 0x00000000000001bc is out of bounds.
Address 0x00000000000001bc is out of bounds.
Address 0x00000000000001bc is out of bounds.
Address 0x00000000000001bc is out of bounds.
Address 0x00000000000001bc is out of bounds.
Address 0x00000000000001bc is out of bounds.
Address 0x00000000000001bc is out of bounds.
Address 0x00000000000001bc is out of bounds.
Address 0x00000000000001bc is out of bounds.
Address 0x00000000000001bc is out of bounds.
Address 0x00000000000001bc is out of bounds.
Address 0x00000000000001bc is out of bounds.
Address 0x00000000000001bc is out of bounds.
Address 0x00000000000001bc is out of bounds.
Address 0x00000000000001bc is out of bounds.
Address 0x00000000000001bc is out of bounds.
Address 0x00000000000001bc is out of bounds.
Address 0x00000000000001bc is out of bounds.
Address 0x00000000000001bc is out of bounds.
Address 0x00000000000001bc is out of bounds.
Address 0x00000000000001bc is out of bounds.
Address 0x00000000000001bc is out of bounds.
Address 0x00000000000001bc is out of bounds.
Address 0x00000000000001bc is out of bounds.
Address 0x00000000000001bc is out of bounds.
Address 0x00000000000001bc is out of bounds.
Address 0x00000000000001bc is out of bounds.
Address 0x00000000000001bc is out of bounds.
Address 0x00000000000001bc is out of bounds.
Address 0x00000000000001bc is out of bounds.
Address 0x00000000000001bc is out of bounds.
Address 0x00000000000001bc is out of bounds.
Address 0x00000000000001bc is out of bounds.
Address 0x00000000000001bc is out of bounds.
Address 0x00000000000001bc is out of bounds.
Address 0x00000000000001bc is out of bounds.
Address 0x00000000000001bc is out of bounds.
Address 0x00000000000001bc is out of bounds.
Address 0x00000000000001bc is out of bounds.
Address 0x00000000000001bc is out of bounds.
Address 0x00000000000001bc is out of bounds.
Address 0x00000000000001bc is out of bounds.
Address 0x00000000000001bc is out of bounds.
Address 0x00000000000001bc is out of bounds.
Address 0x00000000000001bc is out of bounds.
Address 0x00000000000001bc is out of bounds.
Address 0x00000000000001bc is out of bounds.
Address 0x00000000000001bc is out of bounds.
Address 0x00000000000001bc is out of bounds.
Address 0x00000000000001bc is out of bounds.
Address 0x00000000000001bc is out of bounds.
Address 0x00000000000001bc is out of bounds.
Address 0x00000000000001bc is out of bounds.
Address 0x00000000000001bc is out of bounds.
Address 0x00000000000001bc is out of bounds.
Address 0x00000000000001bc is out of bounds.
Address 0x00000000000001bc is out of bounds.
Address 0x00000000000001bc is out of bounds.
Address 0x00000000000001bc is out of bounds.
Address 0x00000000000001bc is out of bounds.
Address 0x00000000000001bc is out of bounds.
Address 0x00000000000001bc is out of bounds.
Address 0x00000000000001bc is out of bounds.
Address 0x00000000000001bc is out of bounds.
Address 0x00000000000001bc is out of bounds.
Address 0x00000000000001bc is out of bounds.
Address 0x00000000000001bc is out of bounds.
Address 0x00000000000001bc is out of bounds.
Address 0x00000000000001bc is out of bounds.
Address 0x00000000000001bc is out of bounds.
Address 0x00000000000001bc is out of bounds.
Address 0x00000000000001bc is out of bounds.
Address 0x00000000000001bc is out of bounds.
Address 0x00000000000001bc is out of bounds.
Address 0x00000000000001bc is out of bounds.
Address 0x00000000000001bc is out of bounds.
Address 0x00000000000001bc is out of bounds.
Address 0x00000000000001bc is out of bounds.
Address 0x00000000000001bc is out of bounds.
Address 0x00000000000001bc is out of bounds.
Address 0x00000000000001bc is out of bounds.
Address 0x00000000000001bc is out of bounds.
Address 0x00000000000001bc is out of bounds.
Address 0x00000000000001bc is out of bounds.
Address 0x00000000000001bc is out of bounds.
Address 0x00000000000001bc is out of bounds.
Address 0x00000000000001bc is out of bounds.
Address 0x00000000000001bc is out of bounds.
Address 0x00000000000001bc is out of bounds.
Address 0x00000000000001bc is out of bounds.
Address 0x00000000000001bc is out of bounds.
Address 0x00000000000001bc is out of bounds.
Address 0x00000000000001bc is out of bounds.
Address 0x00000000000001bc is out of bounds.
Address 0x00000000000001bc is out of bounds.
Address 0x00000000000001bc is out of bounds.
Address 0x00000000000001bc is out of bounds.
Address 0x00000000000001bc is out of bounds.
Address 0x00000000000001bc is out of bounds.
Address 0x00000000000001bc is out of bounds.
Address 0x00000000000001bc is out of bounds.
Address 0x00000000000001bc is out of bounds.
Address 0x00000000000001bc is out of bounds.
Address 0x00000000000001bc is out of bounds.
Address 0x00000000000001bc is out of bounds.
Address 0x00000000000001bc is out of bounds.
Address 0x00000000000001bc is out of bounds.
Address 0x00000000000001bc is out of bounds.
Address 0x00000000000001bc is out of bounds.
Address 0x00000000000001bc is out of bounds.
Address 0x00000000000001bc is out of bounds.
Address 0x00000000000001bc is out of bounds.
Address 0x00000000000001bc is out of bounds.
Address 0x00000000000001bc is out of bounds.
Address 0x00000000000001bc is out of bounds.
Address 0x00000000000001bc is out of bounds.
Address 0x00000000000001bc is out of bounds.
Address 0x00000000000001bc is out of bounds.
Address 0x00000000000001bc is out of bounds.
Address 0x00000000000001bc is out of bounds.
Address 0x00000000000001bc is out of bounds.
Address 0x00000000000001bc is out of bounds.
Address 0x00000000000001bc is out of bounds.
Address 0x00000000000001bc is out of bounds.
Address 0x00000000000001bc is out of bounds.
Address 0x00000000000001bc is out of bounds.
Address 0x00000000000001bc is out of bounds.
Address 0x00000000000001bc is out of bounds.
Address 0x00000000000001bc is out of bounds.
Address 0x00000000000001bc is out of bounds.
Address 0x00000000000001bc is out of bounds.
Address 0x00000000000001bc is out of bounds.
Address 0x00000000000001bc is out of bounds.
Address 0x00000000000001bc is out of bounds.
Address 0x00000000000001bc is out of bounds.
Address 0x00000000000001bc is out of bounds.
Address 0x00000000000001bc is out of bounds.
Address 0x00000000000001bc is out of bounds.
Address 0x00000000000001bc is out of bounds.
Address 0x00000000000001bc is out of bounds.
Address 0x00000000000001bc is out of bounds.
Address 0x00000000000001bc is out of bounds.
Address 0x00000000000001bc is out of bounds.
Address 0x00000000000001bc is out of bounds.
Address 0x00000000000001bc is out of bounds.
Address 0x00000000000001bc is out of bounds.
Address 0x00000000000001bc is out of bounds.
Address 0x00000000000001bc is out of bounds.
Address 0x00000000000001bc is out of bounds.
Address 0x00000000000001bc is out of bounds.
Address 0x00000000000001bc is out of bounds.
Address 0x00000000000001bc is out of bounds.
Address 0x00000000000001bc is out of bounds.
Address 0x00000000000001bc is out of bounds.
Address 0x00000000000001bc is out of bounds.
Address 0x00000000000001bc is out of bounds.
Address 0x00000000000001bc is out of bounds.
Address 0x00000000000001bc is out of bounds.
Address 0x00000000000001bc is out of bounds.
Address 0x00000000000001bc is out of bounds.
Address 0x00000000000001bc is out of bounds.
Address 0x00000000000001bc is out of bounds.
Address 0x00000000000001bc is out of bounds.
Address 0x00000000000001bc is out of bounds.
Address 0x00000000000001bc is out of bounds.
Address 0x00000000000001bc is out of bounds.
Address 0x00000000000001bc is out of bounds.
Address 0x00000000000001bc is out of bounds.
Address 0x00000000000001bc is out of bounds.
Address 0x00000000000001bc is out of bounds.
Address 0x00000000000001bc is out of bounds.
Address 0x00000000000001bc is out of bounds.
Address 0x00000000000001bc is out of bounds.
Address 0x00000000000001bc is out of bounds.
Address 0x00000000000001bc is out of bounds.
Address 0x00000000000001bc is out of bounds.
Address 0x00000000000001bc is out of bounds.
Address 0x00000000000001bc is out of bounds.
Address 0x00000000000001bc is out of bounds.
Address 0x00000000000001bc is out of bounds.
Address 0x00000000000001bc is out of bounds.
Address 0x00000000000001bc is out of bounds.
Address 0x00000000000001bc is out of bounds.
Address 0x00000000000001bc is out of bounds.
Address 0x00000000000001bc is out of bounds.
Address 0x00000000000001bc is out of bounds.
Address 0x00000000000001bc is out of bounds.
Address 0x00000000000001bc is out of bounds.
Address 0x00000000000001bc is out of bounds.
Address 0x00000000000001bc is out of bounds.
Address 0x00000000000001bc is out of bounds.
Address 0x00000000000001bc is out of bounds.
Address 0x00000000000001bc is out of bounds.
Address 0x00000000000001bc is out of bounds.
Address 0x00000000000001bc is out of bounds.
Address 0x00000000000001bc is out of bounds.
Address 0x00000000000001bc is out of bounds.
Address 0x00000000000001bc is out of bounds.
Address 0x00000000000001bc is out of bounds.
Address 0x00000000000001bc is out of bounds.
Address 0x00000000000001bc is out of bounds.
Address 0x00000000000001bc is out of bounds.
Address 0x00000000000001bc is out of bounds.
Address 0x00000000000001bc is out of bounds.
Address 0x00000000000001bc is out of bounds.
Address 0x00000000000001bc is out of bounds.
Address 0x00000000000001bc is out of bounds.
Address 0x00000000000001bc is out of bounds.
Address 0x00000000000001bc is out of bounds.
Address 0x00000000000001bc is out of bounds.
Address 0x00000000000001bc is out of bounds.
Address 0x00000000000001bc is out of bounds.
Address 0x00000000000001bc is out of bounds.
Address 0x00000000000001bc is out of bounds.
Address 0x00000000000001bc is out of bounds.
Address 0x00000000000001bc is out of bounds.
Address 0x00000000000001bc is out of bounds.
Address 0x00000000000001bc is out of bounds.
Address 0x00000000000001bc is out of bounds.
Address 0x00000000000001bc is out of bounds.
Address 0x00000000000001bc is out of bounds.
Address 0x00000000000001bc is out of bounds.
Address 0x00000000000001bc is out of bounds.
Address 0x00000000000001bc is out of bounds.
Address 0x00000000000001bc is out of bounds.
Address 0x00000000000001bc is out of bounds.
Address 0x00000000000001bc is out of bounds.
Address 0x00000000000001bc is out of bounds.
Address 0x00000000000001bc is out of bounds.
Address 0x00000000000001bc is out of bounds.
Address 0x00000000000001bc is out of bounds.
Address 0x00000000000001bc is out of bounds.
Address 0x00000000000001bc is out of bounds.
Address 0x00000000000001bc is out of bounds.
Address 0x00000000000001bc is out of bounds.
Address 0x00000000000001bc is out of bounds.
Address 0x00000000000001bc is out of bounds.
Address 0x00000000000001bc is out of bounds.
Address 0x00000000000001bc is out of bounds.
Address 0x00000000000001bc is out of bounds.
Address 0x00000000000001bc is out of bounds.
Address 0x00000000000001bc is out of bounds.
Address 0x00000000000001bc is out of bounds.
Address 0x00000000000001bc is out of bounds.
Address 0x00000000000001bc is out of bounds.
Address 0x00000000000001bc is out of bounds.
Address 0x00000000000001bc is out of bounds.
Address 0x00000000000001bc is out of bounds.
Address 0x00000000000001bc is out of bounds.
Address 0x00000000000001bc is out of bounds.
Address 0x00000000000001bc is out of bounds.
Address 0x00000000000001bc is out of bounds.
Address 0x00000000000001bc is out of bounds.
Address 0x00000000000001bc is out of bounds.
Address 0x00000000000001bc is out of bounds.
Address 0x00000000000001bc is out of bounds.
Address 0x00000000000001bc is out of bounds.
Address 0x00000000000001bc is out of bounds.
Address 0x00000000000001bc is out of bounds.
Address 0x00000000000001bc is out of bounds.
Address 0x00000000000001bc is out of bounds.
Address 0x00000000000001bc is out of bounds.
Address 0x00000000000001bc is out of bounds.
Address 0x00000000000001bc is out of bounds.
Address 0x00000000000001bc is out of bounds.
Address 0x00000000000001bc is out of bounds.
Address 0x00000000000001bc is out of bounds.
Address 0x00000000000001bc is out of bounds.
Address 0x00000000000001bc is out of bounds.
Address 0x00000000000001bc is out of bounds.
Address 0x00000000000001bc is out of bounds.
Address 0x00000000000001bc is out of bounds.
Address 0x00000000000001bc is out of bounds.
Address 0x00000000000001bc is out of bounds.
Address 0x00000000000001bc is out of bounds.
Address 0x00000000000001bc is out of bounds.
Address 0x00000000000001bc is out of bounds.
Address 0x00000000000001bc is out of bounds.
Address 0x00000000000001bc is out of bounds.
Address 0x00000000000001bc is out of bounds.
Address 0x00000000000001bc is out of bounds.
Address 0x00000000000001bc is out of bounds.
Address 0x00000000000001bc is out of bounds.
Address 0x00000000000001bc is out of bounds.
Address 0x00000000000001bc is out of bounds.
Address 0x00000000000001bc is out of bounds.
Address 0x00000000000001bc is out of bounds.
Address 0x00000000000001bc is out of bounds.
Address 0x00000000000001bc is out of bounds.
Address 0x00000000000001bc is out of bounds.
Address 0x00000000000001bc is out of bounds.
Address 0x00000000000001bc is out of bounds.
Address 0x00000000000001bc is out of bounds.
Address 0x00000000000001bc is out of bounds.
Address 0x00000000000001bc is out of bounds.
Address 0x00000000000001bc is out of bounds.
Address 0x00000000000001bc is out of bounds.
Address 0x00000000000001bc is out of bounds.
Address 0x00000000000001bc is out of bounds.
Address 0x00000000000001bc is out of bounds.
Address 0x00000000000001bc is out of bounds.
Address 0x00000000000001bc is out of bounds.
Address 0x00000000000001bc is out of bounds.
Address 0x00000000000001bc is out of bounds.
Address 0x00000000000001bc is out of bounds.
Address 0x00000000000001bc is out of bounds.
Address 0x00000000000001bc is out of bounds.
Address 0x00000000000001bc is out of bounds.
Address 0x00000000000001bc is out of bounds.
Address 0x00000000000001bc is out of bounds.
Address 0x00000000000001bc is out of bounds.
Address 0x00000000000001bc is out of bounds.
Address 0x00000000000001bc is out of bounds.
Address 0x00000000000001bc is out of bounds.
Address 0x00000000000001bc is out of bounds.
Address 0x00000000000001bc is out of bounds.
Address 0x00000000000001bc is out of bounds.
Address 0x00000000000001bc is out of bounds.
Address 0x00000000000001bc is out of bounds.
Address 0x00000000000001bc is out of bounds.
Address 0x00000000000001bc is out of bounds.
Address 0x00000000000001bc is out of bounds.
Address 0x00000000000001bc is out of bounds.
Address 0x00000000000001bc is out of bounds.
Address 0x00000000000001bc is out of bounds.
Address 0x00000000000001bc is out of bounds.
Address 0x00000000000001bc is out of bounds.
Address 0x00000000000001bc is out of bounds.
Address 0x00000000000001bc is out of bounds.
Address 0x00000000000001bc is out of bounds.
Address 0x00000000000001bc is out of bounds.
Address 0x00000000000001bc is out of bounds.
Address 0x00000000000001bc is out of bounds.
Address 0x00000000000001bc is out of bounds.
Address 0x00000000000001bc is out of bounds.
Address 0x00000000000001bc is out of bounds.
Address 0x00000000000001bc is out of bounds.
Address 0x00000000000001bc is out of bounds.
Address 0x00000000000001bc is out of bounds.
Address 0x00000000000001bc is out of bounds.
Address 0x00000000000001bc is out of bounds.
Address 0x00000000000001bc is out of bounds.
Address 0x00000000000001bc is out of bounds.
Address 0x00000000000001bc is out of bounds.
Address 0x00000000000001bc is out of bounds.
Address 0x00000000000001bc is out of bounds.
Address 0x00000000000001bc is out of bounds.
Address 0x00000000000001bc is out of bounds.
Address 0x00000000000001bc is out of bounds.
Address 0x00000000000001bc is out of bounds.
Address 0x00000000000001bc is out of bounds.
Address 0x00000000000001bc is out of bounds.
Address 0x00000000000001bc is out of bounds.
Address 0x00000000000001bc is out of bounds.
Address 0x00000000000001bc is out of bounds.
Address 0x00000000000001bc is out of bounds.
Address 0x00000000000001bc is out of bounds.
Address 0x00000000000001bc is out of bounds.
Address 0x00000000000001bc is out of bounds.
Address 0x00000000000001bc is out of bounds.
Address 0x00000000000001bc is out of bounds.
Address 0x00000000000001bc is out of bounds.
Address 0x00000000000001bc is out of bounds.
Address 0x00000000000001bc is out of bounds.
Address 0x00000000000001bc is out of bounds.
Address 0x00000000000001bc is out of bounds.
Address 0x00000000000001bc is out of bounds.
Address 0x00000000000001bc is out of bounds.
Address 0x00000000000001bc is out of bounds.
Address 0x00000000000001bc is out of bounds.
Address 0x00000000000001bc is out of bounds.
Address 0x00000000000001bc is out of bounds.
Address 0x00000000000001bc is out of bounds.
Address 0x00000000000001bc is out of bounds.
Address 0x00000000000001bc is out of bounds.
Address 0x00000000000001bc is out of bounds.
Address 0x00000000000001bc is out of bounds.
Address 0x00000000000001bc is out of bounds.
Address 0x00000000000001bc is out of bounds.
Address 0x00000000000001bc is out of bounds.
Address 0x00000000000001bc is out of bounds.
Address 0x00000000000001bc is out of bounds.
Address 0x00000000000001bc is out of bounds.
Address 0x00000000000001bc is out of bounds.
Address 0x00000000000001bc is out of bounds.
Address 0x00000000000001bc is out of bounds.
Address 0x00000000000001bc is out of bounds.
Address 0x00000000000001bc is out of bounds.
Address 0x00000000000001bc is out of bounds.
Address 0x00000000000001bc is out of bounds.
Address 0x00000000000001bc is out of bounds.
Address 0x00000000000001bc is out of bounds.
Address 0x00000000000001bc is out of bounds.
Address 0x00000000000001bc is out of bounds.
Address 0x00000000000001bc is out of bounds.
Address 0x00000000000001bc is out of bounds.
Address 0x00000000000001bc is out of bounds.
Address 0x00000000000001bc is out of bounds.
Address 0x00000000000001bc is out of bounds.
Address 0x00000000000001bc is out of bounds.
Address 0x00000000000001bc is out of bounds.
Address 0x00000000000001bc is out of bounds.
Address 0x00000000000001bc is out of bounds.
Address 0x00000000000001bc is out of bounds.
Address 0x00000000000001bc is out of bounds.
Address 0x00000000000001bc is out of bounds.
Address 0x00000000000001bc is out of bounds.
Address 0x00000000000001bc is out of bounds.
Address 0x00000000000001bc is out of bounds.
Address 0x00000000000001bc is out of bounds.
Address 0x00000000000001bc is out of bounds.
Address 0x00000000000001bc is out of bounds.
Address 0x00000000000001bc is out of bounds.
Address 0x00000000000001bc is out of bounds.
Address 0x00000000000001bc is out of bounds.
Address 0x00000000000001bc is out of bounds.
Address 0x00000000000001bc is out of bounds.
Address 0x00000000000001bc is out of bounds.
Address 0x00000000000001bc is out of bounds.
Address 0x00000000000001bc is out of bounds.
Address 0x00000000000001bc is out of bounds.
Address 0x00000000000001bc is out of bounds.
Address 0x00000000000001bc is out of bounds.
Address 0x00000000000001bc is out of bounds.
Address 0x00000000000001bc is out of bounds.
Address 0x00000000000001bc is out of bounds.
Address 0x00000000000001bc is out of bounds.
Address 0x00000000000001bc is out of bounds.
Address 0x00000000000001bc is out of bounds.
Address 0x00000000000001bc is out of bounds.
Address 0x00000000000001bc is out of bounds.
Address 0x00000000000001bc is out of bounds.
Address 0x00000000000001bc is out of bounds.
Address 0x00000000000001bc is out of bounds.
Address 0x00000000000001bc is out of bounds.
Address 0x00000000000001bc is out of bounds.
Address 0x00000000000001bc is out of bounds.
Address 0x00000000000001bc is out of bounds.
Address 0x00000000000001bc is out of bounds.
Address 0x00000000000001bc is out of bounds.
Address 0x00000000000001bc is out of bounds.
Address 0x00000000000001bc is out of bounds.
Address 0x00000000000001bc is out of bounds.
Address 0x00000000000001bc is out of bounds.
Address 0x00000000000001bc is out of bounds.
Address 0x00000000000001bc is out of bounds.
Address 0x00000000000001bc is out of bounds.
Address 0x00000000000001bc is out of bounds.
Address 0x00000000000001bc is out of bounds.
Address 0x00000000000001bc is out of bounds.
Address 0x00000000000001bc is out of bounds.
Address 0x00000000000001bc is out of bounds.
Address 0x00000000000001bc is out of bounds.
Address 0x00000000000001bc is out of bounds.
Address 0x00000000000001bc is out of bounds.
Address 0x00000000000001bc is out of bounds.
Address 0x00000000000001bc is out of bounds.
Address 0x00000000000001bc is out of bounds.
Address 0x00000000000001bc is out of bounds.
Address 0x00000000000001bc is out of bounds.
Address 0x00000000000001bc is out of bounds.
Address 0x00000000000001bc is out of bounds.
Address 0x00000000000001bc is out of bounds.
Address 0x00000000000001bc is out of bounds.
Address 0x00000000000001bc is out of bounds.
Address 0x00000000000001bc is out of bounds.
Address 0x00000000000001bc is out of bounds.
Address 0x00000000000001bc is out of bounds.
Address 0x00000000000001bc is out of bounds.
Address 0x00000000000001bc is out of bounds.
Address 0x00000000000001bc is out of bounds.
Address 0x00000000000001bc is out of bounds.
Address 0x00000000000001bc is out of bounds.
Address 0x00000000000001bc is out of bounds.
Address 0x00000000000001bc is out of bounds.
Address 0x00000000000001bc is out of bounds.
Address 0x00000000000001bc is out of bounds.
Address 0x00000000000001bc is out of bounds.
Address 0x00000000000001bc is out of bounds.
Address 0x00000000000001bc is out of bounds.
Address 0x00000000000001bc is out of bounds.
Address 0x00000000000001bc is out of bounds.
Address 0x00000000000001bc is out of bounds.
Address 0x00000000000001bc is out of bounds.
Address 0x00000000000001bc is out of bounds.
Address 0x00000000000001bc is out of bounds.
Address 0x00000000000001bc is out of bounds.
Address 0x00000000000001bc is out of bounds.
Address 0x00000000000001bc is out of bounds.
Address 0x00000000000001bc is out of bounds.
Address 0x00000000000001bc is out of bounds.
Address 0x00000000000001bc is out of bounds.
Address 0x00000000000001bc is out of bounds.
Address 0x00000000000001bc is out of bounds.
Address 0x00000000000001bc is out of bounds.
Address 0x00000000000001bc is out of bounds.
Address 0x00000000000001bc is out of bounds.
Address 0x00000000000001bc is out of bounds.
Address 0x00000000000001bc is out of bounds.
Address 0x00000000000001bc is out of bounds.
Address 0x00000000000001bc is out of bounds.
Address 0x00000000000001bc is out of bounds.
Address 0x00000000000001bc is out of bounds.
Address 0x00000000000001bc is out of bounds.
Address 0x00000000000001bc is out of bounds.
Address 0x00000000000001bc is out of bounds.
.short 0xfe32

000001bc __aio_puttab:
 1bc:	242d fff8      	move.l -8(a5),d2
 1c0:	2c6d fffc      	movea.l -4(a5),a6

000001c4 _TIMER_:
 1c4:	4e5d           	unlk a5
 1c6:	4e75           	rts
 1c8:	4e91           	jsr (a1)

000001ca ___mul_s1:
 1ca:	2279 0000 008c 	movea.l 8c ___modsi4+0x4,a1
			1cc: RELOC32	.bss
 1d0:	2009           	move.l a1,d0
 1d2:	678e           	beq.s 162 ___pow_s2+0x1c
 1d4:	337c 0009 001c 	move.w #9,28(a1)

000001da ___div_s1:
 1da:	2039 0000 0080 	move.l 80 __atimer_process_signals+0x8,d0
			1dc: RELOC32	.bss
 1e0:	2239 0000 0084 	move.l 84 ___modsi3+0x2,d1
			1e2: RELOC32	.bss
 1e6:	2340           	.short 0x2340

000001e8 ___DARRAY_T_LBOUND_:
 1e8:	0020 2341      	ori.b #65,-(a0)
 1ec:	0024 2c79      	ori.b #121,-(a4)
 1f0:	0000 0000      	ori.b #0,d0
			1f0: RELOC32	.bss
 1f4:	4eae fe32      	jsr -462(a6)
 1f8:	6000           	.short 0x6000

000001fa ___mod_s1:
 1fa:	ff68           	.short 0xff68
 1fc:	4e91           	jsr (a1)
 1fe:	2279 0000 0078 	movea.l 78 __atimer_process_signals,a1
			200: RELOC32	.bss
 204:	2009           	move.l a1,d0
 206:	6700 ff3c      	beq.w 144 __astr_itoa+0x2
 20a:	337c 0009 001c 	move.w #9,28(a1)
 210:	2039 0000 006c 	move.l 6c __aqb_read2+0x2c,d0
			212: RELOC32	.bss
 216:	2239           	.short 0x2239

00000218 _DATE_:
	...
			218: RELOC32	.bss

0000021a ___pow_u1:
 21a:	0070 2340 0020 	ori.w #9024,(32,a0,d0.w)
 220:	2341 0024      	move.l d1,36(a1)
 224:	2c79 0000 0000 	movea.l 0 _start,a6
			226: RELOC32	.bss

0000022a ___DARRAY_T_UBOUND_:
 22a:	4eae fe32      	jsr -462(a6)
 22e:	6000 ff14      	bra.w 144 __astr_itoa+0x2
 232:	4e91           	jsr (a1)
 234:	2279 0000 0064 	movea.l 64 __aqb_read2+0x24,a1
			236: RELOC32	.bss
 23a:	2009           	move.l a1,d0
 23c:	6700 fee6      	beq.w 124 _ERROR+0x6
 240:	337c 0009 001c 	move.w #9,28(a1)

00000246 ___mul_u1:
 246:	2039           	.short 0x2039
	...
			248: RELOC32	.bss

0000024a __astr_utoa_ext:
 24a:	0058 2239      	ori.w #8761,(a0)+
 24e:	0000 005c      	ori.b #92,d0
			24e: RELOC32	.bss
 252:	2340 0020      	move.l d0,32(a1)

00000256 ___div_u1:
 256:	2341 0024      	move.l d1,36(a1)
 25a:	2c79 0000 0000 	movea.l 0 _start,a6
			25c: RELOC32	.bss
 260:	4eae fe32      	jsr -462(a6)
 264:	6000 febe      	bra.w 124 _ERROR+0x6
 268:	4e91           	jsr (a1)

0000026a __debug_puts2:
 26a:	2279           	.short 0x2279

0000026c __aio_puts4:
 26c:	0000 0050      	ori.b #80,d0
			26c: RELOC32	.bss
 270:	2009           	move.l a1,d0

00000272 ___mod_u1:
 272:	6700           	.short 0x6700

00000274 ___DARRAY_T_COPY:
 274:	fe90           	.short 0xfe90
 276:	337c 0009 001c 	move.w #9,28(a1)
 27c:	2039 0000 0044 	move.l 44 __aqb_read2+0x4,d0
			27e: RELOC32	.bss
 282:	2239 0000 0048 	move.l 48 __aqb_read2+0x8,d1
			284: RELOC32	.bss
 288:	2340 0020      	move.l d0,32(a1)
 28c:	2341 0024      	move.l d1,36(a1)
 290:	2c79           	.short 0x2c79

00000292 ___aqb_mod:
 292:	0000 0000      	ori.b #0,d0
			292: RELOC32	.bss
 296:	4eae fe32      	jsr -462(a6)
 29a:	6000 fe68      	bra.w 104 ___pow_u4
 29e:	4e91           	jsr (a1)
 2a0:	2279 0000 003c 	movea.l 3c ___udivsi4,a1
			2a2: RELOC32	.bss
 2a6:	2009           	move.l a1,d0
 2a8:	6700 fe3a      	beq.w e4 __debug_puts+0x18
 2ac:	337c 0009 001c 	move.w #9,28(a1)
 2b2:	2039 0000 0030 	move.l 30 ___umodsi4,d0
			2b4: RELOC32	.bss
 2b8:	2239 0000 0034 	move.l 34 ___umodsi4+0x4,d1
			2ba: RELOC32	.bss

000002be ___DARRAY_T_ERASE:
 2be:	2340 0020      	move.l d0,32(a1)
 2c2:	2341 0024      	move.l d1,36(a1)
 2c6:	2c79 0000 0000 	movea.l 0 _start,a6
			2c8: RELOC32	.bss
 2cc:	4eae fe32      	jsr -462(a6)
 2d0:	6000 fe12      	bra.w e4 __debug_puts+0x18
 2d4:	4e91           	jsr (a1)
 2d6:	2279 0000 0028 	movea.l 28 __debug_putc+0x8,a1
			2d8: RELOC32	.bss
 2dc:	2009           	move.l a1,d0
 2de:	6700 fde4      	beq.w c4 ___pow_s4+0x2
 2e2:	337c 0009 001c 	move.w #9,28(a1)

000002e8 ___DARRAY_T_CLEAR:
 2e8:	2039 0000 001c 	move.l 1c __atimer_shutdown,d0
			2ea: RELOC32	.bss
 2ee:	2239 0000 0020 	move.l 20 __debug_putc,d1
			2f0: RELOC32	.bss
 2f4:	2340 0020      	move.l d0,32(a1)
 2f8:	2341 0024      	move.l d1,36(a1)
 2fc:	2c79 0000 0000 	movea.l 0 _start,a6
			2fe: RELOC32	.bss
 302:	4eae fe32      	jsr -462(a6)
 306:	6000 fdbc      	bra.w c4 ___pow_s4+0x2
 30a:	4e91           	jsr (a1)
 30c:	2279 0000 0014 	movea.l 14 __aqb_read1+0x4,a1
			30e: RELOC32	.bss
 312:	2009           	move.l a1,d0
 314:	6700 fd8e      	beq.w a4 __aio_set_dos_cursor_visible+0x4
 318:	337c 0009 001c 	move.w #9,28(a1)
 31e:	2039           	.short 0x2039
	...
			320: RELOC32	.bss

00000322 __aio_puts2:
 322:	0008           	.short 0x0008
 324:	2239 0000 000c 	move.l c _SCREEN,d1
			326: RELOC32	.bss
 32a:	2340 0020      	move.l d0,32(a1)
 32e:	2341           	.short 0x2341

00000330 __astr_utoa:
 330:	0024 2c79      	ori.b #121,-(a4)
 334:	0000 0000      	ori.b #0,d0
			334: RELOC32	.bss
 338:	4eae fe32      	jsr -462(a6)
 33c:	6000 fd66      	bra.w a4 __aio_set_dos_cursor_visible+0x4

00000340 _ON_TIMER_CALL:
 340:	4e55 0000      	link.w a5,#0

00000344 __debug_puts4:
 344:	48e7 3e32      	movem.l d2-d6/a2-a3/a6,-(sp)
 348:	222d 0008      	move.l 8(a5),d1
 34c:	2a2d 000c      	move.l 12(a5),d5
 350:	282d 0010      	move.l 16(a5),d4
 354:	3001           	move.w d1,d0
 356:	5340           	subq.w #1,d0
 358:	0c40 0007      	cmpi.w #7,d0

0000035c _fix_:
 35c:	6200 00aa      	bhi.w 408 _CHR_
 360:	3041           	movea.w d1,a0
 362:	2408           	move.l a0,d2

00000364 _SLEEP_FOR:
 364:	5382           	subq.l #1,d2
 366:	2602           	move.l d2,d3
 368:	e58b           	lsl.l #2,d3
 36a:	2003           	move.l d3,d0
 36c:	d082           	add.l d2,d0
 36e:	45f9 0000 0004 	lea 4 _start+0x4,a2
			370: RELOC32	.bss
 374:	e588           	lsl.l #2,d0

00000376 _int_:
 376:	4ab2 0800      	tst.l (0,a2,d0.l)
 37a:	673e           	beq.s 3ba _FRE_+0x4
 37c:	47f2 0810      	lea (16,a2,d0.l),a3
 380:	2253           	movea.l (a3),a1
 382:	2009           	move.l a1,d0
 384:	671c           	beq.s 3a2 _cint_+0xe
 386:	2c79 0000 0000 	movea.l 0 _start,a6
			388: RELOC32	.bss
 38c:	4eae fe20      	jsr -480(a6)
 390:	2253           	movea.l (a3),a1
 392:	4eae           	.short 0x4eae

00000394 _cint_:
 394:	fe3e           	.short 0xfe3e
 396:	2f13           	move.l (a3),-(sp)
 398:	4eb9 0000 063a 	jsr 63a __autil_delete_ext_io
			39a: RELOC32	.text
 39e:	4293           	clr.l (a3)
 3a0:	588f           	addq.l #4,sp
 3a2:	2003           	move.l d3,d0

000003a4 _SYSTEM:
 3a4:	d082           	add.l d2,d0
 3a6:	e588           	lsl.l #2,d0
 3a8:	47f2 080c      	lea (12,a2,d0.l),a3
 3ac:	2013           	move.l (a3),d0
 3ae:	670a           	beq.s 3ba _FRE_+0x4
 3b0:	2f00           	move.l d0,-(sp)
 3b2:	4eb9           	.short 0x4eb9
	...
			3b4: RELOC32	.text

000003b6 _FRE_:
 3b6:	0572 4293      	bchg d2,(-109,a2,d4.w*2)
 3ba:	2005           	move.l d5,d0
 3bc:	2c79 0000 0008 	movea.l 8 ___mulsi4+0x2,a6
			3be: RELOC32	.bss
 3c2:	4eae ffe2      	jsr -30(a6)
 3c6:	2640           	movea.l d0,a3
 3c8:	2c39 0000 00a4 	move.l a4 __aio_set_dos_cursor_visible+0x4,d6
			3ca: RELOC32	.bss
 3ce:	4eae ffdc      	jsr -36(a6)
 3d2:	2200           	move.l d0,d1
 3d4:	2005           	move.l d5,d0
 3d6:	4eae ffb8      	jsr -72(a6)

000003da __aio_puts1:
 3da:	2206           	move.l d6,d1
 3dc:	4eae ffb2      	jsr -78(a6)
 3e0:	4eae ffe2      	jsr -30(a6)
 3e4:	d483           	add.l d3,d2
 3e6:	e58a           	lsl.l #2,d2
 3e8:	2584 2800      	move.l d4,(0,a2,d2.l)

000003ec _clng_:
 3ec:	d5c2           	adda.l d2,a2
 3ee:	254b           	.short 0x254b

000003f0 _LEN_:
 3f0:	0004 2540      	ori.b #64,d4
 3f4:	0008           	.short 0x0008
 3f6:	42aa 000c      	clr.l 12(a2)
 3fa:	42aa 0010      	clr.l 16(a2)
 3fe:	4ced 4c7c ffe0 	movem.l -32(a5),d2-d6/a2-a3/a6
 404:	4e5d           	unlk a5
 406:	4e75           	rts

00000408 _CHR_:
 408:	7072           	moveq #114,d0
 40a:	2b40 0008      	move.l d0,8(a5)

0000040e _WINDOW_CLOSE:
 40e:	4ced 4c7c ffe0 	movem.l -32(a5),d2-d6/a2-a3/a6
 414:	4e5d           	unlk a5
 416:	4ef9 0000 011e 	jmp 11e _ERROR
			418: RELOC32	.text

0000041c __debug_putu1:
 41c:	7469           	moveq #105,d2
 41e:	6d65           	blt.s 485 _POKE+0x1
 420:	722e           	moveq #46,d1
 422:	6465           	bcc.s 489 _POKE+0x5
 424:	7669           	moveq #105,d3
 426:	6365           	bls.s 48d _POKE+0x9
	...

0000042a _TIMER_ON:
 42a:	4e55 fffc      	link.w a5,#-4
 42e:	48e7 383a      	movem.l d2-d4/a2-a4/a6,-(sp)
 432:	202d 0008      	move.l 8(a5),d0
 436:	3200           	move.w d0,d1
 438:	5341           	subq.w #1,d1
 43a:	0c41 0007      	cmpi.w #7,d1
 43e:	624a           	bhi.s 48a _POKE+0x6
 440:	3040           	movea.w d0,a0
 442:	2408           	move.l a0,d2

00000444 ___aqb_intdiv_single:
 444:	5382           	subq.l #1,d2
 446:	2602           	move.l d2,d3
 448:	e58b           	lsl.l #2,d3
 44a:	2003           	move.l d3,d0
 44c:	d082           	add.l d2,d0
 44e:	47f9 0000 0004 	lea 4 _start+0x4,a3
			450: RELOC32	.bss
 454:	e588           	lsl.l #2,d0
 456:	4ab3 0800      	tst.l (0,a3,d0.l)

0000045a _ASC_:
 45a:	672e           	beq.s 48a _POKE+0x6
 45c:	45f3 0800      	lea (0,a3,d0.l),a2
 460:	49ea 0010      	lea 16(a2),a4
 464:	4a94           	tst.l (a4)
 466:	6736           	beq.s 49e _POKEW+0xa
 468:	4ced 5c1c ffe0 	movem.l -32(a5),d2-d4/a2-a4/a6
 46e:	4e5d           	unlk a5
 470:	4e75           	rts
 472:	2444           	movea.l d4,a2
 474:	2012           	move.l (a2),d0
 476:	6712           	beq.s 48a _POKE+0x6
 478:	2f00           	move.l d0,-(sp)
 47a:	2b49 fffc      	move.l a1,-4(a5)
 47e:	4eb9 0000 0572 	jsr 572 __autil_delete_port
			480: RELOC32	.text

00000484 _POKE:
 484:	24ad fffc      	move.l -4(a5),(a2)
 488:	588f           	addq.l #4,sp
 48a:	7073           	moveq #115,d0
 48c:	2b40 0008      	move.l d0,8(a5)
 490:	4ced           	Address 0x0000000000000492 is out of bounds.
.short 0x4ced

00000492 _MID_:
 492:	5c1c           	addq.b #6,(a4)+

00000494 _POKEW:
 494:	ffe0           	.short 0xffe0
 496:	4e5d           	unlk a5
 498:	4ef9 0000 011e 	jmp 11e _ERROR
			49a: RELOC32	.text
 49e:	42a7           	clr.l -(sp)
 4a0:	42a7           	clr.l -(sp)
 4a2:	4eb9           	.short 0x4eb9

000004a4 _POKEL:
 4a4:	0000 04de      	ori.b #-34,d0
			4a4: RELOC32	.text
 4a8:	780c           	moveq #12,d4
 4aa:	d88a           	add.l a2,d4
 4ac:	2044           	movea.l d4,a0
 4ae:	2080           	move.l d0,(a0)
 4b0:	508f           	addq.l #8,sp

000004b2 __window_add_close_cb:
 4b2:	67d6           	beq.s 48a _POKE+0x6

000004b4 _PEEK_:
 4b4:	4878 0028      	pea 28 __debug_putc+0x8
 4b8:	2f00           	move.l d0,-(sp)
 4ba:	4eb9 0000 05aa 	jsr 5aa __autil_create_ext_io
			4bc: RELOC32	.text
 4c0:	2240           	movea.l d0,a1

000004c2 _PEEKW_:
 4c2:	2880           	move.l d0,(a4)
 4c4:	508f           	addq.l #8,sp
 4c6:	67aa           	beq.s 472 _ASC_+0x18
 4c8:	2c79 0000 0000 	movea.l 0 _start,a6
			4ca: RELOC32	.bss
 4ce:	7200           	moveq #0,d1

000004d0 _PEEKL_:
 4d0:	2001           	move.l d1,d0
 4d2:	41fa ff48      	lea 41c __debug_putu1(pc),a0
 4d6:	4eae fe44      	jsr -444(a6)
 4da:	2254           	movea.l (a4),a1
 4dc:	4a00           	tst.b d0

000004de __autil_create_port:
 4de:	6638           	bne.s 518 ___aqb_shl_single+0xa
 4e0:	337c 0009 001c 	move.w #9,28(a1)
 4e6:	202a 0004      	move.l 4(a2),d0
 4ea:	222a 0008      	move.l 8(a2),d1
 4ee:	2340 0020      	move.l d0,32(a1)
 4f2:	2341 0024      	move.l d1,36(a1)
 4f6:	2444           	movea.l d4,a2

000004f8 __debug_putu2:
 4f8:	2052           	movea.l (a2),a0
 4fa:	7200           	moveq #0,d1
 4fc:	1228 000f      	move.b 15(a0),d1

00000500 __window_add_msg_cb:
 500:	7001           	moveq #1,d0
 502:	e3a8           	lsl.l d1,d0
 504:	81b9 0000 0000 	or.l d0,0 _start
			506: RELOC32	.bss
 50a:	4eae fe32      	jsr -462(a6)

0000050e ___aqb_shl_single:
 50e:	4ced 5c1c ffe0 	movem.l -32(a5),d2-d4/a2-a4/a6
 514:	4e5d           	unlk a5
 516:	4e75           	rts
 518:	2009           	move.l a1,d0
 51a:	671c           	beq.s 538 ___aqb_shl_single+0x2a
 51c:	2c79 0000 0000 	movea.l 0 _start,a6
			51e: RELOC32	.bss
 522:	4eae fe20      	jsr -480(a6)
 526:	2254           	movea.l (a4),a1
 528:	4eae fe3e      	jsr -450(a6)
 52c:	2f14           	move.l (a4),-(sp)
 52e:	4eb9 0000 063a 	jsr 63a __autil_delete_ext_io
			530: RELOC32	.text
 534:	4294           	clr.l (a4)
 536:	588f           	addq.l #4,sp
 538:	d483           	add.l d3,d2
 53a:	e58a           	lsl.l #2,d2
 53c:	45f3 280c      	lea (12,a3,d2.l),a2
 540:	2012           	move.l (a2),d0
 542:	6700 ff46      	beq.w 48a _POKE+0x6
 546:	2f00           	move.l d0,-(sp)
 548:	4eb9           	.short 0x4eb9

0000054a __aio_putu2:
 54a:	0000 0572      	ori.b #114,d0
			54a: RELOC32	.text

0000054e _WINDOW_OUTPUT:
 54e:	4292           	clr.l (a2)
 550:	7073           	moveq #115,d0
 552:	2b40 0008      	move.l d0,8(a5)
 556:	4ced 5c1c ffe0 	movem.l -32(a5),d2-d4/a2-a4/a6
 55c:	4e5d           	unlk a5
 55e:	4ef9 0000 011e 	jmp 11e _ERROR
			560: RELOC32	.text

00000564 _TIMER_OFF:
 564:	4e55 0000      	link.w a5,#0
 568:	48e7 3032      	movem.l d2-d3/a2-a3/a6,-(sp)
 56c:	222d           	.short 0x222d

0000056e _UCASE_:
 56e:	0008           	.short 0x0008
 570:	3001           	move.w d1,d0

00000572 __autil_delete_port:
 572:	5340           	subq.w #1,d0
 574:	0c40 0007      	cmpi.w #7,d0
 578:	625c           	bhi.s 5d6 __debug_putu4+0x2
 57a:	3041           	movea.w d1,a0
 57c:	2408           	move.l a0,d2
 57e:	5382           	subq.l #1,d2
 580:	2602           	move.l d2,d3
 582:	e58b           	lsl.l #2,d3
 584:	2003           	move.l d3,d0
 586:	d082           	add.l d2,d0
 588:	e588           	lsl.l #2,d0
 58a:	47f9 0000 0004 	lea 4 _start+0x4,a3
			58c: RELOC32	.bss
 590:	45f3 0810      	lea (16,a3,d0.l),a2
 594:	2252           	movea.l (a2),a1
 596:	2009           	move.l a1,d0
 598:	671c           	beq.s 5b6 __autil_create_ext_io+0xc
 59a:	2c79 0000 0000 	movea.l 0 _start,a6
			59c: RELOC32	.bss
 5a0:	4eae fe20      	jsr -480(a6)
 5a4:	2252           	movea.l (a2),a1
 5a6:	4eae fe3e      	jsr -450(a6)

000005aa __autil_create_ext_io:
 5aa:	2f12           	move.l (a2),-(sp)
 5ac:	4eb9 0000 063a 	jsr 63a __autil_delete_ext_io
			5ae: RELOC32	.text
 5b2:	4292           	clr.l (a2)
 5b4:	588f           	addq.l #4,sp
 5b6:	d483           	add.l d3,d2
 5b8:	e58a           	lsl.l #2,d2
 5ba:	45f3 280c      	lea (12,a3,d2.l),a2

000005be ___aqb_shr_single:
 5be:	2012           	move.l (a2),d0
 5c0:	670a           	beq.s 5cc ___aqb_shr_single+0xe
 5c2:	2f00           	move.l d0,-(sp)
 5c4:	4eb9 0000 0572 	jsr 572 __autil_delete_port
			5c6: RELOC32	.text
 5ca:	4292           	clr.l (a2)
 5cc:	4ced 4c0c ffec 	movem.l -20(a5),d2-d3/a2-a3/a6
 5d2:	4e5d           	unlk a5

000005d4 __debug_putu4:
 5d4:	4e75           	rts
 5d6:	7074           	moveq #116,d0
 5d8:	2b40 0008      	move.l d0,8(a5)
 5dc:	4ced 4c0c ffec 	movem.l -20(a5),d2-d3/a2-a3/a6
 5e2:	4e5d           	unlk a5
 5e4:	4ef9 0000 011e 	jmp 11e _ERROR
			5e6: RELOC32	.text
	...

Disassembly of section .text:

00000000 _start:
       0:	4e55 0000      	link.w a5,#0
       4:	48e7           	Address 0x0000000000000006 is out of bounds.
.short 0x48e7

00000006 ___mulsi4:
       6:	2022           	move.l -(a2),d0
       8:	242d 001c      	move.l 28(a5),d2

0000000c _SCREEN:
       c:	2c79           	.short 0x2c79
	...
			e: RELOC32	.bss

00000010 __aqb_read1:
      10:	0000 7022      	ori.b #34,d0
      14:	7201           	moveq #1,d1
      16:	4841           	swap d1

00000018 ___DARRAY_T_REDIM:
      18:	4eae fd54      	jsr -684(a6)

0000001c __atimer_shutdown:
      1c:	2440           	movea.l d0,a2
      1e:	4a80           	tst.l d0

00000020 __debug_putc:
      20:	6700 0082      	beq.w a4 __aio_set_dos_cursor_visible+0x4
      24:	2079 0000 00c4 	movea.l c4 ___pow_s4+0x2,a0
			26: RELOC32	.bss

0000002a ___umodsi3:
      2a:	2488           	move.l a0,(a2)
      2c:	2208           	move.l a0,d1
      2e:	673e           	beq.s 6e __aqb_read4

00000030 ___umodsi4:
      30:	2140 0004      	move.l d0,4(a0)
      34:	23c0           	.short 0x23c0

00000036 __aqb_clear:
      36:	0000 00c4      	ori.b #-60,d0
			36: RELOC32	.bss
      3a:	256d           	.short 0x256d

0000003c ___udivsi4:
      3c:	0008           	Address 0x000000000000003e is out of bounds.
.short 0x0008

0000003e _foo:
      3e:	001e           	Address 0x0000000000000040 is out of bounds.
.short 0x001e

00000040 __aqb_read2:
      40:	256d 000c 0008 	move.l 12(a5),8(a2)
      46:	256d 0010 000c 	move.l 16(a5),12(a2)
      4c:	256d 0014 0010 	move.l 20(a5),16(a2)
      52:	256d 0018 0014 	move.l 24(a5),20(a2)
      58:	3542 0018      	move.w d2,24(a2)
      5c:	256d 0020 001a 	move.l 32(a5),26(a2)
      62:	200a           	move.l a2,d0
      64:	4ced 4404 fff4 	movem.l -12(a5),d2/a2/a6
      6a:	4e5d           	unlk a5
      6c:	4e75           	rts

0000006e __aqb_read4:
      6e:	23c0           	.short 0x23c0

00000070 _DEALLOCATE:
	...
			70: RELOC32	.bss

00000072 __MEMSET:
      72:	00c4           	.short 0x00c4
      74:	23c0           	.short 0x23c0
	...
			76: RELOC32	.bss

00000078 __atimer_process_signals:
      78:	00c0           	.short 0x00c0
      7a:	256d 0008 001e 	move.l 8(a5),30(a2)
      80:	256d           	.short 0x256d

00000082 ___modsi3:
      82:	000c           	.short 0x000c
      84:	0008           	Address 0x0000000000000086 is out of bounds.
.short 0x0008

00000086 __autil_exit:
      86:	256d           	.short 0x256d

00000088 ___modsi4:
      88:	0010 000c      	ori.b #12,(a0)
      8c:	256d           	.short 0x256d

0000008e ___divsi3:
      8e:	0014 0010      	ori.b #16,(a4)
      92:	256d           	.short 0x256d

00000094 ___divsi4:
      94:	0018 0014      	ori.b #20,(a0)+
      98:	3542           	.short 0x3542

0000009a _TAGITEMS_:
      9a:	0018           	Address 0x000000000000009c is out of bounds.
.short 0x0018

0000009c __aqb_assert:
      9c:	256d           	.short 0x256d
      9e:	0020           	Address 0x00000000000000a0 is out of bounds.
.short 0x0020

000000a0 __aio_set_dos_cursor_visible:
      a0:	001a 60be      	ori.b #-66,(a2)+
      a4:	4878 007c      	pea 7c __atimer_process_signals+0x4
      a8:	4eb9 0000 011e 	jsr 11e _ERROR
			aa: RELOC32	.text

000000ae _TAGS_:
      ae:	200a           	move.l a2,d0
      b0:	4ced 4404 fff4 	movem.l -12(a5),d2/a2/a6
      b6:	4e5d           	unlk a5
      b8:	4e75           	rts

000000ba _SOUND:
      ba:	4e55 fff0      	link.w a5,#-16
      be:	48e7 3f3a      	movem.l d2-d7/a2-a4/a6,-(sp)

000000c2 ___pow_s4:
      c2:	2a2d 0008      	move.l 8(a5),d5
      c6:	2e2d 000c      	move.l 12(a5),d7
      ca:	2b6d           	.short 0x2b6d

000000cc __debug_puts:
      cc:	0010 fffc      	ori.b #-4,(a0)
      d0:	262d 0014      	move.l 20(a5),d3
      d4:	3c03           	move.w d3,d6
      d6:	48c3           	ext.l d3
      d8:	2403           	move.l d3,d2
      da:	e58a           	lsl.l #2,d2
      dc:	41f9 0000 0080 	lea 80 __atimer_process_signals+0x8,a0
			de: RELOC32	.bss
      e2:	4ab0 2800      	tst.l (0,a0,d2.l)
      e6:	6700 009e      	beq.w 186 ___pow_u2+0x14

000000ea _ON_ERROR_CALL:
      ea:	7003           	moveq #3,d0
      ec:	b083           	cmp.l d3,d0
      ee:	6500 0308      	bcs.w 3f8 _LEN_+0x8
      f2:	47f9 0000 0000 	lea 0 _start,a3
			f4: RELOC32	.bss
      f8:	2c53           	movea.l (a3),a6
      fa:	7044           	moveq #68,d0
      fc:	223c 0001 0001 	move.l #65537,d1
     102:	4eae           	.short 0x4eae

00000104 ___pow_u4:
     104:	fd54           	.short 0xfd54
     106:	2803           	move.l d3,d4
     108:	e98c           	lsl.l #4,d4

0000010a __aio_putnl:
     10a:	45f9 0000 0000 	lea 0 _start,a2
			10c: RELOC32	.bss
     110:	2580 4800      	move.l d0,(0,a2,d4.l)
     114:	6700 02e2      	beq.w 3f8 _LEN_+0x8
     118:	2c53           	movea.l (a3),a6
     11a:	7044           	moveq #68,d0
     11c:	223c           	.short 0x223c

0000011e _ERROR:
     11e:	0001 0001      	ori.b #1,d1
     122:	4eae fd54      	jsr -684(a6)
     126:	d5c4           	adda.l d4,a2
     128:	2540 0004      	move.l d0,4(a2)
     12c:	6700 02ca      	beq.w 3f8 _LEN_+0x8
     130:	2c53           	movea.l (a3),a6
     132:	7044           	moveq #68,d0
     134:	223c           	.short 0x223c
     136:	0001           	Address 0x0000000000000138 is out of bounds.
.short 0x0001

00000138 _SCREEN_CLOSE:
     138:	0001 4eae      	ori.b #-82,d1
     13c:	fd54           	.short 0xfd54

0000013e ___aqb_init:
     13e:	2540 0008      	move.l d0,8(a2)

00000142 __astr_itoa:
     142:	6700 02b4      	beq.w 3f8 _LEN_+0x8

00000146 ___pow_s2:
     146:	2c53           	movea.l (a3),a6
     148:	7044           	moveq #68,d0
     14a:	223c 0001 0001 	move.l #65537,d1
     150:	4eae fd54      	jsr -684(a6)
     154:	2540 000c      	move.l d0,12(a2)
     158:	6700 029e      	beq.w 3f8 _LEN_+0x8
     15c:	2c53           	movea.l (a3),a6
     15e:	7044           	moveq #68,d0
     160:	223c 0001 0001 	move.l #65537,d1
     166:	4eae fd54      	jsr -684(a6)
     16a:	41f9 0000 0040 	lea 40 __aqb_read2,a0
			16c: RELOC32	.bss
     170:	2180           	.short 0x2180

00000172 ___pow_u2:
     172:	2800           	move.l d0,d4
     174:	6700 0282      	beq.w 3f8 _LEN_+0x8
     178:	2f03           	move.l d3,-(sp)
     17a:	4eba 0f44      	jsr 10c0 __aio_writebool+0x10(pc)
     17e:	588f           	addq.l #4,sp
     180:	4a40           	tst.w d0
     182:	6700 0182      	beq.w 306 ___DARRAY_T_CLEAR+0x1e
     186:	47f9 0000 0008 	lea 8 ___mulsi4+0x2,a3
			188: RELOC32	.bss

0000018c __debug_puts1:
     18c:	2005           	move.l d5,d0
     18e:	2c53           	movea.l (a3),a6
     190:	4eae ffe2      	jsr -30(a6)
     194:	45f9           	.short 0x45f9
	...
			196: RELOC32	.bss

00000198 _WINDOW:
     198:	0090 2072 2800 	ori.l #544352256,(a0)

0000019e ___pow_s1:
     19e:	2628 0008      	move.l 8(a0),d3
     1a2:	2828 000c      	move.l 12(a0),d4
     1a6:	4a80           	tst.l d0
     1a8:	6700 0166      	beq.w 310 ___DARRAY_T_CLEAR+0x28
     1ac:	2028 0010      	move.l 16(a0),d0
     1b0:	2c53           	movea.l (a3),a6
     1b2:	4eae ffdc      	jsr -36(a6)
     1b6:	2c53           	movea.l (a3),a6
     1b8:	2200           	move.l d0,d1

000001ba _RESUME_NEXT:
     1ba:	2005           	move.l d5,d0

000001bc __aio_puttab:
     1bc:	4eae ffb2      	jsr -78(a6)
     1c0:	2a00           	move.l d0,d5
     1c2:	2039           	.short 0x2039

000001c4 _TIMER_:
     1c4:	0000 0000      	ori.b #0,d0
			1c4: RELOC32	.data
     1c8:	2c53           	movea.l (a3),a6

000001ca ___mul_s1:
     1ca:	4eae ffdc      	jsr -36(a6)
     1ce:	2205           	move.l d5,d1
     1d0:	2c53           	movea.l (a3),a6
     1d2:	4eae ffac      	jsr -84(a6)
     1d6:	2c53           	movea.l (a3),a6
     1d8:	4eae           	.short 0x4eae

000001da ___div_s1:
     1da:	ffe2           	.short 0xffe2
     1dc:	3a00           	move.w d0,d5
     1de:	beb9 0000 00c8 	cmp.l c8 ___pow_s4+0x6,d7
			1e0: RELOC32	.bss
     1e4:	6700 0148      	beq.w 32e __aio_puts2+0xc

000001e8 ___DARRAY_T_LBOUND_:
     1e8:	49f9 0000 0008 	lea 8 ___mulsi4+0x2,a4
			1ea: RELOC32	.bss
     1ee:	2c54           	movea.l (a4),a6
     1f0:	7000           	moveq #0,d0
     1f2:	3005           	move.w d5,d0
     1f4:	4eae ffdc      	jsr -36(a6)
     1f8:	2640           	movea.l d0,a3

000001fa ___mod_s1:
     1fa:	2039 0000 0000 	move.l 0 _start,d0
			1fc: RELOC32	.data
     200:	2c54           	movea.l (a4),a6
     202:	4eae ffdc      	jsr -36(a6)
     206:	220b           	move.l a3,d1
     208:	2c54           	movea.l (a4),a6
     20a:	4eae ffac      	jsr -84(a6)
     20e:	2207           	move.l d7,d1
     210:	2c54           	movea.l (a4),a6
     212:	4eae ffb2      	jsr -78(a6)
     216:	2c54           	movea.l (a4),a6

00000218 _DATE_:
     218:	4eae           	.short 0x4eae

0000021a ___pow_u1:
     21a:	ffe2           	.short 0xffe2
     21c:	2072 2800      	movea.l (0,a2,d2.l),a0
     220:	2840           	movea.l d0,a4
     222:	2b68 001e fff8 	move.l 30(a0),-8(a5)
     228:	b68c           	cmp.l a4,d3

0000022a ___DARRAY_T_UBOUND_:
     22a:	6200 0116      	bhi.w 342 _ON_TIMER_CALL+0x2
     22e:	4a83           	tst.l d3
     230:	6600 01da      	bne.w 40c _CHR_+0x4
     234:	4a84           	tst.l d4
     236:	6700 00ce      	beq.w 306 ___DARRAY_T_CLEAR+0x1e
     23a:	2e2d fff8      	move.l -8(a5),d7
     23e:	de83           	add.l d3,d7
     240:	2f04           	move.l d4,-(sp)
     242:	99c3           	suba.l d3,a4
     244:	2f0c           	move.l a4,-(sp)

00000246 ___mul_u1:
     246:	4eb9           	.short 0x4eb9
	...
			248: RELOC32	.text

0000024a __astr_utoa_ext:
     24a:	0036 508f 3840 	ori.b #-113,(64,a6,d3.l)
     250:	4a40           	tst.w d0
     252:	6604           	bne.s 258 ___div_u1+0x2
     254:	387c           	.short 0x387c

00000256 ___div_u1:
     256:	0001 41f9      	ori.b #-7,d1
     25a:	0000 0050      	ori.b #80,d0
			25a: RELOC32	.bss
     25e:	0284 0000 ffff 	andi.l #65535,d4
     264:	2030 2800      	move.l (0,a0,d2.l),d0
     268:	2600           	move.l d0,d3

0000026a __debug_puts2:
     26a:	5280           	addq.l #1,d0

0000026c __aio_puts4:
     26c:	0280 8000 0003 	andi.l #-2147483645,d0

00000272 ___mod_u1:
     272:	6d00           	.short 0x6d00

00000274 ___DARRAY_T_COPY:
     274:	025a 2180      	andi.w #8576,(a2)+
     278:	2800           	move.l d0,d4
     27a:	3043           	movea.w d3,a0
     27c:	45f9 0000 00a0 	lea a0 __aio_set_dos_cursor_visible,a2
			27e: RELOC32	.bss
     282:	0c46 0003      	cmpi.w #3,d6
     286:	6200 0252      	bhi.w 4da _PEEKL_+0xa
     28a:	d1c2           	adda.l d2,a0
     28c:	2c08           	move.l a0,d6
     28e:	dc88           	add.l a0,d6
     290:	47f9           	.short 0x47f9

00000292 ___aqb_mod:
     292:	0000 0060      	ori.b #96,d0
			292: RELOC32	.bss
     296:	4a72 6800      	tst.w (0,a2,d6.l)
     29a:	6720           	beq.s 2bc ___aqb_mod+0x2a
     29c:	2073 2800      	movea.l (0,a3,d2.l),a0
     2a0:	2c79 0000 0000 	movea.l 0 _start,a6
			2a2: RELOC32	.bss
     2a6:	4eae fe80      	jsr -384(a6)
     2aa:	2073 2800      	movea.l (0,a3,d2.l),a0
     2ae:	4eae fe8c      	jsr -372(a6)
     2b2:	4a80           	tst.l d0
     2b4:	6700 022a      	beq.w 4e0 __autil_create_port+0x2
     2b8:	4272 6800      	clr.w (0,a2,d6.l)
     2bc:	d682           	add.l d2,d3

000002be ___DARRAY_T_ERASE:
     2be:	2003           	move.l d3,d0
     2c0:	41f9 0000 0000 	lea 0 _start,a0
			2c2: RELOC32	.bss
     2c6:	e588           	lsl.l #2,d0
     2c8:	2070 0800      	movea.l (0,a0,d0.l),a0
     2cc:	2173 2800 000e 	move.l (0,a3,d2.l),14(a0)
     2d2:	317c 0003 001c 	move.w #3,28(a0)
     2d8:	117c 0010 001e 	move.b #16,30(a0)
     2de:	2147 0022      	move.l d7,34(a0)
     2e2:	2144 0026      	move.l d4,38(a0)
     2e6:	3145           	.short 0x3145

000002e8 ___DARRAY_T_CLEAR:
     2e8:	002a 316d fffe 	ori.b #109,-2(a2)
     2ee:	002c 314c 002e 	ori.b #76,46(a4)
     2f4:	2f08           	move.l a0,-(sp)
     2f6:	4eb9 0000 0668 	jsr 668 __autil_begin_io
			2f8: RELOC32	.text
     2fc:	d683           	add.l d3,d3
     2fe:	35bc 0001 3800 	move.w #1,(0,a2,d3.l)
     304:	588f           	addq.l #4,sp
     306:	4ced 5cfc ffc8 	movem.l -56(a5),d2-d7/a2-a4/a6
     30c:	4e5d           	unlk a5
     30e:	4e75           	rts
     310:	2f28 0014      	move.l 20(a0),-(sp)
     314:	2f39 0000 0000 	move.l 0 _start,-(sp)
			316: RELOC32	.data
     31a:	4eb9 0000 0036 	jsr 36 __aqb_clear
			31c: RELOC32	.text
     320:	508f           	addq.l #8,sp

00000322 __aio_puts2:
     322:	3a00           	move.w d0,d5
     324:	beb9 0000 00c8 	cmp.l c8 ___pow_s4+0x6,d7
			326: RELOC32	.bss
     32a:	6600 febc      	bne.w 1e8 ___DARRAY_T_LBOUND_
     32e:	2843           	movea.l d3,a4

00000330 __astr_utoa:
     330:	2072 2800      	movea.l (0,a2,d2.l),a0
     334:	d9c4           	adda.l d4,a4
     336:	2b68 001e fff8 	move.l 30(a0),-8(a5)
     33c:	b68c           	cmp.l a4,d3
     33e:	6300           	.short 0x6300

00000340 _ON_TIMER_CALL:
     340:	feee           	.short 0xfeee
     342:	280c           	move.l a4,d4

00000344 __debug_puts4:
     344:	41f9 0000 0050 	lea 50 __aqb_read2+0x10,a0
			346: RELOC32	.bss
     34a:	0284 0000 ffff 	andi.l #65535,d4
     350:	2030 2800      	move.l (0,a0,d2.l),d0
     354:	2600           	move.l d0,d3
     356:	5280           	addq.l #1,d0
     358:	0280           	Address 0x000000000000035a is out of bounds.
.short 0x0280
     35a:	8000           	or.b d0,d0

0000035c _fix_:
     35c:	0003 6d00      	ori.b #0,d3
     360:	01c8 2180      	movep.l d0,8576(a0)

00000364 _SLEEP_FOR:
     364:	2800           	move.l d0,d4
     366:	3043           	movea.w d3,a0
     368:	45f9 0000 00a0 	lea a0 __aio_set_dos_cursor_visible,a2
			36a: RELOC32	.bss
     36e:	0c46 0003      	cmpi.w #3,d6
     372:	6200 01cc      	bhi.w 540 ___aqb_shl_single+0x32

00000376 _int_:
     376:	d1c2           	adda.l d2,a0
     378:	2c08           	move.l a0,d6
     37a:	dc88           	add.l a0,d6
     37c:	47f9 0000 0060 	lea 60 __aqb_read2+0x20,a3
			37e: RELOC32	.bss
     382:	4a72 6800      	tst.w (0,a2,d6.l)
     386:	6720           	beq.s 3a8 _SYSTEM+0x4
     388:	2073 2800      	movea.l (0,a3,d2.l),a0
     38c:	2c79 0000 0000 	movea.l 0 _start,a6
			38e: RELOC32	.bss
     392:	4eae           	.short 0x4eae

00000394 _cint_:
     394:	fe80           	.short 0xfe80
     396:	2073 2800      	movea.l (0,a3,d2.l),a0
     39a:	4eae fe8c      	jsr -372(a6)
     39e:	4a80           	tst.l d0
     3a0:	6700 01a4      	beq.w 546 ___aqb_shl_single+0x38

000003a4 _SYSTEM:
     3a4:	4272 6800      	clr.w (0,a2,d6.l)
     3a8:	d682           	add.l d2,d3
     3aa:	2003           	move.l d3,d0
     3ac:	41f9 0000 0000 	lea 0 _start,a0
			3ae: RELOC32	.bss
     3b2:	e588           	lsl.l #2,d0
     3b4:	2070           	.short 0x2070

000003b6 _FRE_:
     3b6:	0800 2173      	btst #115,d0
     3ba:	2800           	move.l d0,d4
     3bc:	000e           	.short 0x000e
     3be:	317c 0003 001c 	move.w #3,28(a0)
     3c4:	117c 0010 001e 	move.b #16,30(a0)
     3ca:	216d fff8 0022 	move.l -8(a5),34(a0)
     3d0:	2144 0026      	move.l d4,38(a0)
     3d4:	3145 002a      	move.w d5,42(a0)
     3d8:	316d           	.short 0x316d

000003da __aio_puts1:
     3da:	fffe           	.short 0xfffe
     3dc:	002c 317c 0001 	ori.b #124,1(a4)
     3e2:	002e 2f08 4eb9 	ori.b #8,20153(a6)
     3e8:	0000 0668      	ori.b #104,d0
			3e8: RELOC32	.text

000003ec _clng_:
     3ec:	d683           	add.l d3,d3
     3ee:	35bc           	.short 0x35bc

000003f0 _LEN_:
     3f0:	0001 3800      	ori.b #0,d1
     3f4:	6000 ff10      	bra.w 306 ___DARRAY_T_CLEAR+0x1e
     3f8:	707c           	moveq #124,d0
     3fa:	2b40 0008      	move.l d0,8(a5)
     3fe:	4ced 5cfc ffc8 	movem.l -56(a5),d2-d7/a2-a4/a6
     404:	4e5d           	unlk a5
     406:	4ef9           	.short 0x4ef9

00000408 _CHR_:
     408:	0000 011e      	ori.b #30,d0
			408: RELOC32	.text
     40c:	7000           	moveq #0,d0

0000040e _WINDOW_CLOSE:
     40e:	4640           	not.w d0
     410:	c083           	and.l d3,d0
     412:	2b40 fff0      	move.l d0,-16(a5)
     416:	41f9 0000 0050 	lea 50 __aqb_read2+0x10,a0
			418: RELOC32	.bss

0000041c __debug_putu1:
     41c:	2030 2800      	move.l (0,a0,d2.l),d0
     420:	2e00           	move.l d0,d7
     422:	5280           	addq.l #1,d0
     424:	0280 8000 0003 	andi.l #-2147483645,d0

0000042a _TIMER_ON:
     42a:	6d00 0108      	blt.w 534 ___aqb_shl_single+0x26
     42e:	2180 2800      	move.l d0,(0,a0,d2.l)
     432:	3047           	movea.w d7,a0
     434:	45f9 0000 00a0 	lea a0 __aio_set_dos_cursor_visible,a2
			436: RELOC32	.bss
     43a:	0c46 0003      	cmpi.w #3,d6
     43e:	6200 0152      	bhi.w 592 __autil_delete_port+0x20
     442:	d1c2           	adda.l d2,a0

00000444 ___aqb_intdiv_single:
     444:	d1c8           	adda.l a0,a0
     446:	2b48 fff4      	move.l a0,-12(a5)
     44a:	47f9 0000 0060 	lea 60 __aqb_read2+0x20,a3
			44c: RELOC32	.bss
     450:	4a72 8800      	tst.w (0,a2,a0.l)
     454:	6724           	beq.s 47a _ASC_+0x20
     456:	2073 2800      	movea.l (0,a3,d2.l),a0

0000045a _ASC_:
     45a:	2c79 0000 0000 	movea.l 0 _start,a6
			45c: RELOC32	.bss
     460:	4eae fe80      	jsr -384(a6)
     464:	2073 2800      	movea.l (0,a3,d2.l),a0
     468:	4eae fe8c      	jsr -372(a6)
     46c:	4a80           	tst.l d0
     46e:	6700 0128      	beq.w 598 __autil_delete_port+0x26
     472:	202d fff4      	move.l -12(a5),d0
     476:	4272 0800      	clr.w (0,a2,d0.l)
     47a:	de82           	add.l d2,d7
     47c:	2007           	move.l d7,d0
     47e:	41f9 0000 0000 	lea 0 _start,a0
			480: RELOC32	.bss

00000484 _POKE:
     484:	e588           	lsl.l #2,d0
     486:	2070 0800      	movea.l (0,a0,d0.l),a0
     48a:	2173 2800 000e 	move.l (0,a3,d2.l),14(a0)
     490:	317c           	.short 0x317c

00000492 _MID_:
     492:	0003           	Address 0x0000000000000494 is out of bounds.
.short 0x0003

00000494 _POKEW:
     494:	001c 117c      	ori.b #124,(a4)+
     498:	0010 001e      	ori.b #30,(a0)
     49c:	216d fff8 0022 	move.l -8(a5),34(a0)
     4a2:	216d           	.short 0x216d

000004a4 _POKEL:
     4a4:	fff0           	.short 0xfff0
     4a6:	0026 3145      	ori.b #69,-(a6)
     4aa:	002a 316d fffe 	ori.b #109,-2(a2)
     4b0:	002c           	Address 0x00000000000004b2 is out of bounds.
.short 0x002c

000004b2 __window_add_close_cb:
     4b2:	317c           	.short 0x317c

000004b4 _PEEK_:
     4b4:	0001 002e      	ori.b #46,d1
     4b8:	2f08           	move.l a0,-(sp)
     4ba:	4eb9 0000 0668 	jsr 668 __autil_begin_io
			4bc: RELOC32	.text
     4c0:	de87           	add.l d7,d7

000004c2 _PEEKW_:
     4c2:	35bc 0001 7800 	move.w #1,(0,a2,d7.l)
     4c8:	588f           	addq.l #4,sp
     4ca:	6000 fd68      	bra.w 234 ___DARRAY_T_UBOUND_+0xa
     4ce:	5380           	subq.l #1,d0

000004d0 _PEEKL_:
     4d0:	72fc           	moveq #-4,d1
     4d2:	8081           	or.l d1,d0
     4d4:	5280           	addq.l #1,d0
     4d6:	6000 fd9e      	bra.w 276 ___DARRAY_T_COPY+0x2
     4da:	47f9           	.short 0x47f9
	...
			4dc: RELOC32	.bss

000004de __autil_create_port:
     4de:	0060 4878      	ori.w #18552,-(a0)
     4e2:	007c 4eb9      	ori.w #20153,sr
     4e6:	0000 011e      	ori.b #30,d0
			4e6: RELOC32	.text
     4ea:	d682           	add.l d2,d3
     4ec:	2003           	move.l d3,d0
     4ee:	588f           	addq.l #4,sp
     4f0:	41f9 0000 0000 	lea 0 _start,a0
			4f2: RELOC32	.bss
     4f6:	e588           	lsl.l #2,d0

000004f8 __debug_putu2:
     4f8:	2070 0800      	movea.l (0,a0,d0.l),a0
     4fc:	2173           	.short 0x2173
     4fe:	2800           	move.l d0,d4

00000500 __window_add_msg_cb:
     500:	000e           	.short 0x000e
     502:	317c 0003 001c 	move.w #3,28(a0)
     508:	117c 0010 001e 	move.b #16,30(a0)

0000050e ___aqb_shl_single:
     50e:	2147 0022      	move.l d7,34(a0)
     512:	2144 0026      	move.l d4,38(a0)
     516:	3145 002a      	move.w d5,42(a0)
     51a:	316d fffe 002c 	move.w -2(a5),44(a0)
     520:	314c 002e      	move.w a4,46(a0)
     524:	6000 fdce      	bra.w 2f4 ___DARRAY_T_CLEAR+0xc
     528:	5380           	subq.l #1,d0
     52a:	72fc           	moveq #-4,d1
     52c:	8081           	or.l d1,d0
     52e:	5280           	addq.l #1,d0
     530:	6000 fe30      	bra.w 362 _fix_+0x6
     534:	5380           	subq.l #1,d0
     536:	72fc           	moveq #-4,d1
     538:	8081           	or.l d1,d0
     53a:	5280           	addq.l #1,d0
     53c:	6000 fef0      	bra.w 42e _TIMER_ON+0x4
     540:	47f9 0000 0060 	lea 60 __aqb_read2+0x20,a3
			542: RELOC32	.bss
     546:	4878 007c      	pea 7c __atimer_process_signals+0x4

0000054a __aio_putu2:
     54a:	4eb9           	.short 0x4eb9
	...
			54c: RELOC32	.text

0000054e _WINDOW_OUTPUT:
     54e:	011e           	btst d0,(a6)+
     550:	d682           	add.l d2,d3
     552:	2003           	move.l d3,d0
     554:	588f           	addq.l #4,sp
     556:	41f9 0000 0000 	lea 0 _start,a0
			558: RELOC32	.bss
     55c:	e588           	lsl.l #2,d0
     55e:	2070 0800      	movea.l (0,a0,d0.l),a0
     562:	2173           	.short 0x2173

00000564 _TIMER_OFF:
     564:	2800           	move.l d0,d4
     566:	000e           	.short 0x000e
     568:	317c 0003 001c 	move.w #3,28(a0)

0000056e _UCASE_:
     56e:	117c           	.short 0x117c
     570:	0010           	Address 0x0000000000000572 is out of bounds.
.short 0x0010

00000572 __autil_delete_port:
     572:	001e 216d      	ori.b #109,(a6)+
     576:	fff8           	.short 0xfff8
     578:	0022 2144      	ori.b #68,-(a2)
     57c:	0026 3145      	ori.b #69,-(a6)
     580:	002a 316d fffe 	ori.b #109,-2(a2)
     586:	002c 317c 0001 	ori.b #124,1(a4)
     58c:	002e 6000 fe54 	ori.b #0,-428(a6)
     592:	47f9 0000 0060 	lea 60 __aqb_read2+0x20,a3
			594: RELOC32	.bss
     598:	4878 007c      	pea 7c __atimer_process_signals+0x4
     59c:	4eb9 0000 011e 	jsr 11e _ERROR
			59e: RELOC32	.text
     5a2:	de82           	add.l d2,d7
     5a4:	2007           	move.l d7,d0
     5a6:	588f           	addq.l #4,sp
     5a8:	41f9           	.short 0x41f9

000005aa __autil_create_ext_io:
     5aa:	0000 0000      	ori.b #0,d0
			5aa: RELOC32	.bss
     5ae:	e588           	lsl.l #2,d0
     5b0:	2070 0800      	movea.l (0,a0,d0.l),a0
     5b4:	2173 2800 000e 	move.l (0,a3,d2.l),14(a0)
     5ba:	317c           	.short 0x317c
     5bc:	0003           	Address 0x00000000000005be is out of bounds.
.short 0x0003

000005be ___aqb_shr_single:
     5be:	001c 117c      	ori.b #124,(a4)+
     5c2:	0010 001e      	ori.b #30,(a0)
     5c6:	216d fff8 0022 	move.l -8(a5),34(a0)
     5cc:	216d fff0 0026 	move.l -16(a5),38(a0)
     5d2:	3145           	.short 0x3145

000005d4 __debug_putu4:
     5d4:	002a 316d fffe 	ori.b #109,-2(a2)
     5da:	002c 317c 0001 	ori.b #124,1(a4)
     5e0:	002e 2f08 4eb9 	ori.b #8,20153(a6)
     5e6:	0000 0668      	ori.b #104,d0
			5e6: RELOC32	.text
     5ea:	de87           	add.l d7,d7
     5ec:	35bc 0001 7800 	move.w #1,(0,a2,d7.l)
     5f2:	588f           	addq.l #4,sp

000005f4 __autil_create_std_io:
     5f4:	6000 fc3e      	bra.w 234 ___DARRAY_T_UBOUND_+0xa

000005f8 _WAVE_:
     5f8:	4e55 0000      	link.w a5,#0

000005fc __awindow_shutdown:
     5fc:	48e7 3022      	movem.l d2-d3/a2/a6,-(sp)
     600:	246d 0008      	movea.l 8(a5),a2

00000604 __aio_putu1:
     604:	262d 001c      	move.l 28(a5),d3
     608:	200a           	move.l a2,d0
     60a:	6700 0090      	beq.w 69c __autil_init+0x1c
     60e:	0c6a 0001 0004 	cmpi.w #1,4(a2)
     614:	6600 0086      	bne.w 69c __autil_init+0x1c
     618:	7001           	moveq #1,d0

0000061a _LCASE_:
     61a:	b0aa 0006      	cmp.l 6(a2),d0
     61e:	667c           	bne.s 69c __autil_init+0x1c
     620:	2c79 0000 0000 	movea.l 0 _start,a6
			622: RELOC32	.bss
     626:	202a 000a      	move.l 10(a2),d0
     62a:	223c 0001 0002 	move.l #65538,d1
     630:	4eae fd54      	jsr -684(a6)
     634:	2400           	move.l d0,d2
     636:	6764           	beq.s 69c __autil_init+0x1c
     638:	205a           	movea.l (a2)+,a0

0000063a __autil_delete_ext_io:
     63a:	2240           	movea.l d0,a1
     63c:	202a 0006      	move.l 6(a2),d0
     640:	4eae fd90      	jsr -624(a6)
     644:	7022           	moveq #34,d0
     646:	7201           	moveq #1,d1
     648:	4841           	swap d1
     64a:	4eae fd54      	jsr -684(a6)
     64e:	2040           	movea.l d0,a0
     650:	4a80           	tst.l d0
     652:	6748           	beq.s 69c __autil_init+0x1c
     654:	2279 0000 00c4 	movea.l c4 ___pow_s4+0x2,a1
			656: RELOC32	.bss
     65a:	2089           	move.l a1,(a0)
     65c:	2209           	move.l a1,d1
     65e:	6752           	beq.s 6b2 __debug_putf+0x6
     660:	2340 0004      	move.l d0,4(a1)
     664:	23c0           	.short 0x23c0
	...
			666: RELOC32	.bss

00000668 __autil_begin_io:
     668:	00c4           	.short 0x00c4
     66a:	2142 001e      	move.l d2,30(a0)

0000066e ___aqb_xor_single:
     66e:	216d 000c 0008 	move.l 12(a5),8(a0)
     674:	216d 0010 000c 	move.l 16(a5),12(a0)
     67a:	216d 0014 0010 	move.l 20(a5),16(a0)

00000680 __autil_init:
     680:	216d 0018 0014 	move.l 24(a5),20(a0)
     686:	3143 0018      	move.w d3,24(a0)
     68a:	216d 0020 001a 	move.l 32(a5),26(a0)
     690:	2008           	move.l a0,d0
     692:	4ced 440c fff0 	movem.l -16(a5),d2-d3/a2/a6
     698:	4e5d           	unlk a5
     69a:	4e75           	rts
     69c:	4878 007c      	pea 7c __atimer_process_signals+0x4
     6a0:	4eb9           	.short 0x4eb9
	...
			6a2: RELOC32	.text

000006a4 __autil_shutdown:
     6a4:	011e           	btst d0,(a6)+
     6a6:	7000           	moveq #0,d0
     6a8:	4ced           	.short 0x4ced
     6aa:	440c           	.short 0x440c

000006ac __debug_putf:
     6ac:	fff0           	.short 0xfff0
     6ae:	4e5d           	unlk a5
     6b0:	4e75           	rts
     6b2:	23c0 0000 00c4 	move.l d0,c4 ___pow_s4+0x2
			6b4: RELOC32	.bss
     6b8:	23c0 0000 00c0 	move.l d0,c0 _SOUND+0x6
			6ba: RELOC32	.bss

000006be __aio_puthex:
     6be:	2142 001e      	move.l d2,30(a0)
     6c2:	216d           	.short 0x216d
     6c4:	000c           	Address 0x00000000000006c6 is out of bounds.
.short 0x000c

000006c6 _LEFT_:
     6c6:	0008           	.short 0x0008
     6c8:	216d 0010 000c 	move.l 16(a5),12(a0)
     6ce:	216d 0014 0010 	move.l 20(a5),16(a0)
     6d4:	216d 0018 0014 	move.l 24(a5),20(a0)
     6da:	3143 0018      	move.w d3,24(a0)
     6de:	216d 0020 001a 	move.l 32(a5),26(a0)
     6e4:	2008           	move.l a0,d0
     6e6:	60aa           	bra.s 692 __autil_init+0x12

000006e8 _WAVE_FREE:
     6e8:	4e55 0000      	link.w a5,#0
     6ec:	2f0e           	move.l a6,-(sp)
     6ee:	2f0a           	move.l a2,-(sp)
     6f0:	246d 0008      	movea.l 8(a5),a2
     6f4:	2052           	movea.l (a2),a0
     6f6:	2008           	move.l a0,d0
     6f8:	6736           	beq.s 730 ___aqb_eqv_single+0x16
     6fa:	216a 0004 0004 	move.l 4(a2),4(a0)
     700:	226a 0004      	movea.l 4(a2),a1
     704:	2009           	move.l a1,d0
     706:	6736           	beq.s 73e ___aqb_eqv_single+0x24
     708:	2288           	move.l a0,(a1)
     70a:	226a 001e      	movea.l 30(a2),a1
     70e:	2009           	move.l a1,d0
     710:	670a           	beq.s 71c ___aqb_eqv_single+0x2
     712:	2c79 0000 0000 	movea.l 0 _start,a6
			714: RELOC32	.bss
     718:	4eae           	.short 0x4eae

0000071a ___aqb_eqv_single:
     71a:	fd4e           	.short 0xfd4e
     71c:	224a           	movea.l a2,a1
     71e:	2c79 0000 0000 	movea.l 0 _start,a6
			720: RELOC32	.bss
     724:	4eae fd4e      	jsr -690(a6)
     728:	245f           	movea.l (sp)+,a2
     72a:	2c5f           	movea.l (sp)+,a6
     72c:	4e5d           	unlk a5
     72e:	4e75           	rts
     730:	226a 0004      	movea.l 4(a2),a1
     734:	23c9 0000 00c0 	move.l a1,c0 _SOUND+0x6
			736: RELOC32	.bss
     73a:	2009           	move.l a1,d0
     73c:	66ca           	bne.s 708 _WAVE_FREE+0x20
     73e:	23c8 0000 00c4 	move.l a0,c4 ___pow_s4+0x2
			740: RELOC32	.bss
     744:	60c4           	bra.s 70a _WAVE_FREE+0x22

00000746 _WAVE:
     746:	4e55 0000      	link.w a5,#0
     74a:	202d 0008      	move.l 8(a5),d0
     74e:	222d 000c      	move.l 12(a5),d1
     752:	6718           	beq.s 76c _RIGHT_+0xc
     754:	0c40 0003      	cmpi.w #3,d0
     758:	6212           	bhi.s 76c _RIGHT_+0xc
     75a:	48c0           	ext.l d0
     75c:	41f9           	.short 0x41f9
	...
			75e: RELOC32	.bss

00000760 _RIGHT_:
     760:	0090 e588 2181 	ori.l #-444063359,(a0)
     766:	0800 4e5d      	btst #93,d0
     76a:	4e75           	rts
     76c:	707c           	moveq #124,d0
     76e:	2b40 0008      	move.l d0,8(a5)
     772:	4e5d           	unlk a5

00000774 __aio_putbin:
     774:	4ef9 0000 011e 	jmp 11e _ERROR
			776: RELOC32	.text

0000077a _SOUND_WAIT:
     77a:	4e55 0000      	link.w a5,#0
     77e:	48e7 383a      	movem.l d2-d4/a2-a4/a6,-(sp)
     782:	202d 0008      	move.l 8(a5),d0
     786:	4a40           	tst.w d0
     788:	6d00           	.short 0x6d00

0000078a __debug_putbool:
     78a:	00e0           	.short 0x00e0
     78c:	0c40 0003      	cmpi.w #3,d0
     790:	6e00 0180      	bgt.w 912 __debug_putnl
     794:	3600           	move.w d0,d3
     796:	48c3           	ext.l d3
     798:	2403           	move.l d3,d2
     79a:	45f9 0000 00a0 	lea a0 __aio_set_dos_cursor_visible,a2
			79c: RELOC32	.bss
     7a0:	e78a           	lsl.l #3,d2
     7a2:	4a72 2800      	tst.w (0,a2,d2.l)
     7a6:	672a           	beq.s 7d2 ___aqb_imp_single+0x8
     7a8:	47f9 0000 0060 	lea 60 __aqb_read2+0x20,a3
			7aa: RELOC32	.bss
     7ae:	2803           	move.l d3,d4
     7b0:	e58c           	lsl.l #2,d4
     7b2:	2073 4800      	movea.l (0,a3,d4.l),a0
     7b6:	2c79 0000 0000 	movea.l 0 _start,a6
			7b8: RELOC32	.bss
     7bc:	4eae fe80      	jsr -384(a6)
     7c0:	2073 4800      	movea.l (0,a3,d4.l),a0
     7c4:	4eae fe8c      	jsr -372(a6)
     7c8:	4a80           	tst.l d0

000007ca ___aqb_imp_single:
     7ca:	6700 0190      	beq.w 95c __astr_dup+0x3a
     7ce:	4272 2800      	clr.w (0,a2,d2.l)
     7d2:	47f2 2802      	lea (2,a2,d2.l),a3
     7d6:	4a53           	tst.w (a3)
     7d8:	6728           	beq.s 802 ___aqb_imp_single+0x38
     7da:	49f9 0000 0060 	lea 60 __aqb_read2+0x20,a4
			7dc: RELOC32	.bss
     7e0:	2803           	move.l d3,d4
     7e2:	e58c           	lsl.l #2,d4
     7e4:	2074 4800      	movea.l (0,a4,d4.l),a0
     7e8:	2c79 0000 0000 	movea.l 0 _start,a6
			7ea: RELOC32	.bss
     7ee:	4eae fe80      	jsr -384(a6)
     7f2:	2074 4800      	movea.l (0,a4,d4.l),a0
     7f6:	4eae fe8c      	jsr -372(a6)
     7fa:	4a80           	tst.l d0
     7fc:	6700 0190      	beq.w 98e ___aqb_or_single+0x4
     800:	4253           	clr.w (a3)
     802:	47f2 2804      	lea (4,a2,d2.l),a3
     806:	4a53           	tst.w (a3)
     808:	6728           	beq.s 832 __aio_putuhex+0x8
     80a:	49f9 0000 0060 	lea 60 __aqb_read2+0x20,a4
			80c: RELOC32	.bss
     810:	2803           	move.l d3,d4
     812:	e58c           	lsl.l #2,d4
     814:	2074 4800      	movea.l (0,a4,d4.l),a0
     818:	2c79 0000 0000 	movea.l 0 _start,a6
			81a: RELOC32	.bss
     81e:	4eae fe80      	jsr -384(a6)
     822:	2074 4800      	movea.l (0,a4,d4.l),a0
     826:	4eae           	.short 0x4eae

00000828 __aqb_get_output:
     828:	fe8c           	.short 0xfe8c

0000082a __aio_putuhex:
     82a:	4a80           	tst.l d0
     82c:	6700 0148      	beq.w 976 ___astr_cmp+0xe
     830:	4253           	clr.w (a3)
     832:	45f2 2806      	lea (6,a2,d2.l),a2
     836:	4a52           	tst.w (a2)
     838:	6726           	beq.s 860 __astr_strstr+0xe
     83a:	47f9 0000 0060 	lea 60 __aqb_read2+0x20,a3
			83c: RELOC32	.bss
     840:	e58b           	lsl.l #2,d3
     842:	2073 3800      	movea.l (0,a3,d3.l),a0
     846:	2c79 0000 0000 	movea.l 0 _start,a6
			848: RELOC32	.bss
     84c:	4eae fe80      	jsr -384(a6)
     850:	2073           	.short 0x2073

00000852 __astr_strstr:
     852:	3800           	move.w d0,d4
     854:	4eae fe8c      	jsr -372(a6)
     858:	4a80           	tst.l d0
     85a:	6700 00b6      	beq.w 912 __debug_putnl
     85e:	4252           	clr.w (a2)
     860:	4ced 5c1c ffe4 	movem.l -28(a5),d2-d4/a2-a4/a6

00000866 __debug_puttab:
     866:	4e5d           	unlk a5
     868:	4e75           	rts
     86a:	45f9 0000 00a0 	lea a0 __aio_set_dos_cursor_visible,a2
			86c: RELOC32	.bss
     870:	47f9 0000 0060 	lea 60 __aqb_read2+0x20,a3
			872: RELOC32	.bss
     876:	7404           	moveq #4,d2
     878:	49f9           	.short 0x49f9

0000087a ___aqb_not_single:
     87a:	0000 011e      	ori.b #30,d0
			87a: RELOC32	.text
     87e:	4a52           	tst.w (a2)
     880:	671a           	beq.s 89c _INSTR_+0x14
     882:	2053           	movea.l (a3),a0
     884:	2c79           	.short 0x2c79
	...
			886: RELOC32	.bss

00000888 _INSTR_:
     888:	0000 4eae      	ori.b #-82,d0
     88c:	fe80           	.short 0xfe80
     88e:	2053           	movea.l (a3),a0
     890:	4eae fe8c      	jsr -372(a6)
     894:	4a80           	tst.l d0
     896:	6700 00a2      	beq.w 93a __astr_dup+0x18
     89a:	4252           	clr.w (a2)
     89c:	4a6a 0002      	tst.w 2(a2)
     8a0:	671c           	beq.s 8be _INSTR_+0x36
     8a2:	2053           	movea.l (a3),a0
     8a4:	2c79 0000 0000 	movea.l 0 _start,a6
			8a6: RELOC32	.bss
     8aa:	4eae fe80      	jsr -384(a6)
     8ae:	2053           	movea.l (a3),a0
     8b0:	4eae fe8c      	jsr -372(a6)
     8b4:	4a80           	tst.l d0
     8b6:	6700 008e      	beq.w 946 __astr_dup+0x24
     8ba:	426a 0002      	clr.w 2(a2)
     8be:	4a6a 0004      	tst.w 4(a2)
     8c2:	671a           	beq.s 8de ___aqb_and_single
     8c4:	2053           	movea.l (a3),a0
     8c6:	2c79 0000 0000 	movea.l 0 _start,a6
			8c8: RELOC32	.bss
     8cc:	4eae fe80      	jsr -384(a6)
     8d0:	2053           	movea.l (a3),a0
     8d2:	4eae fe8c      	jsr -372(a6)
     8d6:	4a80           	tst.l d0
     8d8:	6778           	beq.s 952 __astr_dup+0x30
     8da:	426a 0004      	clr.w 4(a2)

000008de ___aqb_and_single:
     8de:	4a6a 0006      	tst.w 6(a2)
     8e2:	671a           	beq.s 8fe __aqb_get_win+0xa
     8e4:	2053           	movea.l (a3),a0
     8e6:	2c79 0000 0000 	movea.l 0 _start,a6
			8e8: RELOC32	.bss
     8ec:	4eae fe80      	jsr -384(a6)
     8f0:	2053           	movea.l (a3),a0
     8f2:	4eae           	.short 0x4eae

000008f4 __aqb_get_win:
     8f4:	fe8c           	.short 0xfe8c
     8f6:	4a80           	tst.l d0
     8f8:	672c           	beq.s 926 __astr_dup+0x4
     8fa:	426a 0006      	clr.w 6(a2)
     8fe:	5382           	subq.l #1,d2
     900:	508a           	addq.l #8,a2
     902:	588b           	addq.l #4,a3
     904:	6600 ff78      	bne.w 87e ___aqb_not_single+0x4
     908:	4ced 5c1c ffe4 	movem.l -28(a5),d2-d4/a2-a4/a6
     90e:	4e5d           	unlk a5
     910:	4e75           	rts

00000912 __debug_putnl:
     912:	707c           	moveq #124,d0
     914:	2b40 0008      	move.l d0,8(a5)
     918:	4ced 5c1c ffe4 	movem.l -28(a5),d2-d4/a2-a4/a6
     91e:	4e5d           	unlk a5
     920:	4ef9           	.short 0x4ef9

00000922 __astr_dup:
     922:	0000 011e      	ori.b #30,d0
			922: RELOC32	.text
     926:	4878 007c      	pea 7c __atimer_process_signals+0x4
     92a:	4e94           	jsr (a4)
     92c:	588f           	addq.l #4,sp
     92e:	5382           	subq.l #1,d2
     930:	508a           	addq.l #8,a2
     932:	588b           	addq.l #4,a3
     934:	6600 ff48      	bne.w 87e ___aqb_not_single+0x4
     938:	60ce           	bra.s 908 __aqb_get_win+0x14
     93a:	4878 007c      	pea 7c __atimer_process_signals+0x4
     93e:	4e94           	jsr (a4)
     940:	588f           	addq.l #4,sp
     942:	6000 ff58      	bra.w 89c _INSTR_+0x14
     946:	4878 007c      	pea 7c __atimer_process_signals+0x4
     94a:	4e94           	jsr (a4)
     94c:	588f           	addq.l #4,sp
     94e:	6000 ff6e      	bra.w 8be _INSTR_+0x36
     952:	4878 007c      	pea 7c __atimer_process_signals+0x4
     956:	4e94           	jsr (a4)
     958:	588f           	addq.l #4,sp
     95a:	6082           	bra.s 8de ___aqb_and_single
     95c:	4878 007c      	pea 7c __atimer_process_signals+0x4
     960:	4eb9 0000 011e 	jsr 11e _ERROR
			962: RELOC32	.text
     966:	588f           	addq.l #4,sp

00000968 ___astr_cmp:
     968:	47f2 2802      	lea (2,a2,d2.l),a3
     96c:	4a53           	tst.w (a3)
     96e:	6600 fe6a      	bne.w 7da ___aqb_imp_single+0x10
     972:	6000 fe8e      	bra.w 802 ___aqb_imp_single+0x38
     976:	4878 007c      	pea 7c __atimer_process_signals+0x4
     97a:	4eb9 0000 011e 	jsr 11e _ERROR
			97c: RELOC32	.text
     980:	45f2 2806      	lea (6,a2,d2.l),a2
     984:	4a52           	tst.w (a2)
     986:	6600 feb2      	bne.w 83a __aio_putuhex+0x10

0000098a ___aqb_or_single:
     98a:	6000 fed4      	bra.w 860 __astr_strstr+0xe
     98e:	4878 007c      	pea 7c __atimer_process_signals+0x4
     992:	4eb9 0000 011e 	jsr 11e _ERROR
			994: RELOC32	.text
     998:	588f           	addq.l #4,sp
     99a:	47f2 2804      	lea (4,a2,d2.l),a3
     99e:	4a53           	tst.w (a3)

000009a0 ___astr_concat:
     9a0:	6600 fe68      	bne.w 80a ___aqb_imp_single+0x40
     9a4:	6000 fe8c      	bra.w 832 __aio_putuhex+0x8
     9a8:	4e55 0000      	link.w a5,#0
     9ac:	48e7 3c22      	movem.l d2-d5/a2/a6,-(sp)
     9b0:	282d 000c      	move.l 12(a5),d4
     9b4:	362d 000a      	move.w 10(a5),d3
     9b8:	48c3           	ext.l d3
     9ba:	2403           	move.l d3,d2
     9bc:	e58a           	lsl.l #2,d2

000009be __debug_cls:
     9be:	41f9 0000 0080 	lea 80 __atimer_process_signals+0x8,a0
			9c0: RELOC32	.bss
     9c4:	4ab0 2800      	tst.l (0,a0,d2.l)
     9c8:	6700 00fc      	beq.w ac6 ___handle_break+0xc
     9cc:	7003           	moveq #3,d0
     9ce:	b083           	cmp.l d3,d0
     9d0:	6500 00e0      	bcs.w ab2 _ON_BREAK_CALL+0x8

000009d4 _LINE:
     9d4:	2c79 0000 0000 	movea.l 0 _start,a6
			9d6: RELOC32	.bss
     9da:	7044           	moveq #68,d0
     9dc:	223c 0001 0001 	move.l #65537,d1
     9e2:	4eae fd54      	jsr -684(a6)
     9e6:	2a03           	move.l d3,d5
     9e8:	e98d           	lsl.l #4,d5
     9ea:	45f9 0000 0000 	lea 0 _start,a2
			9ec: RELOC32	.bss
     9f0:	2580 5800      	move.l d0,(0,a2,d5.l)
     9f4:	6700 00bc      	beq.w ab2 _ON_BREAK_CALL+0x8
     9f8:	7044           	moveq #68,d0
     9fa:	223c 0001 0001 	move.l #65537,d1
     a00:	4eae fd54      	jsr -684(a6)

00000a04 __astr_ftoa_ext:
     a04:	d5c5           	adda.l d5,a2
     a06:	2540 0004      	move.l d0,4(a2)
     a0a:	6700 00a6      	beq.w ab2 _ON_BREAK_CALL+0x8
     a0e:	7044           	moveq #68,d0
     a10:	223c 0001 0001 	move.l #65537,d1
     a16:	4eae fd54      	jsr -684(a6)
     a1a:	2540 0008      	move.l d0,8(a2)
     a1e:	6700 0092      	beq.w ab2 _ON_BREAK_CALL+0x8
     a22:	7044           	moveq #68,d0
     a24:	223c 0001 0001 	move.l #65537,d1
     a2a:	4eae           	.short 0x4eae

00000a2c __aio_putf:
     a2c:	fd54           	.short 0xfd54
     a2e:	2540 000c      	move.l d0,12(a2)
     a32:	677e           	beq.s ab2 _ON_BREAK_CALL+0x8
     a34:	7044           	moveq #68,d0

00000a36 ___floatsisf:
     a36:	223c 0001 0001 	move.l #65537,d1
     a3c:	4eae fd54      	jsr -684(a6)
     a40:	45f9 0000 0040 	lea 40 __aqb_read2,a2
			a42: RELOC32	.bss
     a46:	2580 2800      	move.l d0,(0,a2,d2.l)
     a4a:	6766           	beq.s ab2 _ON_BREAK_CALL+0x8
     a4c:	2f03           	move.l d3,-(sp)
     a4e:	4eba           	.short 0x4eba

00000a50 ___gtsf2:
     a50:	0670 4a40 6752 	addi.w #19008,([0,a0],8818)
     a56:	2272 
     a58:	2800           	move.l d0,d4
     a5a:	45f9 0000 0070 	lea 70 _DEALLOCATE,a2
			a5c: RELOC32	.bss
     a60:	2372 2800 000e 	move.l (0,a2,d2.l),14(a1)
     a66:	3344 001c      	move.w d4,28(a1)

00000a6a __debug_break:
     a6a:	137c           	.short 0x137c
     a6c:	0010           	Address 0x0000000000000a6e is out of bounds.
.short 0x0010

00000a6e ___mulsf3:
     a6e:	001e 42a9      	ori.b #-87,(a6)+
     a72:	0022           	Address 0x0000000000000a74 is out of bounds.
.short 0x0022

00000a74 _ON_EXIT_CALL:
     a74:	42a9 0026      	clr.l 38(a1)
     a78:	337c 00c8 002a 	move.w #200,42(a1)
     a7e:	337c 0001 002c 	move.w #1,44(a1)
     a84:	337c 0001 002e 	move.w #1,46(a1)
     a8a:	2c79           	.short 0x2c79

00000a8c ___divsf3:
     a8c:	0000 0000      	ori.b #0,d0
			a8c: RELOC32	.bss
     a90:	4eae fe32      	jsr -462(a6)
     a94:	2072 2800      	movea.l (0,a2,d2.l),a0
     a98:	4eae fe80      	jsr -384(a6)
     a9c:	2072 2800      	movea.l (0,a2,d2.l),a0

00000aa0 __ctrlc_break:
     aa0:	4eae fe8c      	jsr -372(a6)
     aa4:	4a80           	tst.l d0
     aa6:	670a           	beq.s ab2 _ON_BREAK_CALL+0x8
     aa8:	4ced           	Address 0x0000000000000aaa is out of bounds.
.short 0x4ced

00000aaa _ON_BREAK_CALL:
     aaa:	443c           	.short 0x443c
     aac:	ffe8           	.short 0xffe8
     aae:	4e5d           	unlk a5
     ab0:	4e75           	rts
     ab2:	707c           	moveq #124,d0
     ab4:	2b40 0008      	move.l d0,8(a5)
     ab8:	4ced           	Address 0x0000000000000aba is out of bounds.
.short 0x4ced

00000aba ___handle_break:
     aba:	443c           	.short 0x443c
     abc:	ffe8           	.short 0xffe8
     abe:	4e5d           	unlk a5
     ac0:	4ef9 0000 011e 	jmp 11e _ERROR
			ac2: RELOC32	.text
     ac6:	41f9           	.short 0x41f9

00000ac8 ___subsf3:
     ac8:	0000 0040      	ori.b #64,d0
			ac8: RELOC32	.bss
     acc:	45f9 0000 0070 	lea 70 _DEALLOCATE,a2
			ace: RELOC32	.bss
     ad2:	2270 2800      	movea.l (0,a0,d2.l),a1
     ad6:	2372 2800 000e 	move.l (0,a2,d2.l),14(a1)
     adc:	3344 001c      	move.w d4,28(a1)
     ae0:	137c 0010 001e 	move.b #16,30(a1)

00000ae6 ___fixsfsi:
     ae6:	42a9           	.short 0x42a9

00000ae8 __aio_putbool:
     ae8:	0022 42a9      	ori.b #-87,-(a2)
     aec:	0026 337c      	ori.b #124,-(a6)
     af0:	00c8           	.short 0x00c8
     af2:	002a 337c 0001 	ori.b #124,1(a2)
     af8:	002c 337c 0001 	ori.b #124,1(a4)
     afe:	002e           	Address 0x0000000000000b00 is out of bounds.
.short 0x002e

00000b00 ___ltsf2:
     b00:	2c79 0000 0000 	movea.l 0 _start,a6
			b02: RELOC32	.bss
     b06:	4eae fe32      	jsr -462(a6)
     b0a:	2072 2800      	movea.l (0,a2,d2.l),a0
     b0e:	4eae fe80      	jsr -384(a6)
     b12:	2072 2800      	movea.l (0,a2,d2.l),a0
     b16:	4eae fe8c      	jsr -372(a6)
     b1a:	4a80           	tst.l d0
     b1c:	668a           	bne.s aa8 __ctrlc_break+0x8

00000b1e _RND_:
     b1e:	6092           	bra.s ab2 _ON_BREAK_CALL+0x8

00000b20 _SOUND_STOP:
     b20:	4e55 0000      	link.w a5,#0
     b24:	48e7 3e3a      	movem.l d2-d6/a2-a4/a6,-(sp)
     b28:	202d 0008      	move.l 8(a5),d0
     b2c:	4a40           	tst.w d0
     b2e:	6d30           	blt.s b60 __c_atexit+0x10
     b30:	0c40 0003      	cmpi.w #3,d0
     b34:	6e16           	bgt.s b4c _SOUND_STOP+0x2c
     b36:	4878 0006      	pea 6 ___mulsi4
     b3a:	3040           	movea.w d0,a0
     b3c:	2f08           	move.l a0,-(sp)
     b3e:	4eba fe68      	jsr 9a8 ___astr_concat+0x8(pc)
     b42:	4ced 5c7c ffdc 	movem.l -36(a5),d2-d6/a2-a4/a6
     b48:	4e5d           	unlk a5
     b4a:	4e75           	rts
     b4c:	707c           	moveq #124,d0
     b4e:	2b40           	.short 0x2b40

00000b50 __c_atexit:
     b50:	0008           	.short 0x0008
     b52:	4ced 5c7c ffdc 	movem.l -36(a5),d2-d6/a2-a4/a6
     b58:	4e5d           	unlk a5
     b5a:	4ef9 0000 011e 	jmp 11e _ERROR
			b5c: RELOC32	.text
     b60:	283c 0000 0080 	move.l #128,d4
			b62: RELOC32	.bss
     b66:	49f9 0000 0040 	lea 40 __aqb_read2,a4
			b68: RELOC32	.bss
     b6c:	47f9 0000 0070 	lea 70 _DEALLOCATE,a3
			b6e: RELOC32	.bss
     b72:	45f9 0000 0000 	lea 0 _start,a2
			b74: RELOC32	.bss
     b78:	7400           	moveq #0,d2
     b7a:	2c3c 0000 011e 	move.l #286,d6
			b7c: RELOC32	.text
     b80:	263c 0001 0001 	move.l #65537,d3
     b86:	2a3c 0000 10c0 	move.l #4288,d5
			b88: RELOC32	.text
     b8c:	2044           	movea.l d4,a0
     b8e:	2018           	move.l (a0)+,d0
     b90:	2808           	move.l a0,d4
     b92:	4a80           	tst.l d0
     b94:	675a           	beq.s bf0 __aio_writes4+0x52
     b96:	2c79           	.short 0x2c79
	...
			b98: RELOC32	.bss

00000b9a _PSET:
     b9a:	0000 7044      	ori.b #68,d0

00000b9e __aio_writes4:
     b9e:	2203           	move.l d3,d1
     ba0:	4eae fd54      	jsr -684(a6)
     ba4:	2480           	move.l d0,(a2)
     ba6:	6700 00aa      	beq.w c52 __aio_writes4+0xb4
     baa:	7044           	moveq #68,d0
     bac:	2203           	move.l d3,d1
     bae:	4eae fd54      	jsr -684(a6)
     bb2:	2540 0004      	move.l d0,4(a2)
     bb6:	6700 009a      	beq.w c52 __aio_writes4+0xb4
     bba:	7044           	moveq #68,d0
     bbc:	2203           	move.l d3,d1
     bbe:	4eae fd54      	jsr -684(a6)
     bc2:	2540 0008      	move.l d0,8(a2)
     bc6:	6700 008a      	beq.w c52 __aio_writes4+0xb4
     bca:	7044           	moveq #68,d0
     bcc:	2203           	move.l d3,d1
     bce:	4eae fd54      	jsr -684(a6)
     bd2:	2540 000c      	move.l d0,12(a2)
     bd6:	677a           	beq.s c52 __aio_writes4+0xb4
     bd8:	7044           	moveq #68,d0
     bda:	2203           	move.l d3,d1
     bdc:	4eae fd54      	jsr -684(a6)
     be0:	2880           	move.l d0,(a4)
     be2:	676e           	beq.s c52 __aio_writes4+0xb4
     be4:	2f02           	move.l d2,-(sp)
     be6:	2045           	movea.l d5,a0
     be8:	4e90           	jsr (a0)
     bea:	588f           	addq.l #4,sp
     bec:	4a40           	tst.w d0
     bee:	6746           	beq.s c36 __aio_writes4+0x98
     bf0:	2254           	movea.l (a4),a1
     bf2:	2353 000e      	move.l (a3),14(a1)
     bf6:	337c 0006 001c 	move.w #6,28(a1)
     bfc:	137c 0010 001e 	move.b #16,30(a1)
     c02:	42a9 0022      	clr.l 34(a1)
     c06:	42a9 0026      	clr.l 38(a1)
     c0a:	337c 00c8 002a 	move.w #200,42(a1)
     c10:	337c 0001 002c 	move.w #1,44(a1)
     c16:	337c 0001 002e 	move.w #1,46(a1)
     c1c:	2c79 0000 0000 	movea.l 0 _start,a6
			c1e: RELOC32	.bss
     c22:	4eae fe32      	jsr -462(a6)
     c26:	2053           	movea.l (a3),a0
     c28:	4eae fe80      	jsr -384(a6)
     c2c:	2053           	movea.l (a3),a0
     c2e:	4eae fe8c      	jsr -372(a6)
     c32:	4a80           	tst.l d0
     c34:	671c           	beq.s c52 __aio_writes4+0xb4
     c36:	5282           	addq.l #1,d2
     c38:	588c           	addq.l #4,a4
     c3a:	588b           	addq.l #4,a3
     c3c:	45ea 0010      	lea 16(a2),a2
     c40:	7004           	moveq #4,d0
     c42:	b082           	cmp.l d2,d0
     c44:	6600 ff46      	bne.w b8c __c_atexit+0x3c
     c48:	4ced 5c7c ffdc 	movem.l -36(a5),d2-d6/a2-a4/a6
     c4e:	4e5d           	unlk a5
     c50:	4e75           	rts
     c52:	4878 007c      	pea 7c __atimer_process_signals+0x4

00000c56 __aio_writes2:
     c56:	2046           	movea.l d6,a0
     c58:	4e90           	jsr (a0)
     c5a:	588f           	addq.l #4,sp
     c5c:	5282           	addq.l #1,d2
     c5e:	588c           	addq.l #4,a4
     c60:	588b           	addq.l #4,a3
     c62:	45ea 0010      	lea 16(a2),a2
     c66:	7004           	moveq #4,d0
     c68:	b082           	cmp.l d2,d0
     c6a:	6600 ff20      	bne.w b8c __c_atexit+0x3c
     c6e:	60d8           	bra.s c48 __aio_writes4+0xaa

00000c70 _SOUND_start:
     c70:	4e55 0000      	link.w a5,#0
     c74:	48e7 3e3a      	movem.l d2-d6/a2-a4/a6,-(sp)
     c78:	202d 0008      	move.l 8(a5),d0
     c7c:	4a40           	tst.w d0
     c7e:	6d30           	blt.s cb0 __cshutdown+0x2
     c80:	0c40 0003      	cmpi.w #3,d0
     c84:	6e16           	bgt.s c9c _POINT_+0x6
     c86:	4878 0007      	pea 7 ___mulsi4+0x1
     c8a:	3040           	movea.w d0,a0
     c8c:	2f08           	move.l a0,-(sp)
     c8e:	4eba fd18      	jsr 9a8 ___astr_concat+0x8(pc)
     c92:	4ced           	.short 0x4ced
     c94:	5c7c           	.short 0x5c7c

00000c96 _POINT_:
     c96:	ffdc           	.short 0xffdc
     c98:	4e5d           	unlk a5
     c9a:	4e75           	rts
     c9c:	707c           	moveq #124,d0
     c9e:	2b40 0008      	move.l d0,8(a5)
     ca2:	4ced 5c7c ffdc 	movem.l -36(a5),d2-d6/a2-a4/a6
     ca8:	4e5d           	unlk a5
     caa:	4ef9           	.short 0x4ef9
	...
			cac: RELOC32	.text

00000cae __cshutdown:
     cae:	011e           	btst d0,(a6)+
     cb0:	283c 0000 0080 	move.l #128,d4
			cb2: RELOC32	.bss
     cb6:	49f9 0000 0040 	lea 40 __aqb_read2,a4
			cb8: RELOC32	.bss
     cbc:	47f9 0000 0070 	lea 70 _DEALLOCATE,a3
			cbe: RELOC32	.bss
     cc2:	45f9 0000 0000 	lea 0 _start,a2
			cc4: RELOC32	.bss
     cc8:	7400           	moveq #0,d2
     cca:	2c3c 0000 011e 	move.l #286,d6
			ccc: RELOC32	.text
     cd0:	263c 0001 0001 	move.l #65537,d3
     cd6:	2a3c 0000 10c0 	move.l #4288,d5
			cd8: RELOC32	.text
     cdc:	2044           	movea.l d4,a0
     cde:	2018           	move.l (a0)+,d0
     ce0:	2808           	move.l a0,d4
     ce2:	4a80           	tst.l d0
     ce4:	675a           	beq.s d40 __aio_writes1+0x30
     ce6:	2c79 0000 0000 	movea.l 0 _start,a6
			ce8: RELOC32	.bss
     cec:	7044           	moveq #68,d0
     cee:	2203           	move.l d3,d1
     cf0:	4eae fd54      	jsr -684(a6)
     cf4:	2480           	move.l d0,(a2)
     cf6:	6700 00aa      	beq.w da2 __amath_init+0x8
     cfa:	7044           	moveq #68,d0
     cfc:	2203           	move.l d3,d1
     cfe:	4eae fd54      	jsr -684(a6)
     d02:	2540 0004      	move.l d0,4(a2)
     d06:	6700 009a      	beq.w da2 __amath_init+0x8
     d0a:	7044           	moveq #68,d0
     d0c:	2203           	move.l d3,d1
     d0e:	4eae           	.short 0x4eae

00000d10 __aio_writes1:
     d10:	fd54           	.short 0xfd54
     d12:	2540 0008      	move.l d0,8(a2)
     d16:	6700 008a      	beq.w da2 __amath_init+0x8
     d1a:	7044           	moveq #68,d0
     d1c:	2203           	move.l d3,d1
     d1e:	4eae fd54      	jsr -684(a6)
     d22:	2540 000c      	move.l d0,12(a2)
     d26:	677a           	beq.s da2 __amath_init+0x8
     d28:	7044           	moveq #68,d0
     d2a:	2203           	move.l d3,d1
     d2c:	4eae fd54      	jsr -684(a6)
     d30:	2880           	move.l d0,(a4)
     d32:	676e           	beq.s da2 __amath_init+0x8
     d34:	2f02           	move.l d2,-(sp)
     d36:	2045           	movea.l d5,a0
     d38:	4e90           	jsr (a0)
     d3a:	588f           	addq.l #4,sp
     d3c:	4a40           	tst.w d0
     d3e:	6746           	beq.s d86 _RANDOMIZE+0x16
     d40:	2254           	movea.l (a4),a1
     d42:	2353 000e      	move.l (a3),14(a1)
     d46:	337c 0007 001c 	move.w #7,28(a1)
     d4c:	137c           	.short 0x137c

00000d4e _CIRCLE:
     d4e:	0010 001e      	ori.b #30,(a0)
     d52:	42a9 0022      	clr.l 34(a1)
     d56:	42a9 0026      	clr.l 38(a1)
     d5a:	337c 00c8 002a 	move.w #200,42(a1)
     d60:	337c 0001 002c 	move.w #1,44(a1)
     d66:	337c 0001 002e 	move.w #1,46(a1)
     d6c:	2c79           	.short 0x2c79
	...
			d6e: RELOC32	.bss

00000d70 _RANDOMIZE:
     d70:	0000 4eae      	ori.b #-82,d0
     d74:	fe32           	.short 0xfe32
     d76:	2053           	movea.l (a3),a0
     d78:	4eae fe80      	jsr -384(a6)
     d7c:	2053           	movea.l (a3),a0
     d7e:	4eae fe8c      	jsr -372(a6)
     d82:	4a80           	tst.l d0
     d84:	671c           	beq.s da2 __amath_init+0x8
     d86:	5282           	addq.l #1,d2
     d88:	588c           	addq.l #4,a4
     d8a:	588b           	addq.l #4,a3
     d8c:	45ea 0010      	lea 16(a2),a2

00000d90 ____breakHandler:
     d90:	7004           	moveq #4,d0
     d92:	b082           	cmp.l d2,d0
     d94:	6600 ff46      	bne.w cdc __cshutdown+0x2e
     d98:	4ced           	Address 0x0000000000000d9a is out of bounds.
.short 0x4ced

00000d9a __amath_init:
     d9a:	5c7c           	.short 0x5c7c
     d9c:	ffdc           	.short 0xffdc
     d9e:	4e5d           	unlk a5
     da0:	4e75           	rts
     da2:	4878 007c      	pea 7c __atimer_process_signals+0x4
     da6:	2046           	movea.l d6,a0
     da8:	4e90           	jsr (a0)
     daa:	588f           	addq.l #4,sp
     dac:	5282           	addq.l #1,d2
     dae:	588c           	addq.l #4,a4
     db0:	588b           	addq.l #4,a3
     db2:	45ea 0010      	lea 16(a2),a2
     db6:	7004           	moveq #4,d0
     db8:	b082           	cmp.l d2,d0
     dba:	6600 ff20      	bne.w cdc __cshutdown+0x2e
     dbe:	60d8           	bra.s d98 ____breakHandler+0x8

00000dc0 __asound_init:
     dc0:	2f0e           	move.l a6,-(sp)
     dc2:	41f9 0000 0000 	lea 0 _start,a0
			dc4: RELOC32	.bss
     dc8:	7000           	moveq #0,d0
     dca:	20c0           	move.l d0,(a0)+

00000dcc __aio_writeu4:
     dcc:	43f9 0000 00a0 	lea a0 __aio_set_dos_cursor_visible,a1
			dce: RELOC32	.bss
     dd2:	7000           	moveq #0,d0
     dd4:	32c0           	move.w d0,(a1)+
     dd6:	4298           	clr.l (a0)+
     dd8:	4259           	clr.w (a1)+
     dda:	4298           	clr.l (a0)+
     ddc:	4259           	clr.w (a1)+
     dde:	4298           	clr.l (a0)+
     de0:	4259           	clr.w (a1)+
     de2:	4298           	clr.l (a0)+
     de4:	4259           	clr.w (a1)+
     de6:	4298           	clr.l (a0)+
     de8:	4259           	clr.w (a1)+
     dea:	4298           	clr.l (a0)+
     dec:	4259           	clr.w (a1)+
     dee:	4298           	clr.l (a0)+
     df0:	4259           	clr.w (a1)+
     df2:	4298           	clr.l (a0)+
     df4:	4259           	clr.w (a1)+
     df6:	4298           	clr.l (a0)+
     df8:	4259           	clr.w (a1)+
     dfa:	4298           	clr.l (a0)+
     dfc:	4259           	clr.w (a1)+
     dfe:	4298           	clr.l (a0)+
     e00:	4259           	clr.w (a1)+
     e02:	4298           	clr.l (a0)+
     e04:	4259           	clr.w (a1)+
     e06:	4298           	clr.l (a0)+
     e08:	4259           	clr.w (a1)+
     e0a:	4298           	clr.l (a0)+
     e0c:	4259           	clr.w (a1)+
     e0e:	4290           	clr.l (a0)
     e10:	4251           	clr.w (a1)
     e12:	41f9 0000 0090 	lea 90 ___divsi3+0x2,a0
			e14: RELOC32	.bss
     e18:	7000           	moveq #0,d0
     e1a:	20c0           	move.l d0,(a0)+
     e1c:	4298           	clr.l (a0)+
     e1e:	4298           	clr.l (a0)+
     e20:	4290           	clr.l (a0)
     e22:	41f9 0000 0080 	lea 80 __atimer_process_signals+0x8,a0
			e24: RELOC32	.bss
     e28:	70ff           	moveq #-1,d0
     e2a:	20c0           	move.l d0,(a0)+
     e2c:	20c0           	move.l d0,(a0)+
     e2e:	20c0           	move.l d0,(a0)+
     e30:	2080           	move.l d0,(a0)
     e32:	41f9 0000 0070 	lea 70 _DEALLOCATE,a0
			e34: RELOC32	.bss
     e38:	7000           	moveq #0,d0
     e3a:	20c0           	move.l d0,(a0)+
     e3c:	4298           	clr.l (a0)+
     e3e:	4298           	clr.l (a0)+
     e40:	4290           	clr.l (a0)
     e42:	41f9 0000 0060 	lea 60 __aqb_read2+0x20,a0
			e44: RELOC32	.bss
     e48:	7000           	moveq #0,d0
     e4a:	20c0           	move.l d0,(a0)+
     e4c:	4298           	clr.l (a0)+
     e4e:	4298           	clr.l (a0)+
     e50:	4290           	clr.l (a0)
     e52:	41f9 0000 0050 	lea 50 __aqb_read2+0x10,a0
			e54: RELOC32	.bss
     e58:	7000           	moveq #0,d0
     e5a:	20c0           	move.l d0,(a0)+
     e5c:	4298           	clr.l (a0)+
     e5e:	4298           	clr.l (a0)+
     e60:	4290           	clr.l (a0)
     e62:	41f9 0000 0040 	lea 40 __aqb_read2,a0
			e64: RELOC32	.bss
     e68:	7000           	moveq #0,d0
     e6a:	20c0           	move.l d0,(a0)+
     e6c:	4298           	clr.l (a0)+
     e6e:	4298           	clr.l (a0)+
     e70:	4290           	clr.l (a0)
     e72:	2079 0000 0004 	movea.l 4 _start+0x4,a0
			e74: RELOC32	.bss
     e78:	0828 0002 00cf 	btst #2,207(a0)
     e7e:	6620           	bne.s ea0 __aio_writeu2+0x1c
     e80:	23fc           	.short 0x23fc
     e82:	0036           	Address 0x0000000000000e84 is out of bounds.
.short 0x0036

00000e84 __aio_writeu2:
     e84:	9e99           	sub.l (a1)+,d7
     e86:	0000 0000      	ori.b #0,d0
			e86: RELOC32	.data
     e8a:	7000           	moveq #0,d0
     e8c:	2c79 0000 0008 	movea.l 8 ___mulsi4+0x2,a6
			e8e: RELOC32	.bss
     e92:	4eae ffdc      	jsr -36(a6)
     e96:	23c0 0000 00c8 	move.l d0,c8 ___pow_s4+0x6
			e98: RELOC32	.bss
     e9c:	2c5f           	movea.l (sp)+,a6
     e9e:	4e75           	rts
     ea0:	23fc 0036 1f0f 	move.l #3546895,0 _start
     ea6:	0000 0000 
			ea6: RELOC32	.data
     eaa:	7000           	moveq #0,d0
     eac:	2c79 0000 0008 	movea.l 8 ___mulsi4+0x2,a6
			eae: RELOC32	.bss
     eb2:	4eae ffdc      	jsr -36(a6)
     eb6:	23c0 0000 00c8 	move.l d0,c8 ___pow_s4+0x6
			eb8: RELOC32	.bss
     ebc:	2c5f           	movea.l (sp)+,a6
     ebe:	4e75           	rts

00000ec0 __asound_shutdown:
     ec0:	4e55 0000      	link.w a5,#0
     ec4:	48e7 3f3a      	movem.l d2-d7/a2-a4/a6,-(sp)
     ec8:	45f9 0000 00a0 	lea a0 __aio_set_dos_cursor_visible,a2
			eca: RELOC32	.bss
     ece:	2a3c 0000 0040 	move.l #64,d5
			ed0: RELOC32	.bss
     ed4:	49f9 0000 0000 	lea 0 _start,a4
			ed6: RELOC32	.bss
     eda:	283c 0000 0070 	move.l #112,d4
			edc: RELOC32	.bss
     ee0:	47f9 0000 0060 	lea 60 __aqb_read2+0x20,a3
			ee2: RELOC32	.bss
     ee6:	263c 0000 0080 	move.l #128,d3
			ee8: RELOC32	.bss
     eec:	7404           	moveq #4,d2
     eee:	2e3c 0000 011e 	move.l #286,d7
			ef0: RELOC32	.text
     ef4:	2c3c 0000 0572 	move.l #1394,d6
			ef6: RELOC32	.text
     efa:	4a52           	tst.w (a2)
     efc:	671a           	beq.s f18 __asound_shutdown+0x58
     efe:	2053           	movea.l (a3),a0
     f00:	2c79 0000 0000 	movea.l 0 _start,a6
			f02: RELOC32	.bss
     f06:	4eae fe80      	jsr -384(a6)
     f0a:	2053           	movea.l (a3),a0
     f0c:	4eae fe8c      	jsr -372(a6)
     f10:	4a80           	tst.l d0
     f12:	6700 0166      	beq.w 107a __aio_writef+0x7e
     f16:	4252           	clr.w (a2)
     f18:	4a6a 0002      	tst.w 2(a2)
     f1c:	671c           	beq.s f3a __asound_shutdown+0x7a
     f1e:	2053           	movea.l (a3),a0
     f20:	2c79 0000 0000 	movea.l 0 _start,a6
			f22: RELOC32	.bss
     f26:	4eae fe80      	jsr -384(a6)
     f2a:	2053           	movea.l (a3),a0
     f2c:	4eae fe8c      	jsr -372(a6)
     f30:	4a80           	tst.l d0
     f32:	6700 0154      	beq.w 1088 __aio_writef+0x8c
     f36:	426a 0002      	clr.w 2(a2)
     f3a:	4a6a 0004      	tst.w 4(a2)
     f3e:	671c           	beq.s f5c __aio_writeu1+0x1c

00000f40 __aio_writeu1:
     f40:	2053           	movea.l (a3),a0
     f42:	2c79 0000 0000 	movea.l 0 _start,a6
			f44: RELOC32	.bss
     f48:	4eae fe80      	jsr -384(a6)
     f4c:	2053           	movea.l (a3),a0
     f4e:	4eae fe8c      	jsr -372(a6)
     f52:	4a80           	tst.l d0
     f54:	6700 0140      	beq.w 1096 __aio_writef+0x9a
     f58:	426a 0004      	clr.w 4(a2)
     f5c:	4a6a 0006      	tst.w 6(a2)
     f60:	671c           	beq.s f7e __aio_writeu1+0x3e
     f62:	2053           	movea.l (a3),a0
     f64:	2c79 0000 0000 	movea.l 0 _start,a6
			f66: RELOC32	.bss
     f6a:	4eae fe80      	jsr -384(a6)
     f6e:	2053           	movea.l (a3),a0
     f70:	4eae fe8c      	jsr -372(a6)
     f74:	4a80           	tst.l d0
     f76:	6700 012c      	beq.w 10a4 __aio_writef+0xa8
     f7a:	426a 0006      	clr.w 6(a2)
     f7e:	2043           	movea.l d3,a0
     f80:	2018           	move.l (a0)+,d0
     f82:	2608           	move.l a0,d3

00000f84 __cstartup:
     f84:	4a80           	tst.l d0
     f86:	660c           	bne.s f94 __cstartup+0x10
     f88:	2254           	movea.l (a4),a1
     f8a:	2c79 0000 0000 	movea.l 0 _start,a6
			f8c: RELOC32	.bss
     f90:	4eae fe3e      	jsr -450(a6)
     f94:	2013           	move.l (a3),d0
     f96:	6708           	beq.s fa0 __cstartup+0x1c
     f98:	2f00           	move.l d0,-(sp)
     f9a:	2046           	movea.l d6,a0
     f9c:	4e90           	jsr (a0)
     f9e:	588f           	addq.l #4,sp
     fa0:	2044           	movea.l d4,a0
     fa2:	2018           	move.l (a0)+,d0
     fa4:	2808           	move.l a0,d4
     fa6:	4a80           	tst.l d0
     fa8:	6708           	beq.s fb2 __cstartup+0x2e
     faa:	2f00           	move.l d0,-(sp)
     fac:	2046           	movea.l d6,a0
     fae:	4e90           	jsr (a0)
     fb0:	588f           	addq.l #4,sp
     fb2:	2254           	movea.l (a4),a1
     fb4:	2009           	move.l a1,d0
     fb6:	670a           	beq.s fc2 __cstartup+0x3e
     fb8:	2c79 0000 0000 	movea.l 0 _start,a6
			fba: RELOC32	.bss
     fbe:	4eae fd4e      	jsr -690(a6)
     fc2:	226c 0004      	movea.l 4(a4),a1
     fc6:	2009           	move.l a1,d0
     fc8:	670a           	beq.s fd4 __cstartup+0x50
     fca:	2c79 0000 0000 	movea.l 0 _start,a6
			fcc: RELOC32	.bss
     fd0:	4eae fd4e      	jsr -690(a6)
     fd4:	226c 0008      	movea.l 8(a4),a1
     fd8:	2009           	move.l a1,d0
     fda:	670a           	beq.s fe6 __cstartup+0x62
     fdc:	2c79 0000 0000 	movea.l 0 _start,a6
			fde: RELOC32	.bss
     fe2:	4eae fd4e      	jsr -690(a6)
     fe6:	226c 000c      	movea.l 12(a4),a1
     fea:	2009           	move.l a1,d0
     fec:	670a           	beq.s ff8 __cstartup+0x74
     fee:	2c79 0000 0000 	movea.l 0 _start,a6
			ff0: RELOC32	.bss
     ff4:	4eae fd4e      	jsr -690(a6)
     ff8:	2045           	movea.l d5,a0
     ffa:	2258           	movea.l (a0)+,a1

00000ffc __aio_writef:
     ffc:	2a08           	move.l a0,d5
     ffe:	2009           	move.l a1,d0
    1000:	670a           	beq.s 100c __aio_writef+0x10
    1002:	2c79 0000 0000 	movea.l 0 _start,a6
			1004: RELOC32	.bss
    1008:	4eae fd4e      	jsr -690(a6)
    100c:	5382           	subq.l #1,d2
    100e:	508a           	addq.l #8,a2
    1010:	49ec 0010      	lea 16(a4),a4
    1014:	588b           	addq.l #4,a3
    1016:	6600 fee2      	bne.w efa __asound_shutdown+0x3a
    101a:	2479 0000 00c0 	movea.l c0 _SOUND+0x6,a2
			101c: RELOC32	.bss
    1020:	200a           	move.l a2,d0
    1022:	673a           	beq.s 105e __aio_writef+0x62
    1024:	2052           	movea.l (a2),a0
    1026:	242a 0004      	move.l 4(a2),d2
    102a:	2008           	move.l a0,d0
    102c:	6742           	beq.s 1070 __aio_writef+0x74
    102e:	2142 0004      	move.l d2,4(a0)
    1032:	2242           	movea.l d2,a1
    1034:	2009           	move.l a1,d0
    1036:	6730           	beq.s 1068 __aio_writef+0x6c
    1038:	2288           	move.l a0,(a1)
    103a:	226a 001e      	movea.l 30(a2),a1
    103e:	2009           	move.l a1,d0
    1040:	670a           	beq.s 104c __aio_writef+0x50
    1042:	2c79 0000 0000 	movea.l 0 _start,a6
			1044: RELOC32	.bss
    1048:	4eae fd4e      	jsr -690(a6)
    104c:	224a           	movea.l a2,a1
    104e:	2c79 0000 0000 	movea.l 0 _start,a6
			1050: RELOC32	.bss
    1054:	4eae fd4e      	jsr -690(a6)
    1058:	2442           	movea.l d2,a2
    105a:	4a82           	tst.l d2
    105c:	66c6           	bne.s 1024 __aio_writef+0x28
    105e:	4ced 5cfc ffd8 	movem.l -40(a5),d2-d7/a2-a4/a6
    1064:	4e5d           	unlk a5
    1066:	4e75           	rts
    1068:	23c8 0000 00c4 	move.l a0,c4 ___pow_s4+0x2
			106a: RELOC32	.bss
    106e:	60ca           	bra.s 103a __aio_writef+0x3e
    1070:	23c2 0000 00c0 	move.l d2,c0 _SOUND+0x6
			1072: RELOC32	.bss
    1076:	2242           	movea.l d2,a1
    1078:	60ba           	bra.s 1034 __aio_writef+0x38
    107a:	4878 007c      	pea 7c __atimer_process_signals+0x4
    107e:	2047           	movea.l d7,a0
    1080:	4e90           	jsr (a0)
    1082:	588f           	addq.l #4,sp
    1084:	6000 fe92      	bra.w f18 __asound_shutdown+0x58
    1088:	4878 007c      	pea 7c __atimer_process_signals+0x4
    108c:	2047           	movea.l d7,a0
    108e:	4e90           	jsr (a0)
    1090:	588f           	addq.l #4,sp
    1092:	6000 fea6      	bra.w f3a __asound_shutdown+0x7a
    1096:	4878 007c      	pea 7c __atimer_process_signals+0x4
    109a:	2047           	movea.l d7,a0
    109c:	4e90           	jsr (a0)
    109e:	588f           	addq.l #4,sp
    10a0:	6000 feba      	bra.w f5c __aio_writeu1+0x1c
    10a4:	4878 007c      	pea 7c __atimer_process_signals+0x4
    10a8:	2047           	movea.l d7,a0
    10aa:	4e90           	jsr (a0)
    10ac:	588f           	addq.l #4,sp
    10ae:	6000           	.short 0x6000

000010b0 __aio_writebool:
    10b0:	fece           	.short 0xfece
    10b2:	6175           	bsr.s 1129 __aio_writebool+0x79
    10b4:	6469           	bcc.s 111f __aio_writebool+0x6f
    10b6:	6f2e           	ble.s 10e6 __aio_writebool+0x36
    10b8:	6465           	bcc.s 111f __aio_writebool+0x6f
    10ba:	7669           	moveq #105,d3
    10bc:	6365           	bls.s 1123 __aio_writebool+0x73
    10be:	0000 4e55      	ori.b #85,d0
    10c2:	fffc           	.short 0xfffc
    10c4:	48e7 3c3a      	movem.l d2-d5/a2-a4/a6,-(sp)
    10c8:	242d 0008      	move.l 8(a5),d2
    10cc:	42a7           	clr.l -(sp)
    10ce:	42a7           	clr.l -(sp)
    10d0:	45f9 0000 04de 	lea 4de __autil_create_port,a2
			10d2: RELOC32	.text
    10d6:	4e92           	jsr (a2)
    10d8:	2602           	move.l d2,d3
    10da:	e58b           	lsl.l #2,d3
    10dc:	47f9 0000 0060 	lea 60 __aqb_read2+0x20,a3
			10de: RELOC32	.bss
    10e2:	2780 3800      	move.l d0,(0,a3,d3.l)
    10e6:	508f           	addq.l #8,sp
    10e8:	6700 00d8      	beq.w 11c2 __aio_writes+0x5a
    10ec:	42a7           	clr.l -(sp)
    10ee:	42a7           	clr.l -(sp)
    10f0:	4e92           	jsr (a2)
    10f2:	41f9 0000 0070 	lea 70 _DEALLOCATE,a0
			10f4: RELOC32	.bss
    10f8:	2180 3800      	move.l d0,(0,a0,d3.l)
    10fc:	508f           	addq.l #8,sp
    10fe:	6700 00c2      	beq.w 11c2 __aio_writes+0x5a
    1102:	49f9 0000 0090 	lea 90 ___divsi3+0x2,a4
			1104: RELOC32	.bss
    1108:	2834 3800      	move.l (0,a4,d3.l),d4
    110c:	6700 00ca      	beq.w 11d8 __aio_writes+0x70
    1110:	7001           	moveq #1,d0
    1112:	2800           	move.l d0,d4
    1114:	e5a8           	lsl.l d2,d0
    1116:	1b40 ffff      	move.b d0,-1(a5)
    111a:	e98a           	lsl.l #4,d2
    111c:	45f9 0000 0000 	lea 0 _start,a2
			111e: RELOC32	.bss
    1122:	2272 2800      	movea.l (0,a2,d2.l),a1
    1126:	2373 3800 000e 	move.l (0,a3,d3.l),14(a1)
    112c:	4229 0009      	clr.b 9(a1)
    1130:	337c 0020 001c 	move.w #32,28(a1)
    1136:	137c 0040 001e 	move.b #64,30(a1)
    113c:	4269 0020      	clr.w 32(a1)
    1140:	41ed ffff      	lea -1(a5),a0
    1144:	2348 0022      	move.l a0,34(a1)
    1148:	2344 0026      	move.l d4,38(a1)
    114c:	2c79 0000 0000 	movea.l 0 _start,a6
			114e: RELOC32	.bss

00001152 _deadKeyConvert:
    1152:	7200           	moveq #0,d1
    1154:	2001           	move.l d1,d0
    1156:	41fa ff5a      	lea 10b2 __aio_writebool+0x2(pc),a0
    115a:	4eae fe44      	jsr -444(a6)
    115e:	4880           	ext.w d0
    1160:	43f9 0000 0080 	lea 80 __atimer_process_signals+0x8,a1
			1162: RELOC32	.bss
    1166:	3040           	movea.w d0,a0

00001168 __aio_writes:
    1168:	2388 3800      	move.l a0,(0,a1,d3.l)
    116c:	2008           	move.l a0,d0
    116e:	6652           	bne.s 11c2 __aio_writes+0x5a
    1170:	47f2 2800      	lea (0,a2,d2.l),a3
    1174:	2a0b           	move.l a3,d5
    1176:	5885           	addq.l #4,d5
    1178:	2845           	movea.l d5,a4
    117a:	2072 2800      	movea.l (0,a2,d2.l),a0
    117e:	7044           	moveq #68,d0
    1180:	2254           	movea.l (a4),a1
    1182:	4eae fd90      	jsr -624(a6)
    1186:	2245           	movea.l d5,a1
    1188:	49eb 0008      	lea 8(a3),a4
    118c:	2051           	movea.l (a1),a0
    118e:	7044           	moveq #68,d0
    1190:	2254           	movea.l (a4),a1
    1192:	4eae fd90      	jsr -624(a6)
    1196:	2054           	movea.l (a4),a0
    1198:	7044           	moveq #68,d0
    119a:	226b 000c      	movea.l 12(a3),a1
    119e:	4eae fd90      	jsr -624(a6)
    11a2:	43f9 0000 0040 	lea 40 __aqb_read2,a1
			11a4: RELOC32	.bss
    11a8:	2072 2800      	movea.l (0,a2,d2.l),a0
    11ac:	7044           	moveq #68,d0
    11ae:	2271 3800      	movea.l (0,a1,d3.l),a1
    11b2:	4eae fd90      	jsr -624(a6)
    11b6:	3004           	move.w d4,d0
    11b8:	4ced 5c3c ffdc 	movem.l -36(a5),d2-d5/a2-a4/a6
    11be:	4e5d           	unlk a5
    11c0:	4e75           	rts
    11c2:	4878 007c      	pea 7c __atimer_process_signals+0x4
    11c6:	4eb9 0000 011e 	jsr 11e _ERROR
			11c8: RELOC32	.text
    11cc:	4240           	clr.w d0
    11ce:	4ced 5c3c ffdc 	movem.l -36(a5),d2-d5/a2-a4/a6
    11d4:	4e5d           	unlk a5
    11d6:	4e75           	rts
    11d8:	2c79 0000 0000 	movea.l 0 _start,a6
			11da: RELOC32	.bss
    11de:	7010           	moveq #16,d0
    11e0:	223c 0001 0002 	move.l #65538,d1
    11e6:	4eae fd54      	jsr -684(a6)
    11ea:	2440           	movea.l d0,a2
    11ec:	4a80           	tst.l d0
    11ee:	67d2           	beq.s 11c2 __aio_writes+0x5a
    11f0:	1484           	move.b d4,(a2)
    11f2:	157c 0031 0001 	move.b #49,1(a2)
    11f8:	157c 005a 0002 	move.b #90,2(a2)
    11fe:	157c 0075 0003 	move.b #117,3(a2)
    1204:	157c 007f 0004 	move.b #127,4(a2)
    120a:	157c 0075 0005 	move.b #117,5(a2)
    1210:	157c 005a 0006 	move.b #90,6(a2)
    1216:	157c 0031 0007 	move.b #49,7(a2)
    121c:	1544 0008      	move.b d4,8(a2)
    1220:	157c 00cf 0009 	move.b #-49,9(a2)
    1226:	157c 00a6 000a 	move.b #-90,10(a2)
    122c:	157c 008b 000b 	move.b #-117,11(a2)
    1232:	157c 0081 000c 	move.b #-127,12(a2)
    1238:	157c 008b 000d 	move.b #-117,13(a2)
    123e:	157c 00a6 000e 	move.b #-90,14(a2)
    1244:	157c 00cf 000f 	move.b #-49,15(a2)
    124a:	7022           	moveq #34,d0
    124c:	7201           	moveq #1,d1
    124e:	4841           	swap d1
    1250:	4eae fd54      	jsr -684(a6)
    1254:	2040           	movea.l d0,a0
    1256:	4a80           	tst.l d0
    1258:	6700 0082      	beq.w 12dc __astr_strchr+0x18
    125c:	2279 0000 00c4 	movea.l c4 ___pow_s4+0x2,a1
			125e: RELOC32	.bss
    1262:	2089           	move.l a1,(a0)
    1264:	2209           	move.l a1,d1
    1266:	673c           	beq.s 12a4 __aio_writes+0x13c
    1268:	2340 0004      	move.l d0,4(a1)
    126c:	23c0 0000 00c4 	move.l d0,c4 ___pow_s4+0x2
			126e: RELOC32	.bss
    1272:	214a 001e      	move.l a2,30(a0)
    1276:	42a8 0008      	clr.l 8(a0)
    127a:	7010           	moveq #16,d0
    127c:	2140 000c      	move.l d0,12(a0)
    1280:	2140 0010      	move.l d0,16(a0)
    1284:	217c 0000 1b80 	move.l #7040,20(a0)
    128a:	0014 
    128c:	317c 0001 0018 	move.w #1,24(a0)
    1292:	217c 4780 0000 	move.l #1199570944,26(a0)
    1298:	001a 
    129a:	2008           	move.l a0,d0
    129c:	2980 3800      	move.l d0,(0,a4,d3.l)
    12a0:	6000 fe6e      	bra.w 1110 __aio_writebool+0x60
    12a4:	23c0           	.short 0x23c0
	...
			12a6: RELOC32	.bss

000012a8 __astr_ftoa:
    12a8:	00c4           	.short 0x00c4
    12aa:	23c0 0000 00c0 	move.l d0,c0 _SOUND+0x6
			12ac: RELOC32	.bss
    12b0:	214a 001e      	move.l a2,30(a0)
    12b4:	42a8 0008      	clr.l 8(a0)
    12b8:	7010           	moveq #16,d0
    12ba:	2140 000c      	move.l d0,12(a0)
    12be:	2140 0010      	move.l d0,16(a0)
    12c2:	217c           	.short 0x217c

000012c4 __astr_strchr:
    12c4:	0000 1b80      	ori.b #-128,d0
    12c8:	0014 317c      	ori.b #124,(a4)
    12cc:	0001 0018      	ori.b #24,d1
    12d0:	217c 4780 0000 	move.l #1199570944,26(a0)
    12d6:	001a 
    12d8:	2008           	move.l a0,d0
    12da:	60c0           	bra.s 129c __aio_writes+0x134
    12dc:	4878 007c      	pea 7c __atimer_process_signals+0x4
    12e0:	4eb9 0000 011e 	jsr 11e _ERROR
			12e2: RELOC32	.text
    12e6:	588f           	addq.l #4,sp

000012e8 __s1toa_:
    12e8:	2984 3800      	move.l d4,(0,a4,d3.l)
    12ec:	6000 fe22      	bra.w 1110 __aio_writebool+0x60

Disassembly of section .text:

00000000 _start:
   0:	4e55 0000      	link.w a5,#0
   4:	48e7           	Address 0x0000000000000006 is out of bounds.
.short 0x48e7

00000006 ___mulsi4:
   6:	3022           	move.w -(a2),d0
   8:	202d 0008      	move.l 8(a5),d0

0000000c _SCREEN:
   c:	41f9           	.short 0x41f9
	...
			e: RELOC32	.bss

00000010 __aqb_read1:
  10:	0000 246d      	ori.b #109,d0
  14:	000c           	.short 0x000c
  16:	2080           	move.l d0,(a0)

00000018 ___DARRAY_T_REDIM:
  18:	6638           	bne.s 52 __aqb_read2+0x12
  1a:	23c0           	.short 0x23c0

0000001c __atimer_shutdown:
  1c:	0000 0004      	ori.b #4,d0
			1c: RELOC32	.bss

00000020 __debug_putc:
  20:	7408           	moveq #8,d2
  22:	42a7           	clr.l -(sp)
  24:	2f02           	move.l d2,-(sp)
  26:	4eb9           	.short 0x4eb9
	...
			28: RELOC32	.text

0000002a ___umodsi3:
  2a:	0000 2600      	ori.b #0,d0
  2e:	508f           	addq.l #8,sp

00000030 ___umodsi4:
  30:	674e           	beq.s 80 __atimer_process_signals+0x8
  32:	2c79           	.short 0x2c79
	...
			34: RELOC32	.bss

00000036 __aqb_clear:
  36:	0000 41f9      	ori.b #-7,d0
	...
			3a: RELOC32	.bss

0000003c ___udivsi4:
	...

0000003e _foo:
  3e:	2240           	movea.l d0,a1

00000040 __aqb_read2:
  40:	2002           	move.l d2,d0
  42:	4eae fd90      	jsr -624(a6)
  46:	2003           	move.l d3,d0
  48:	4ced 440c fff0 	movem.l -16(a5),d2-d3/a2/a6
  4e:	4e5d           	unlk a5
  50:	4e75           	rts
  52:	4df9 0000 0004 	lea 4 _start+0x4,a6
			54: RELOC32	.bss
  58:	2cd2           	move.l (a2),(a6)+
  5a:	222a 0004      	move.l 4(a2),d1
  5e:	2cc1           	move.l d1,(a6)+
  60:	43ea 000c      	lea 12(a2),a1
  64:	2caa 0008      	move.l 8(a2),(a6)
  68:	41e8 0010      	lea 16(a0),a0
  6c:	7402           	moveq #2,d2

0000006e __aqb_read4:
  6e:	4a81           	tst.l d1

00000070 _DEALLOCATE:
  70:	6724           	beq.s 96 ___divsi4+0x2

00000072 __MEMSET:
  72:	2219           	move.l (a1)+,d1
  74:	20c1           	move.l d1,(a0)+
  76:	20d9           	move.l (a1)+,(a0)+

00000078 __atimer_process_signals:
  78:	5282           	addq.l #1,d2
  7a:	7041           	moveq #65,d0
  7c:	b082           	cmp.l d2,d0
  7e:	66ee           	bne.s 6e __aqb_read4
  80:	4878           	.short 0x4878

00000082 ___modsi3:
  82:	0007 4eb9      	ori.b #-71,d7

00000086 __autil_exit:
	...
			86: RELOC32	.text

00000088 ___modsi4:
  88:	011e           	btst d0,(a6)+
  8a:	7000           	moveq #0,d0
  8c:	4ced           	Address 0x000000000000008e is out of bounds.
.short 0x4ced

0000008e ___divsi3:
  8e:	440c           	.short 0x440c
  90:	fff0           	.short 0xfff0
  92:	4e5d           	unlk a5

00000094 ___divsi4:
  94:	4e75           	rts
  96:	e78a           	lsl.l #3,d2
  98:	6088           	bra.s 22 __debug_putc+0x2

0000009a _TAGITEMS_:
  9a:	4e55           	Address 0x000000000000009c is out of bounds.
.short 0x4e55

0000009c __aqb_assert:
  9c:	0000 486d      	ori.b #109,d0

000000a0 __aio_set_dos_cursor_visible:
  a0:	000c           	.short 0x000c
  a2:	2f2d 0008      	move.l 8(a5),-(sp)
  a6:	4eba ff58      	jsr 0 _start(pc)
  aa:	4e5d           	unlk a5
  ac:	4e75           	rts

000000ae _TAGS_:
  ae:	4e55 0000      	link.w a5,#0
  b2:	2f02           	move.l d2,-(sp)
  b4:	242d 0008      	move.l 8(a5),d2
  b8:	661e           	bne.s d8 __debug_puts+0xc

000000ba _SOUND:
  ba:	2f02           	move.l d2,-(sp)
  bc:	4878 0004      	pea 4 _start+0x4
  c0:	4eb9           	.short 0x4eb9

000000c2 ___pow_s4:
  c2:	0000 0000      	ori.b #0,d0
			c2: RELOC32	.text
  c6:	508f           	addq.l #8,sp
  c8:	4a80           	tst.l d0
  ca:	6742           	beq.s 10e __aio_putnl+0x4

000000cc __debug_puts:
  cc:	2040           	movea.l d0,a0
  ce:	2082           	move.l d2,(a0)
  d0:	242d fffc      	move.l -4(a5),d2
  d4:	4e5d           	unlk a5
  d6:	4e75           	rts
  d8:	41ed 000c      	lea 12(a5),a0
  dc:	7001           	moveq #1,d0
  de:	5280           	addq.l #1,d0
  e0:	2218           	move.l (a0)+,d1
  e2:	66fa           	bne.s de __debug_puts+0x12
  e4:	2f01           	move.l d1,-(sp)
  e6:	e588           	lsl.l #2,d0
  e8:	2f00           	move.l d0,-(sp)

000000ea _ON_ERROR_CALL:
  ea:	4eb9 0000 0000 	jsr 0 _start
			ec: RELOC32	.text
  f0:	508f           	addq.l #8,sp
  f2:	4a80           	tst.l d0
  f4:	6718           	beq.s 10e __aio_putnl+0x4
  f6:	327c 0004      	movea.w #4,a1
  fa:	2040           	movea.l d0,a0
  fc:	d3c0           	adda.l d0,a1
  fe:	2082           	move.l d2,(a0)
 100:	41ed 000c      	lea 12(a5),a0

00000104 ___pow_u4:
 104:	22d8           	move.l (a0)+,(a1)+
 106:	67c8           	beq.s d0 __debug_puts+0x4
 108:	22d8           	move.l (a0)+,(a1)+

0000010a __aio_putnl:
 10a:	66f8           	bne.s 104 ___pow_u4
 10c:	60c2           	bra.s d0 __debug_puts+0x4
 10e:	4878 0007      	pea 7 ___mulsi4+0x1
 112:	4eb9 0000 011e 	jsr 11e _ERROR
			114: RELOC32	.text
 118:	7000           	moveq #0,d0
 11a:	242d fffc      	move.l -4(a5),d2

0000011e _ERROR:
 11e:	4e5d           	unlk a5
 120:	4e75           	rts
	...

Disassembly of section .text:

00000000 _start:
       0:	4151           	.short 0x4151
       2:	4220           	clr.b -(a0)
       4:	4354           	.short 0x4354

00000006 ___mulsi4:
       6:	524c           	addq.w #1,a4
       8:	2d43 2069      	move.l d3,8297(a6)

0000000c _SCREEN:
       c:	6e70           	bgt.s 7e __atimer_process_signals+0x6
       e:	7574           	.short 0x7574

00000010 __aqb_read1:
      10:	2065           	movea.l -(a5),a0
      12:	7665           	moveq #101,d3
      14:	6e74           	bgt.s 8a ___modsi4+0x2
      16:	2068           	.short 0x2068

00000018 ___DARRAY_T_REDIM:
      18:	616e           	bsr.s 88 ___modsi4
      1a:	646c           	bcc.s 88 ___modsi4

0000001c __atimer_shutdown:
      1c:	6572           	bcs.s 90 ___divsi3+0x2
	...

00000020 __debug_putc:
      20:	4e55 fffc      	link.w a5,#-4
      24:	48e7 3002      	movem.l d2-d3/a6,-(sp)
      28:	202d           	.short 0x202d

0000002a ___umodsi3:
      2a:	0008           	.short 0x0008
      2c:	1b40 fffe      	move.b d0,-2(a5)

00000030 ___umodsi4:
      30:	0c79           	.short 0x0c79
      32:	0003 0000      	ori.b #0,d3
			34: RELOC32	.bss

00000036 __aqb_clear:
      36:	0018 6720      	ori.b #32,(a0)+
      3a:	2239           	.short 0x2239

0000003c ___udivsi4:
	...
			3c: RELOC32	.bss

0000003e _foo:
      3e:	0034           	Address 0x0000000000000040 is out of bounds.
.short 0x0034

00000040 __aqb_read2:
      40:	6710           	beq.s 52 __aqb_read2+0x12
      42:	240d           	move.l a5,d2
      44:	2c79 0000 0004 	movea.l 4 _start+0x4,a6
			46: RELOC32	.bss
      4a:	5582           	subq.l #2,d2
      4c:	7601           	moveq #1,d3
      4e:	4eae ffd0      	jsr -48(a6)
      52:	4cdf 400c      	movem.l (sp)+,d2-d3/a6
      56:	4e5d           	unlk a5
      58:	4e75           	rts
      5a:	2239 0000 0060 	move.l 60 __aqb_read2+0x20,d1
			5c: RELOC32	.bss
      60:	67d8           	beq.s 3a __aqb_clear+0x4
      62:	41f9 0000 0038 	lea 38 __aqb_clear+0x2,a0
			64: RELOC32	.bss
      68:	7400           	moveq #0,d2
      6a:	20c2           	move.l d2,(a0)+
      6c:	4298           	clr.l (a0)+

0000006e __aqb_read4:
      6e:	4228           	.short 0x4228

00000070 _DEALLOCATE:
      70:	0001           	Address 0x0000000000000072 is out of bounds.
.short 0x0001

00000072 __MEMSET:
      72:	42a8 0002      	clr.l 2(a0)
      76:	10fc           	.short 0x10fc

00000078 __atimer_process_signals:
      78:	0005 317c      	ori.b #124,d5
      7c:	0026 0009      	ori.b #9,-(a6)
      80:	2141           	.short 0x2141

00000082 ___modsi3:
      82:	0005 217c      	ori.b #124,d5

00000086 __autil_exit:
      86:	deca           	adda.w a2,sp

00000088 ___modsi4:
      88:	11ed 000f 317c 	move.b 15(a5),317c _BITMAP_+0x42

0000008e ___divsi3:
      8e:	0018 0013      	ori.b #19,(a0)+
      92:	1140           	.short 0x1140

00000094 ___divsi4:
      94:	0019 2079      	ori.b #121,(a1)+
	...
			98: RELOC32	.data

0000009a _TAGITEMS_:
      9a:	0004           	Address 0x000000000000009c is out of bounds.
.short 0x0004

0000009c __aqb_assert:
      9c:	2c79           	.short 0x2c79
	...
			9e: RELOC32	.bss

000000a0 __aio_set_dos_cursor_visible:
      a0:	0000 43f9      	ori.b #-7,d0
      a4:	0000 0038      	ori.b #56,d0
			a4: RELOC32	.bss
      a8:	2068 000e      	movea.l 14(a0),a0
      ac:	4eae           	.short 0x4eae

000000ae _TAGS_:
      ae:	fe92           	.short 0xfe92
      b0:	2079 0000 0060 	movea.l 60 __aqb_read2+0x20,a0
			b2: RELOC32	.bss
      b6:	4eae fe80      	jsr -384(a6)

000000ba _SOUND:
      ba:	2079 0000 0060 	movea.l 60 __aqb_read2+0x20,a0
			bc: RELOC32	.bss
      c0:	4eae           	.short 0x4eae

000000c2 ___pow_s4:
      c2:	fe8c           	.short 0xfe8c
      c4:	4cdf 400c      	movem.l (sp)+,d2-d3/a6
      c8:	4e5d           	unlk a5
      ca:	4e75           	rts

000000cc __debug_puts:
      cc:	4e55 0000      	link.w a5,#0
      d0:	48e7 3002      	movem.l d2-d3/a6,-(sp)
      d4:	0c79 0003 0000 	cmpi.w #3,18 ___DARRAY_T_REDIM
      da:	0018 
			d8: RELOC32	.bss
      dc:	6738           	beq.s 116 __aio_putnl+0xc
      de:	2439 0000 0034 	move.l 34 ___umodsi4+0x4,d2
			e0: RELOC32	.bss
      e4:	660a           	bne.s f0 _ON_ERROR_CALL+0x6
      e6:	4ced           	.short 0x4ced
      e8:	400c           	.short 0x400c

000000ea _ON_ERROR_CALL:
      ea:	fff4           	.short 0xfff4
      ec:	4e5d           	unlk a5
      ee:	4e75           	rts
      f0:	2f2d 0008      	move.l 8(a5),-(sp)
      f4:	4eb9 0000 03f0 	jsr 3f0 _LEN_
			f6: RELOC32	.text
      fa:	2c79 0000 0004 	movea.l 4 _start+0x4,a6
			fc: RELOC32	.bss
     100:	2202           	move.l d2,d1
     102:	242d           	.short 0x242d

00000104 ___pow_u4:
     104:	0008           	.short 0x0008
     106:	2600           	move.l d0,d3
     108:	4eae           	.short 0x4eae

0000010a __aio_putnl:
     10a:	ffd0           	.short 0xffd0
     10c:	4ced 400c fff4 	movem.l -12(a5),d2-d3/a6
     112:	4e5d           	unlk a5
     114:	4e75           	rts
     116:	2039 0000 0060 	move.l 60 __aqb_read2+0x20,d0
			118: RELOC32	.bss
     11c:	67c0           	beq.s de __debug_puts+0x12

0000011e _ERROR:
     11e:	41f9 0000 0038 	lea 38 __aqb_clear+0x2,a0
			120: RELOC32	.bss
     124:	7200           	moveq #0,d1
     126:	20c1           	move.l d1,(a0)+
     128:	4298           	clr.l (a0)+
     12a:	4228 0001      	clr.b 1(a0)
     12e:	42a8 0002      	clr.l 2(a0)
     132:	10fc 0005      	move.b #5,(a0)+
     136:	317c           	.short 0x317c

00000138 _SCREEN_CLOSE:
     138:	0026 0009      	ori.b #9,-(a6)
     13c:	2140           	.short 0x2140

0000013e ___aqb_init:
     13e:	0005 217c      	ori.b #124,d5

00000142 __astr_itoa:
     142:	deca           	adda.w a2,sp
     144:	11ed           	.short 0x11ed

00000146 ___pow_s2:
     146:	000f           	.short 0x000f
     148:	317c 0019 0013 	move.w #25,19(a0)
     14e:	216d 0008 0019 	move.l 8(a5),25(a0)
     154:	2079 0000 0004 	movea.l 4 _start+0x4,a0
			156: RELOC32	.data
     15a:	2c79 0000 0000 	movea.l 0 _start,a6
			15c: RELOC32	.bss
     160:	43f9 0000 0038 	lea 38 __aqb_clear+0x2,a1
			162: RELOC32	.bss
     166:	2068 000e      	movea.l 14(a0),a0
     16a:	4eae fe92      	jsr -366(a6)
     16e:	2079           	.short 0x2079
	...
			170: RELOC32	.bss

00000172 ___pow_u2:
     172:	0060 4eae      	ori.w #20142,-(a0)
     176:	fe80           	.short 0xfe80
     178:	2079 0000 0060 	movea.l 60 __aqb_read2+0x20,a0
			17a: RELOC32	.bss
     17e:	4eae fe8c      	jsr -372(a6)
     182:	4ced 400c fff4 	movem.l -12(a5),d2-d3/a6
     188:	4e5d           	unlk a5
     18a:	4e75           	rts

0000018c __debug_puts1:
     18c:	4e55 ffd8      	link.w a5,#-40
     190:	48e7 3022      	movem.l d2-d3/a2/a6,-(sp)
     194:	4878 000a      	pea a ___mulsi4+0x4

00000198 _WINDOW:
     198:	45ed ffd8      	lea -40(a5),a2
     19c:	2f0a           	move.l a2,-(sp)

0000019e ___pow_s1:
     19e:	102d 000b      	move.b 11(a5),d0
     1a2:	4880           	ext.w d0
     1a4:	3040           	movea.w d0,a0
     1a6:	2f08           	move.l a0,-(sp)
     1a8:	4eb9 0000 0142 	jsr 142 __astr_itoa
			1aa: RELOC32	.text
     1ae:	4fef 000c      	lea 12(sp),sp
     1b2:	0c79 0003 0000 	cmpi.w #3,18 ___DARRAY_T_REDIM
     1b8:	0018 
			1b6: RELOC32	.bss

000001ba _RESUME_NEXT:
     1ba:	6734           	beq.s 1f0 ___DARRAY_T_LBOUND_+0x8

000001bc __aio_puttab:
     1bc:	2439 0000 0034 	move.l 34 ___umodsi4+0x4,d2
			1be: RELOC32	.bss
     1c2:	660a           	bne.s 1ce ___mul_s1+0x4

000001c4 _TIMER_:
     1c4:	4ced 440c ffc8 	movem.l -56(a5),d2-d3/a2/a6

000001ca ___mul_s1:
     1ca:	4e5d           	unlk a5
     1cc:	4e75           	rts
     1ce:	2f0a           	move.l a2,-(sp)
     1d0:	4eb9 0000 03f0 	jsr 3f0 _LEN_
			1d2: RELOC32	.text
     1d6:	2c79           	.short 0x2c79
	...
			1d8: RELOC32	.bss

000001da ___div_s1:
     1da:	0004 2202      	ori.b #2,d4
     1de:	240a           	move.l a2,d2
     1e0:	2600           	move.l d0,d3
     1e2:	4eae ffd0      	jsr -48(a6)
     1e6:	4ced           	Address 0x00000000000001e8 is out of bounds.
.short 0x4ced

000001e8 ___DARRAY_T_LBOUND_:
     1e8:	440c           	.short 0x440c
     1ea:	ffc8           	.short 0xffc8
     1ec:	4e5d           	unlk a5
     1ee:	4e75           	rts
     1f0:	2039 0000 0060 	move.l 60 __aqb_read2+0x20,d0
			1f2: RELOC32	.bss
     1f6:	67c4           	beq.s 1bc __aio_puttab
     1f8:	41f9           	.short 0x41f9

000001fa ___mod_s1:
     1fa:	0000 0038      	ori.b #56,d0
			1fa: RELOC32	.bss
     1fe:	7200           	moveq #0,d1
     200:	20c1           	move.l d1,(a0)+
     202:	4298           	clr.l (a0)+
     204:	4228 0001      	clr.b 1(a0)
     208:	42a8 0002      	clr.l 2(a0)
     20c:	10fc 0005      	move.b #5,(a0)+
     210:	317c 0026 0009 	move.w #38,9(a0)
     216:	2140           	.short 0x2140

00000218 _DATE_:
     218:	0005           	Address 0x000000000000021a is out of bounds.
.short 0x0005

0000021a ___pow_u1:
     21a:	217c deca 11ed 	move.l #-557182483,15(a0)
     220:	000f 
     222:	317c 0019 0013 	move.w #25,19(a0)
     228:	214a           	.short 0x214a

0000022a ___DARRAY_T_UBOUND_:
     22a:	0019 45f9      	ori.b #-7,(a1)+
     22e:	0000 0000      	ori.b #0,d0
			22e: RELOC32	.bss
     232:	2079 0000 0004 	movea.l 4 _start+0x4,a0
			234: RELOC32	.data
     238:	2c52           	movea.l (a2),a6
     23a:	43f9 0000 0038 	lea 38 __aqb_clear+0x2,a1
			23c: RELOC32	.bss
     240:	2068 000e      	movea.l 14(a0),a0
     244:	4eae           	.short 0x4eae

00000246 ___mul_u1:
     246:	fe92           	.short 0xfe92
     248:	2079           	.short 0x2079

0000024a __astr_utoa_ext:
     24a:	0000 0060      	ori.b #96,d0
			24a: RELOC32	.bss
     24e:	2c52           	movea.l (a2),a6
     250:	4eae fe80      	jsr -384(a6)
     254:	2079           	.short 0x2079

00000256 ___div_u1:
     256:	0000 0060      	ori.b #96,d0
			256: RELOC32	.bss
     25a:	2c52           	movea.l (a2),a6
     25c:	4eae fe8c      	jsr -372(a6)
     260:	4ced 440c ffc8 	movem.l -56(a5),d2-d3/a2/a6
     266:	4e5d           	unlk a5
     268:	4e75           	rts

0000026a __debug_puts2:
     26a:	4e55           	Address 0x000000000000026c is out of bounds.
.short 0x4e55

0000026c __aio_puts4:
     26c:	ffd8           	.short 0xffd8
     26e:	48e7 3022      	movem.l d2-d3/a2/a6,-(sp)

00000272 ___mod_u1:
     272:	4878           	.short 0x4878

00000274 ___DARRAY_T_COPY:
     274:	000a           	.short 0x000a
     276:	45ed ffd8      	lea -40(a5),a2
     27a:	2f0a           	move.l a2,-(sp)
     27c:	306d 000a      	movea.w 10(a5),a0
     280:	2f08           	move.l a0,-(sp)
     282:	4eb9 0000 0142 	jsr 142 __astr_itoa
			284: RELOC32	.text
     288:	4fef 000c      	lea 12(sp),sp
     28c:	0c79           	.short 0x0c79
     28e:	0003 0000      	ori.b #0,d3
			290: RELOC32	.bss

00000292 ___aqb_mod:
     292:	0018 6734      	ori.b #52,(a0)+
     296:	2439 0000 0034 	move.l 34 ___umodsi4+0x4,d2
			298: RELOC32	.bss
     29c:	660a           	bne.s 2a8 ___aqb_mod+0x16
     29e:	4ced 440c ffc8 	movem.l -56(a5),d2-d3/a2/a6
     2a4:	4e5d           	unlk a5
     2a6:	4e75           	rts
     2a8:	2f0a           	move.l a2,-(sp)
     2aa:	4eb9 0000 03f0 	jsr 3f0 _LEN_
			2ac: RELOC32	.text
     2b0:	2c79 0000 0004 	movea.l 4 _start+0x4,a6
			2b2: RELOC32	.bss
     2b6:	2202           	move.l d2,d1
     2b8:	240a           	move.l a2,d2
     2ba:	2600           	move.l d0,d3
     2bc:	4eae           	.short 0x4eae

000002be ___DARRAY_T_ERASE:
     2be:	ffd0           	.short 0xffd0
     2c0:	4ced 440c ffc8 	movem.l -56(a5),d2-d3/a2/a6
     2c6:	4e5d           	unlk a5
     2c8:	4e75           	rts
     2ca:	2039 0000 0060 	move.l 60 __aqb_read2+0x20,d0
			2cc: RELOC32	.bss
     2d0:	67c4           	beq.s 296 ___aqb_mod+0x4
     2d2:	41f9 0000 0038 	lea 38 __aqb_clear+0x2,a0
			2d4: RELOC32	.bss
     2d8:	7200           	moveq #0,d1
     2da:	20c1           	move.l d1,(a0)+
     2dc:	4298           	clr.l (a0)+
     2de:	4228 0001      	clr.b 1(a0)
     2e2:	42a8 0002      	clr.l 2(a0)
     2e6:	10fc           	.short 0x10fc

000002e8 ___DARRAY_T_CLEAR:
     2e8:	0005 317c      	ori.b #124,d5
     2ec:	0026 0009      	ori.b #9,-(a6)
     2f0:	2140 0005      	move.l d0,5(a0)
     2f4:	217c deca 11ed 	move.l #-557182483,15(a0)
     2fa:	000f 
     2fc:	317c 0019 0013 	move.w #25,19(a0)
     302:	214a 0019      	move.l a2,25(a0)
     306:	45f9 0000 0000 	lea 0 _start,a2
			308: RELOC32	.bss
     30c:	2079 0000 0004 	movea.l 4 _start+0x4,a0
			30e: RELOC32	.data
     312:	2c52           	movea.l (a2),a6
     314:	43f9 0000 0038 	lea 38 __aqb_clear+0x2,a1
			316: RELOC32	.bss
     31a:	2068 000e      	movea.l 14(a0),a0
     31e:	4eae fe92      	jsr -366(a6)

00000322 __aio_puts2:
     322:	2079 0000 0060 	movea.l 60 __aqb_read2+0x20,a0
			324: RELOC32	.bss
     328:	2c52           	movea.l (a2),a6
     32a:	4eae fe80      	jsr -384(a6)
     32e:	2079           	.short 0x2079

00000330 __astr_utoa:
     330:	0000 0060      	ori.b #96,d0
			330: RELOC32	.bss
     334:	2c52           	movea.l (a2),a6
     336:	4eae fe8c      	jsr -372(a6)
     33a:	4ced 440c ffc8 	movem.l -56(a5),d2-d3/a2/a6

00000340 _ON_TIMER_CALL:
     340:	4e5d           	unlk a5
     342:	4e75           	rts

00000344 __debug_puts4:
     344:	4e55 ffd8      	link.w a5,#-40
     348:	48e7 3022      	movem.l d2-d3/a2/a6,-(sp)
     34c:	4878 000a      	pea a ___mulsi4+0x4
     350:	45ed ffd8      	lea -40(a5),a2
     354:	2f0a           	move.l a2,-(sp)
     356:	2f2d 0008      	move.l 8(a5),-(sp)
     35a:	4eb9           	.short 0x4eb9

0000035c _fix_:
     35c:	0000 0142      	ori.b #66,d0
			35c: RELOC32	.text
     360:	4fef 000c      	lea 12(sp),sp

00000364 _SLEEP_FOR:
     364:	0c79 0003 0000 	cmpi.w #3,18 ___DARRAY_T_REDIM
     36a:	0018 
			368: RELOC32	.bss
     36c:	6734           	beq.s 3a2 _cint_+0xe
     36e:	2439 0000 0034 	move.l 34 ___umodsi4+0x4,d2
			370: RELOC32	.bss
     374:	660a           	bne.s 380 _int_+0xa

00000376 _int_:
     376:	4ced 440c ffc8 	movem.l -56(a5),d2-d3/a2/a6
     37c:	4e5d           	unlk a5
     37e:	4e75           	rts
     380:	2f0a           	move.l a2,-(sp)
     382:	4eb9 0000 03f0 	jsr 3f0 _LEN_
			384: RELOC32	.text
     388:	2c79 0000 0004 	movea.l 4 _start+0x4,a6
			38a: RELOC32	.bss
     38e:	2202           	move.l d2,d1
     390:	240a           	move.l a2,d2
     392:	2600           	move.l d0,d3

00000394 _cint_:
     394:	4eae ffd0      	jsr -48(a6)
     398:	4ced 440c ffc8 	movem.l -56(a5),d2-d3/a2/a6
     39e:	4e5d           	unlk a5
     3a0:	4e75           	rts
     3a2:	2039           	.short 0x2039

000003a4 _SYSTEM:
     3a4:	0000 0060      	ori.b #96,d0
			3a4: RELOC32	.bss
     3a8:	67c4           	beq.s 36e _SLEEP_FOR+0xa
     3aa:	41f9 0000 0038 	lea 38 __aqb_clear+0x2,a0
			3ac: RELOC32	.bss
     3b0:	7200           	moveq #0,d1
     3b2:	20c1           	move.l d1,(a0)+
     3b4:	4298           	clr.l (a0)+

000003b6 _FRE_:
     3b6:	4228 0001      	clr.b 1(a0)
     3ba:	42a8 0002      	clr.l 2(a0)
     3be:	10fc 0005      	move.b #5,(a0)+
     3c2:	317c 0026 0009 	move.w #38,9(a0)
     3c8:	2140 0005      	move.l d0,5(a0)
     3cc:	217c deca 11ed 	move.l #-557182483,15(a0)
     3d2:	000f 
     3d4:	317c 0019 0013 	move.w #25,19(a0)

000003da __aio_puts1:
     3da:	214a 0019      	move.l a2,25(a0)
     3de:	45f9 0000 0000 	lea 0 _start,a2
			3e0: RELOC32	.bss
     3e4:	2079 0000 0004 	movea.l 4 _start+0x4,a0
			3e6: RELOC32	.data
     3ea:	2c52           	movea.l (a2),a6

000003ec _clng_:
     3ec:	43f9           	.short 0x43f9
	...
			3ee: RELOC32	.bss

000003f0 _LEN_:
     3f0:	0038 2068 000e 	ori.b #104,e _SCREEN+0x2
     3f6:	4eae fe92      	jsr -366(a6)
     3fa:	2079 0000 0060 	movea.l 60 __aqb_read2+0x20,a0
			3fc: RELOC32	.bss
     400:	2c52           	movea.l (a2),a6
     402:	4eae fe80      	jsr -384(a6)
     406:	2079           	.short 0x2079

00000408 _CHR_:
     408:	0000 0060      	ori.b #96,d0
			408: RELOC32	.bss
     40c:	2c52           	movea.l (a2),a6

0000040e _WINDOW_CLOSE:
     40e:	4eae fe8c      	jsr -372(a6)
     412:	4ced 440c ffc8 	movem.l -56(a5),d2-d3/a2/a6
     418:	4e5d           	unlk a5
     41a:	4e75           	rts

0000041c __debug_putu1:
     41c:	4e55 ffd8      	link.w a5,#-40
     420:	48e7 3022      	movem.l d2-d3/a2/a6,-(sp)
     424:	4878 000a      	pea a ___mulsi4+0x4
     428:	45ed           	.short 0x45ed

0000042a _TIMER_ON:
     42a:	ffd8           	.short 0xffd8
     42c:	2f0a           	move.l a2,-(sp)
     42e:	7000           	moveq #0,d0
     430:	102d 000b      	move.b 11(a5),d0
     434:	2f00           	move.l d0,-(sp)
     436:	4eb9 0000 0330 	jsr 330 __astr_utoa
			438: RELOC32	.text
     43c:	4fef 000c      	lea 12(sp),sp
     440:	0c79           	.short 0x0c79
     442:	0003           	Address 0x0000000000000444 is out of bounds.
.short 0x0003

00000444 ___aqb_intdiv_single:
     444:	0000 0018      	ori.b #24,d0
			444: RELOC32	.bss
     448:	6734           	beq.s 47e _ASC_+0x24
     44a:	2439 0000 0034 	move.l 34 ___umodsi4+0x4,d2
			44c: RELOC32	.bss
     450:	660a           	bne.s 45c _ASC_+0x2
     452:	4ced 440c ffc8 	movem.l -56(a5),d2-d3/a2/a6
     458:	4e5d           	unlk a5

0000045a _ASC_:
     45a:	4e75           	rts
     45c:	2f0a           	move.l a2,-(sp)
     45e:	4eb9 0000 03f0 	jsr 3f0 _LEN_
			460: RELOC32	.text
     464:	2c79 0000 0004 	movea.l 4 _start+0x4,a6
			466: RELOC32	.bss
     46a:	2202           	move.l d2,d1
     46c:	240a           	move.l a2,d2
     46e:	2600           	move.l d0,d3
     470:	4eae ffd0      	jsr -48(a6)
     474:	4ced 440c ffc8 	movem.l -56(a5),d2-d3/a2/a6
     47a:	4e5d           	unlk a5
     47c:	4e75           	rts
     47e:	2039 0000 0060 	move.l 60 __aqb_read2+0x20,d0
			480: RELOC32	.bss

00000484 _POKE:
     484:	67c4           	beq.s 44a ___aqb_intdiv_single+0x6
     486:	41f9 0000 0038 	lea 38 __aqb_clear+0x2,a0
			488: RELOC32	.bss
     48c:	7200           	moveq #0,d1
     48e:	20c1           	move.l d1,(a0)+
     490:	4298           	clr.l (a0)+

00000492 _MID_:
     492:	4228           	.short 0x4228

00000494 _POKEW:
     494:	0001 42a8      	ori.b #-88,d1
     498:	0002 10fc      	ori.b #-4,d2
     49c:	0005 317c      	ori.b #124,d5
     4a0:	0026 0009      	ori.b #9,-(a6)

000004a4 _POKEL:
     4a4:	2140 0005      	move.l d0,5(a0)
     4a8:	217c deca 11ed 	move.l #-557182483,15(a0)
     4ae:	000f 
     4b0:	317c           	.short 0x317c

000004b2 __window_add_close_cb:
     4b2:	0019           	Address 0x00000000000004b4 is out of bounds.
.short 0x0019

000004b4 _PEEK_:
     4b4:	0013 214a      	ori.b #74,(a3)
     4b8:	0019 45f9      	ori.b #-7,(a1)+
     4bc:	0000 0000      	ori.b #0,d0
			4bc: RELOC32	.bss
     4c0:	2079           	.short 0x2079

000004c2 _PEEKW_:
     4c2:	0000 0004      	ori.b #4,d0
			4c2: RELOC32	.data
     4c6:	2c52           	movea.l (a2),a6
     4c8:	43f9 0000 0038 	lea 38 __aqb_clear+0x2,a1
			4ca: RELOC32	.bss
     4ce:	2068           	.short 0x2068

000004d0 _PEEKL_:
     4d0:	000e           	.short 0x000e
     4d2:	4eae fe92      	jsr -366(a6)
     4d6:	2079 0000 0060 	movea.l 60 __aqb_read2+0x20,a0
			4d8: RELOC32	.bss
     4dc:	2c52           	movea.l (a2),a6

000004de __autil_create_port:
     4de:	4eae fe80      	jsr -384(a6)
     4e2:	2079 0000 0060 	movea.l 60 __aqb_read2+0x20,a0
			4e4: RELOC32	.bss
     4e8:	2c52           	movea.l (a2),a6
     4ea:	4eae fe8c      	jsr -372(a6)
     4ee:	4ced 440c ffc8 	movem.l -56(a5),d2-d3/a2/a6
     4f4:	4e5d           	unlk a5
     4f6:	4e75           	rts

000004f8 __debug_putu2:
     4f8:	4e55 ffd8      	link.w a5,#-40
     4fc:	48e7 3022      	movem.l d2-d3/a2/a6,-(sp)

00000500 __window_add_msg_cb:
     500:	4878 000a      	pea a ___mulsi4+0x4
     504:	45ed ffd8      	lea -40(a5),a2
     508:	2f0a           	move.l a2,-(sp)
     50a:	7000           	moveq #0,d0
     50c:	302d           	.short 0x302d

0000050e ___aqb_shl_single:
     50e:	000a           	.short 0x000a
     510:	2f00           	move.l d0,-(sp)
     512:	4eb9 0000 0330 	jsr 330 __astr_utoa
			514: RELOC32	.text
     518:	4fef 000c      	lea 12(sp),sp
     51c:	0c79 0003 0000 	cmpi.w #3,18 ___DARRAY_T_REDIM
     522:	0018 
			520: RELOC32	.bss
     524:	6734           	beq.s 55a _WINDOW_OUTPUT+0xc
     526:	2439 0000 0034 	move.l 34 ___umodsi4+0x4,d2
			528: RELOC32	.bss
     52c:	660a           	bne.s 538 ___aqb_shl_single+0x2a
     52e:	4ced 440c ffc8 	movem.l -56(a5),d2-d3/a2/a6
     534:	4e5d           	unlk a5
     536:	4e75           	rts
     538:	2f0a           	move.l a2,-(sp)
     53a:	4eb9 0000 03f0 	jsr 3f0 _LEN_
			53c: RELOC32	.text
     540:	2c79 0000 0004 	movea.l 4 _start+0x4,a6
			542: RELOC32	.bss
     546:	2202           	move.l d2,d1
     548:	240a           	move.l a2,d2

0000054a __aio_putu2:
     54a:	2600           	move.l d0,d3
     54c:	4eae           	.short 0x4eae

0000054e _WINDOW_OUTPUT:
     54e:	ffd0           	.short 0xffd0
     550:	4ced 440c ffc8 	movem.l -56(a5),d2-d3/a2/a6
     556:	4e5d           	unlk a5
     558:	4e75           	rts
     55a:	2039 0000 0060 	move.l 60 __aqb_read2+0x20,d0
			55c: RELOC32	.bss
     560:	67c4           	beq.s 526 ___aqb_shl_single+0x18
     562:	41f9           	.short 0x41f9

00000564 _TIMER_OFF:
     564:	0000 0038      	ori.b #56,d0
			564: RELOC32	.bss
     568:	7200           	moveq #0,d1
     56a:	20c1           	move.l d1,(a0)+
     56c:	4298           	clr.l (a0)+

0000056e _UCASE_:
     56e:	4228 0001      	clr.b 1(a0)

00000572 __autil_delete_port:
     572:	42a8 0002      	clr.l 2(a0)
     576:	10fc 0005      	move.b #5,(a0)+
     57a:	317c 0026 0009 	move.w #38,9(a0)
     580:	2140 0005      	move.l d0,5(a0)
     584:	217c deca 11ed 	move.l #-557182483,15(a0)
     58a:	000f 
     58c:	317c 0019 0013 	move.w #25,19(a0)
     592:	214a 0019      	move.l a2,25(a0)
     596:	45f9 0000 0000 	lea 0 _start,a2
			598: RELOC32	.bss
     59c:	2079 0000 0004 	movea.l 4 _start+0x4,a0
			59e: RELOC32	.data
     5a2:	2c52           	movea.l (a2),a6
     5a4:	43f9 0000 0038 	lea 38 __aqb_clear+0x2,a1
			5a6: RELOC32	.bss

000005aa __autil_create_ext_io:
     5aa:	2068 000e      	movea.l 14(a0),a0
     5ae:	4eae fe92      	jsr -366(a6)
     5b2:	2079 0000 0060 	movea.l 60 __aqb_read2+0x20,a0
			5b4: RELOC32	.bss
     5b8:	2c52           	movea.l (a2),a6
     5ba:	4eae fe80      	jsr -384(a6)

000005be ___aqb_shr_single:
     5be:	2079 0000 0060 	movea.l 60 __aqb_read2+0x20,a0
			5c0: RELOC32	.bss
     5c4:	2c52           	movea.l (a2),a6
     5c6:	4eae fe8c      	jsr -372(a6)
     5ca:	4ced 440c ffc8 	movem.l -56(a5),d2-d3/a2/a6
     5d0:	4e5d           	unlk a5
     5d2:	4e75           	rts

000005d4 __debug_putu4:
     5d4:	4e55 ffd8      	link.w a5,#-40
     5d8:	48e7 3022      	movem.l d2-d3/a2/a6,-(sp)
     5dc:	4878 000a      	pea a ___mulsi4+0x4
     5e0:	45ed ffd8      	lea -40(a5),a2
     5e4:	2f0a           	move.l a2,-(sp)
     5e6:	2f2d 0008      	move.l 8(a5),-(sp)
     5ea:	4eb9 0000 0330 	jsr 330 __astr_utoa
			5ec: RELOC32	.text
     5f0:	4fef 000c      	lea 12(sp),sp

000005f4 __autil_create_std_io:
     5f4:	0c79           	.short 0x0c79
     5f6:	0003           	Address 0x00000000000005f8 is out of bounds.
.short 0x0003

000005f8 _WAVE_:
     5f8:	0000 0018      	ori.b #24,d0
			5f8: RELOC32	.bss

000005fc __awindow_shutdown:
     5fc:	6734           	beq.s 632 _LCASE_+0x18
     5fe:	2439 0000 0034 	move.l 34 ___umodsi4+0x4,d2
			600: RELOC32	.bss

00000604 __aio_putu1:
     604:	660a           	bne.s 610 __aio_putu1+0xc
     606:	4ced 440c ffc8 	movem.l -56(a5),d2-d3/a2/a6
     60c:	4e5d           	unlk a5
     60e:	4e75           	rts
     610:	2f0a           	move.l a2,-(sp)
     612:	4eb9 0000 03f0 	jsr 3f0 _LEN_
			614: RELOC32	.text
     618:	2c79           	.short 0x2c79

0000061a _LCASE_:
     61a:	0000 0004      	ori.b #4,d0
			61a: RELOC32	.bss
     61e:	2202           	move.l d2,d1
     620:	240a           	move.l a2,d2
     622:	2600           	move.l d0,d3
     624:	4eae ffd0      	jsr -48(a6)
     628:	4ced 440c ffc8 	movem.l -56(a5),d2-d3/a2/a6
     62e:	4e5d           	unlk a5
     630:	4e75           	rts
     632:	2039 0000 0060 	move.l 60 __aqb_read2+0x20,d0
			634: RELOC32	.bss
     638:	67c4           	beq.s 5fe __awindow_shutdown+0x2

0000063a __autil_delete_ext_io:
     63a:	41f9 0000 0038 	lea 38 __aqb_clear+0x2,a0
			63c: RELOC32	.bss
     640:	7200           	moveq #0,d1
     642:	20c1           	move.l d1,(a0)+
     644:	4298           	clr.l (a0)+
     646:	4228 0001      	clr.b 1(a0)
     64a:	42a8 0002      	clr.l 2(a0)
     64e:	10fc 0005      	move.b #5,(a0)+
     652:	317c 0026 0009 	move.w #38,9(a0)
     658:	2140 0005      	move.l d0,5(a0)
     65c:	217c deca 11ed 	move.l #-557182483,15(a0)
     662:	000f 
     664:	317c           	.short 0x317c
     666:	0019           	Address 0x0000000000000668 is out of bounds.
.short 0x0019

00000668 __autil_begin_io:
     668:	0013 214a      	ori.b #74,(a3)
     66c:	0019           	Address 0x000000000000066e is out of bounds.
.short 0x0019

0000066e ___aqb_xor_single:
     66e:	45f9 0000 0000 	lea 0 _start,a2
			670: RELOC32	.bss
     674:	2079 0000 0004 	movea.l 4 _start+0x4,a0
			676: RELOC32	.data
     67a:	2c52           	movea.l (a2),a6
     67c:	43f9           	.short 0x43f9
	...
			67e: RELOC32	.bss

00000680 __autil_init:
     680:	0038 2068 000e 	ori.b #104,e _SCREEN+0x2
     686:	4eae fe92      	jsr -366(a6)
     68a:	2079 0000 0060 	movea.l 60 __aqb_read2+0x20,a0
			68c: RELOC32	.bss
     690:	2c52           	movea.l (a2),a6
     692:	4eae fe80      	jsr -384(a6)
     696:	2079 0000 0060 	movea.l 60 __aqb_read2+0x20,a0
			698: RELOC32	.bss
     69c:	2c52           	movea.l (a2),a6
     69e:	4eae fe8c      	jsr -372(a6)
     6a2:	4ced           	Address 0x00000000000006a4 is out of bounds.
.short 0x4ced

000006a4 __autil_shutdown:
     6a4:	440c           	.short 0x440c
     6a6:	ffc8           	.short 0xffc8
     6a8:	4e5d           	unlk a5
     6aa:	4e75           	rts

000006ac __debug_putf:
     6ac:	4e55 ffd8      	link.w a5,#-40
     6b0:	48e7 3022      	movem.l d2-d3/a2/a6,-(sp)
     6b4:	45ed ffd8      	lea -40(a5),a2
     6b8:	2f0a           	move.l a2,-(sp)
     6ba:	2f2d 0008      	move.l 8(a5),-(sp)

000006be __aio_puthex:
     6be:	4eb9 0000 12a8 	jsr 12a8 __astr_ftoa
			6c0: RELOC32	.text
     6c4:	508f           	addq.l #8,sp

000006c6 _LEFT_:
     6c6:	0c79 0003 0000 	cmpi.w #3,18 ___DARRAY_T_REDIM
     6cc:	0018 
			6ca: RELOC32	.bss
     6ce:	6734           	beq.s 704 _WAVE_FREE+0x1c
     6d0:	2439 0000 0034 	move.l 34 ___umodsi4+0x4,d2
			6d2: RELOC32	.bss
     6d6:	660a           	bne.s 6e2 _LEFT_+0x1c
     6d8:	4ced 440c ffc8 	movem.l -56(a5),d2-d3/a2/a6
     6de:	4e5d           	unlk a5
     6e0:	4e75           	rts
     6e2:	2f0a           	move.l a2,-(sp)
     6e4:	4eb9           	.short 0x4eb9
	...
			6e6: RELOC32	.text

000006e8 _WAVE_FREE:
     6e8:	03f0 2c79      	bset d1,(121,a0,d2.l*4)
     6ec:	0000 0004      	ori.b #4,d0
			6ec: RELOC32	.bss
     6f0:	2202           	move.l d2,d1
     6f2:	240a           	move.l a2,d2
     6f4:	2600           	move.l d0,d3
     6f6:	4eae ffd0      	jsr -48(a6)
     6fa:	4ced 440c ffc8 	movem.l -56(a5),d2-d3/a2/a6
     700:	4e5d           	unlk a5
     702:	4e75           	rts
     704:	2039 0000 0060 	move.l 60 __aqb_read2+0x20,d0
			706: RELOC32	.bss
     70a:	67c4           	beq.s 6d0 _LEFT_+0xa
     70c:	41f9 0000 0038 	lea 38 __aqb_clear+0x2,a0
			70e: RELOC32	.bss
     712:	7200           	moveq #0,d1
     714:	20c1           	move.l d1,(a0)+
     716:	4298           	clr.l (a0)+
     718:	4228           	.short 0x4228

0000071a ___aqb_eqv_single:
     71a:	0001 42a8      	ori.b #-88,d1
     71e:	0002 10fc      	ori.b #-4,d2
     722:	0005 317c      	ori.b #124,d5
     726:	0026 0009      	ori.b #9,-(a6)
     72a:	2140 0005      	move.l d0,5(a0)
     72e:	217c deca 11ed 	move.l #-557182483,15(a0)
     734:	000f 
     736:	317c 0019 0013 	move.w #25,19(a0)
     73c:	214a 0019      	move.l a2,25(a0)
     740:	45f9 0000 0000 	lea 0 _start,a2
			742: RELOC32	.bss

00000746 _WAVE:
     746:	2079 0000 0004 	movea.l 4 _start+0x4,a0
			748: RELOC32	.data
     74c:	2c52           	movea.l (a2),a6
     74e:	43f9 0000 0038 	lea 38 __aqb_clear+0x2,a1
			750: RELOC32	.bss
     754:	2068 000e      	movea.l 14(a0),a0
     758:	4eae fe92      	jsr -366(a6)
     75c:	2079           	.short 0x2079
	...
			75e: RELOC32	.bss

00000760 _RIGHT_:
     760:	0060 2c52      	ori.w #11346,-(a0)
     764:	4eae fe80      	jsr -384(a6)
     768:	2079 0000 0060 	movea.l 60 __aqb_read2+0x20,a0
			76a: RELOC32	.bss
     76e:	2c52           	movea.l (a2),a6
     770:	4eae fe8c      	jsr -372(a6)

00000774 __aio_putbin:
     774:	4ced 440c ffc8 	movem.l -56(a5),d2-d3/a2/a6

0000077a _SOUND_WAIT:
     77a:	4e5d           	unlk a5
     77c:	4e75           	rts
     77e:	5452           	addq.w #2,(a2)
     780:	5545           	subq.w #2,d5
     782:	0046 414c      	ori.w #16716,d6
     786:	5345           	subq.w #1,d5
	...

0000078a __debug_putbool:
     78a:	4e55 0000      	link.w a5,#0
     78e:	48e7 3002      	movem.l d2-d3/a6,-(sp)
     792:	4a6d 000a      	tst.w 10(a5)
     796:	6600 00b8      	bne.w 850 __aio_putuhex+0x26
     79a:	243c 0000 0783 	move.l #1923,d2
			79c: RELOC32	.text
     7a0:	0c79 0003 0000 	cmpi.w #3,18 ___DARRAY_T_REDIM
     7a6:	0018 
			7a4: RELOC32	.bss
     7a8:	6732           	beq.s 7dc ___aqb_imp_single+0x12
     7aa:	2639 0000 0034 	move.l 34 ___umodsi4+0x4,d3
			7ac: RELOC32	.bss
     7b0:	660a           	bne.s 7bc __debug_putbool+0x32
     7b2:	4ced 400c fff4 	movem.l -12(a5),d2-d3/a6
     7b8:	4e5d           	unlk a5
     7ba:	4e75           	rts
     7bc:	2f02           	move.l d2,-(sp)
     7be:	4eb9 0000 03f0 	jsr 3f0 _LEN_
			7c0: RELOC32	.text
     7c4:	2c79 0000 0004 	movea.l 4 _start+0x4,a6
			7c6: RELOC32	.bss

000007ca ___aqb_imp_single:
     7ca:	2203           	move.l d3,d1
     7cc:	2600           	move.l d0,d3
     7ce:	4eae ffd0      	jsr -48(a6)
     7d2:	4ced 400c fff4 	movem.l -12(a5),d2-d3/a6
     7d8:	4e5d           	unlk a5
     7da:	4e75           	rts
     7dc:	2039 0000 0060 	move.l 60 __aqb_read2+0x20,d0
			7de: RELOC32	.bss
     7e2:	67c6           	beq.s 7aa __debug_putbool+0x20
     7e4:	41f9 0000 0038 	lea 38 __aqb_clear+0x2,a0
			7e6: RELOC32	.bss
     7ea:	7200           	moveq #0,d1
     7ec:	20c1           	move.l d1,(a0)+
     7ee:	4298           	clr.l (a0)+
     7f0:	4228 0001      	clr.b 1(a0)
     7f4:	42a8 0002      	clr.l 2(a0)
     7f8:	10fc 0005      	move.b #5,(a0)+
     7fc:	317c 0026 0009 	move.w #38,9(a0)
     802:	2140 0005      	move.l d0,5(a0)
     806:	217c deca 11ed 	move.l #-557182483,15(a0)
     80c:	000f 
     80e:	317c 0019 0013 	move.w #25,19(a0)
     814:	2142 0019      	move.l d2,25(a0)
     818:	2079 0000 0004 	movea.l 4 _start+0x4,a0
			81a: RELOC32	.data
     81e:	2c79 0000 0000 	movea.l 0 _start,a6
			820: RELOC32	.bss
     824:	43f9           	.short 0x43f9
	...
			826: RELOC32	.bss

00000828 __aqb_get_output:
     828:	0038           	Address 0x000000000000082a is out of bounds.
.short 0x0038

0000082a __aio_putuhex:
     82a:	2068 000e      	movea.l 14(a0),a0
     82e:	4eae fe92      	jsr -366(a6)
     832:	2079 0000 0060 	movea.l 60 __aqb_read2+0x20,a0
			834: RELOC32	.bss
     838:	4eae fe80      	jsr -384(a6)
     83c:	2079 0000 0060 	movea.l 60 __aqb_read2+0x20,a0
			83e: RELOC32	.bss
     842:	4eae fe8c      	jsr -372(a6)
     846:	4ced 400c fff4 	movem.l -12(a5),d2-d3/a6
     84c:	4e5d           	unlk a5
     84e:	4e75           	rts
     850:	243c           	.short 0x243c

00000852 __astr_strstr:
     852:	0000 077e      	ori.b #126,d0
			852: RELOC32	.text
     856:	0c79 0003 0000 	cmpi.w #3,18 ___DARRAY_T_REDIM
     85c:	0018 
			85a: RELOC32	.bss
     85e:	6600 ff4a      	bne.w 7aa __debug_putbool+0x20
     862:	6000 ff78      	bra.w 7dc ___aqb_imp_single+0x12

00000866 __debug_puttab:
     866:	4e55 fffc      	link.w a5,#-4
     86a:	48e7 3002      	movem.l d2-d3/a6,-(sp)
     86e:	1b7c 0009 ffff 	move.b #9,-1(a5)
     874:	0c79           	.short 0x0c79
     876:	0003 0000      	ori.b #0,d3
			878: RELOC32	.bss

0000087a ___aqb_not_single:
     87a:	0018 6720      	ori.b #32,(a0)+
     87e:	2239 0000 0034 	move.l 34 ___umodsi4+0x4,d1
			880: RELOC32	.bss
     884:	6710           	beq.s 896 _INSTR_+0xe
     886:	240d           	move.l a5,d2

00000888 _INSTR_:
     888:	2c79 0000 0004 	movea.l 4 _start+0x4,a6
			88a: RELOC32	.bss
     88e:	5382           	subq.l #1,d2
     890:	7601           	moveq #1,d3
     892:	4eae ffd0      	jsr -48(a6)
     896:	4cdf 400c      	movem.l (sp)+,d2-d3/a6
     89a:	4e5d           	unlk a5
     89c:	4e75           	rts
     89e:	2039 0000 0060 	move.l 60 __aqb_read2+0x20,d0
			8a0: RELOC32	.bss
     8a4:	67d8           	beq.s 87e ___aqb_not_single+0x4
     8a6:	41f9 0000 0038 	lea 38 __aqb_clear+0x2,a0
			8a8: RELOC32	.bss
     8ac:	7200           	moveq #0,d1
     8ae:	20c1           	move.l d1,(a0)+
     8b0:	4298           	clr.l (a0)+
     8b2:	4228 0001      	clr.b 1(a0)
     8b6:	42a8 0002      	clr.l 2(a0)
     8ba:	10fc 0005      	move.b #5,(a0)+
     8be:	317c 0026 0009 	move.w #38,9(a0)
     8c4:	2140 0005      	move.l d0,5(a0)
     8c8:	217c deca 11ed 	move.l #-557182483,15(a0)
     8ce:	000f 
     8d0:	317c 0018 0013 	move.w #24,19(a0)
     8d6:	117c 0009 0019 	move.b #9,25(a0)
     8dc:	2079           	.short 0x2079

000008de ___aqb_and_single:
     8de:	0000 0004      	ori.b #4,d0
			8de: RELOC32	.data
     8e2:	2c79 0000 0000 	movea.l 0 _start,a6
			8e4: RELOC32	.bss
     8e8:	43f9 0000 0038 	lea 38 __aqb_clear+0x2,a1
			8ea: RELOC32	.bss
     8ee:	2068 000e      	movea.l 14(a0),a0
     8f2:	4eae           	.short 0x4eae

000008f4 __aqb_get_win:
     8f4:	fe92           	.short 0xfe92
     8f6:	2079 0000 0060 	movea.l 60 __aqb_read2+0x20,a0
			8f8: RELOC32	.bss
     8fc:	4eae fe80      	jsr -384(a6)
     900:	2079 0000 0060 	movea.l 60 __aqb_read2+0x20,a0
			902: RELOC32	.bss
     906:	4eae fe8c      	jsr -372(a6)
     90a:	4cdf 400c      	movem.l (sp)+,d2-d3/a6
     90e:	4e5d           	unlk a5
     910:	4e75           	rts

00000912 __debug_putnl:
     912:	4e55 fffc      	link.w a5,#-4
     916:	48e7 3002      	movem.l d2-d3/a6,-(sp)
     91a:	1b7c 000a ffff 	move.b #10,-1(a5)
     920:	0c79           	Address 0x0000000000000922 is out of bounds.
.short 0x0c79

00000922 __astr_dup:
     922:	0003 0000      	ori.b #0,d3
			924: RELOC32	.bss
     926:	0018 6720      	ori.b #32,(a0)+
     92a:	2239 0000 0034 	move.l 34 ___umodsi4+0x4,d1
			92c: RELOC32	.bss
     930:	6710           	beq.s 942 __astr_dup+0x20
     932:	240d           	move.l a5,d2
     934:	2c79 0000 0004 	movea.l 4 _start+0x4,a6
			936: RELOC32	.bss
     93a:	5382           	subq.l #1,d2
     93c:	7601           	moveq #1,d3
     93e:	4eae ffd0      	jsr -48(a6)
     942:	4cdf 400c      	movem.l (sp)+,d2-d3/a6
     946:	4e5d           	unlk a5
     948:	4e75           	rts
     94a:	2039 0000 0060 	move.l 60 __aqb_read2+0x20,d0
			94c: RELOC32	.bss
     950:	67d8           	beq.s 92a __astr_dup+0x8
     952:	41f9 0000 0038 	lea 38 __aqb_clear+0x2,a0
			954: RELOC32	.bss
     958:	7200           	moveq #0,d1
     95a:	20c1           	move.l d1,(a0)+
     95c:	4298           	clr.l (a0)+
     95e:	4228 0001      	clr.b 1(a0)
     962:	42a8 0002      	clr.l 2(a0)
     966:	10fc           	.short 0x10fc

00000968 ___astr_cmp:
     968:	0005 317c      	ori.b #124,d5
     96c:	0026 0009      	ori.b #9,-(a6)
     970:	2140 0005      	move.l d0,5(a0)
     974:	217c deca 11ed 	move.l #-557182483,15(a0)
     97a:	000f 
     97c:	317c 0018 0013 	move.w #24,19(a0)
     982:	117c 000a 0019 	move.b #10,25(a0)
     988:	2079           	.short 0x2079

0000098a ___aqb_or_single:
     98a:	0000 0004      	ori.b #4,d0
			98a: RELOC32	.data
     98e:	2c79 0000 0000 	movea.l 0 _start,a6
			990: RELOC32	.bss
     994:	43f9 0000 0038 	lea 38 __aqb_clear+0x2,a1
			996: RELOC32	.bss
     99a:	2068 000e      	movea.l 14(a0),a0
     99e:	4eae           	.short 0x4eae

000009a0 ___astr_concat:
     9a0:	fe92           	.short 0xfe92
     9a2:	2079 0000 0060 	movea.l 60 __aqb_read2+0x20,a0
			9a4: RELOC32	.bss
     9a8:	4eae fe80      	jsr -384(a6)
     9ac:	2079 0000 0060 	movea.l 60 __aqb_read2+0x20,a0
			9ae: RELOC32	.bss
     9b2:	4eae fe8c      	jsr -372(a6)
     9b6:	4cdf 400c      	movem.l (sp)+,d2-d3/a6
     9ba:	4e5d           	unlk a5
     9bc:	4e75           	rts

000009be __debug_cls:
     9be:	4e55 fffc      	link.w a5,#-4
     9c2:	48e7 3002      	movem.l d2-d3/a6,-(sp)
     9c6:	1b7c 000c ffff 	move.b #12,-1(a5)
     9cc:	0c79 0003 0000 	cmpi.w #3,18 ___DARRAY_T_REDIM
     9d2:	0018 
			9d0: RELOC32	.bss

000009d4 _LINE:
     9d4:	6720           	beq.s 9f6 _LINE+0x22
     9d6:	2239 0000 0034 	move.l 34 ___umodsi4+0x4,d1
			9d8: RELOC32	.bss
     9dc:	6710           	beq.s 9ee _LINE+0x1a
     9de:	240d           	move.l a5,d2
     9e0:	2c79 0000 0004 	movea.l 4 _start+0x4,a6
			9e2: RELOC32	.bss
     9e6:	5382           	subq.l #1,d2
     9e8:	7601           	moveq #1,d3
     9ea:	4eae ffd0      	jsr -48(a6)
     9ee:	4cdf 400c      	movem.l (sp)+,d2-d3/a6
     9f2:	4e5d           	unlk a5
     9f4:	4e75           	rts
     9f6:	2039 0000 0060 	move.l 60 __aqb_read2+0x20,d0
			9f8: RELOC32	.bss
     9fc:	67d8           	beq.s 9d6 _LINE+0x2
     9fe:	41f9 0000 0038 	lea 38 __aqb_clear+0x2,a0
			a00: RELOC32	.bss

00000a04 __astr_ftoa_ext:
     a04:	7200           	moveq #0,d1
     a06:	20c1           	move.l d1,(a0)+
     a08:	4298           	clr.l (a0)+
     a0a:	4228 0001      	clr.b 1(a0)
     a0e:	42a8 0002      	clr.l 2(a0)
     a12:	10fc 0005      	move.b #5,(a0)+
     a16:	317c 0026 0009 	move.w #38,9(a0)
     a1c:	2140 0005      	move.l d0,5(a0)
     a20:	217c deca 11ed 	move.l #-557182483,15(a0)
     a26:	000f 
     a28:	317c           	.short 0x317c
     a2a:	0018           	Address 0x0000000000000a2c is out of bounds.
.short 0x0018

00000a2c __aio_putf:
     a2c:	0013 117c      	ori.b #124,(a3)
     a30:	000c           	.short 0x000c
     a32:	0019 2079      	ori.b #121,(a1)+

00000a36 ___floatsisf:
     a36:	0000 0004      	ori.b #4,d0
			a36: RELOC32	.data
     a3a:	2c79 0000 0000 	movea.l 0 _start,a6
			a3c: RELOC32	.bss
     a40:	43f9 0000 0038 	lea 38 __aqb_clear+0x2,a1
			a42: RELOC32	.bss
     a46:	2068 000e      	movea.l 14(a0),a0
     a4a:	4eae fe92      	jsr -366(a6)
     a4e:	2079           	.short 0x2079

00000a50 ___gtsf2:
     a50:	0000 0060      	ori.b #96,d0
			a50: RELOC32	.bss
     a54:	4eae fe80      	jsr -384(a6)
     a58:	2079 0000 0060 	movea.l 60 __aqb_read2+0x20,a0
			a5a: RELOC32	.bss
     a5e:	4eae fe8c      	jsr -372(a6)
     a62:	4cdf 400c      	movem.l (sp)+,d2-d3/a6
     a66:	4e5d           	unlk a5
     a68:	4e75           	rts

00000a6a __debug_break:
     a6a:	4e55 0000      	link.w a5,#0

00000a6e ___mulsf3:
     a6e:	4e41           	trap #1
     a70:	4e5d           	unlk a5
     a72:	4e75           	rts

00000a74 _ON_EXIT_CALL:
     a74:	4e55 0000      	link.w a5,#0
     a78:	2039 0000 00a4 	move.l a4 __aio_set_dos_cursor_visible+0x4,d0
			a7a: RELOC32	.bss
     a7e:	720f           	moveq #15,d1
     a80:	b280           	cmp.l d0,d1
     a82:	6d18           	blt.s a9c ___divsf3+0x10
     a84:	2200           	move.l d0,d1
     a86:	41f9 0000 0064 	lea 64 __aqb_read2+0x24,a0
			a88: RELOC32	.bss

00000a8c ___divsf3:
     a8c:	e589           	lsl.l #2,d1
     a8e:	21ad 0008 1800 	move.l 8(a5),(0,a0,d1.l)
     a94:	5280           	addq.l #1,d0
     a96:	23c0 0000 00a4 	move.l d0,a4 __aio_set_dos_cursor_visible+0x4
			a98: RELOC32	.bss
     a9c:	4e5d           	unlk a5
     a9e:	4e75           	rts

00000aa0 __ctrlc_break:
     aa0:	4e55 0000      	link.w a5,#0
     aa4:	4e40           	trap #0
     aa6:	4e5d           	unlk a5
     aa8:	4e75           	rts

00000aaa _ON_BREAK_CALL:
     aaa:	4e55 0000      	link.w a5,#0
     aae:	23ed 0008 0000 	move.l 8(a5),a8 __aio_set_dos_cursor_visible+0x8
     ab4:	00a8 
			ab2: RELOC32	.bss
     ab6:	4e5d           	unlk a5
     ab8:	4e75           	rts

00000aba ___handle_break:
     aba:	4e55 0000      	link.w a5,#0
     abe:	4a79 0000 001e 	tst.w 1e __atimer_shutdown+0x2
			ac0: RELOC32	.bss
     ac4:	6736           	beq.s afc __aio_putbool+0x14
     ac6:	4279           	.short 0x4279

00000ac8 ___subsf3:
     ac8:	0000 001e      	ori.b #30,d0
			ac8: RELOC32	.bss
     acc:	2079 0000 00a8 	movea.l a8 __aio_set_dos_cursor_visible+0x8,a0
			ace: RELOC32	.bss
     ad2:	2008           	move.l a0,d0
     ad4:	6710           	beq.s ae6 ___fixsfsi
     ad6:	4279 0000 0004 	clr.w 4 _start+0x4
			ad8: RELOC32	.bss
     adc:	4e90           	jsr (a0)
     ade:	4a79 0000 0004 	tst.w 4 _start+0x4
			ae0: RELOC32	.bss
     ae4:	6616           	bne.s afc __aio_putbool+0x14

00000ae6 ___fixsfsi:
     ae6:	0c79           	Address 0x0000000000000ae8 is out of bounds.
.short 0x0c79

00000ae8 __aio_putbool:
     ae8:	0003 0000      	ori.b #0,d3
			aea: RELOC32	.bss
     aec:	0018 6710      	ori.b #16,(a0)+
     af0:	4878 0001      	pea 1 _start+0x1
     af4:	4eb9 0000 0086 	jsr 86 __autil_exit
			af6: RELOC32	.text
     afa:	588f           	addq.l #4,sp
     afc:	4e5d           	unlk a5
     afe:	4e75           	rts

00000b00 ___ltsf2:
     b00:	4e5d           	unlk a5
     b02:	609c           	bra.s aa0 __ctrlc_break
     b04:	2008           	move.l a0,d0
     b06:	671e           	beq.s b26 _SOUND_STOP+0x6
     b08:	3079 0000 001e 	movea.w 1e __atimer_shutdown+0x2,a0
			b0a: RELOC32	.bss
     b0e:	2240           	movea.l d0,a1
     b10:	4201           	clr.b d1
     b12:	0c29 0001 0004 	cmpi.b #1,4(a1)
     b18:	670e           	beq.s b28 _SOUND_STOP+0x8
     b1a:	2251           	movea.l (a1),a1
     b1c:	b2fc           	.short 0xb2fc

00000b1e _RND_:
	...

00000b20 _SOUND_STOP:
     b20:	66f0           	bne.s b12 ___ltsf2+0x12
     b22:	4a01           	tst.b d1
     b24:	6622           	bne.s b48 _SOUND_STOP+0x28
     b26:	4e75           	rts
     b28:	0c29 0033 0007 	cmpi.b #51,7(a1)
     b2e:	66ea           	bne.s b1a ___ltsf2+0x1a
     b30:	0829 0003 0009 	btst #3,9(a1)
     b36:	67e2           	beq.s b1a ___ltsf2+0x1a
     b38:	7201           	moveq #1,d1
     b3a:	307c 0001      	movea.w #1,a0
     b3e:	2251           	movea.l (a1),a1
     b40:	b2fc 0000      	cmpa.w #0,a1
     b44:	66cc           	bne.s b12 ___ltsf2+0x12
     b46:	60da           	bra.s b22 _SOUND_STOP+0x2
     b48:	33c8 0000 001e 	move.w a0,1e __atimer_shutdown+0x2
			b4a: RELOC32	.bss
     b4e:	4e75           	rts

00000b50 __c_atexit:
     b50:	4e55 0000      	link.w a5,#0
     b54:	48e7 2022      	movem.l d2/a2/a6,-(sp)
     b58:	2439 0000 00a4 	move.l a4 __aio_set_dos_cursor_visible+0x4,d2
			b5a: RELOC32	.bss
     b5e:	2002           	move.l d2,d0
     b60:	5382           	subq.l #1,d2
     b62:	6b18           	bmi.s b7c __c_atexit+0x2c
     b64:	e588           	lsl.l #2,d0
     b66:	2440           	movea.l d0,a2
     b68:	d5fc 0000 0064 	adda.l #100,a2
			b6a: RELOC32	.bss
     b6e:	2062           	movea.l -(a2),a0
     b70:	4e90           	jsr (a0)
     b72:	51ca fffa      	dbf d2,b6e __c_atexit+0x1e
     b76:	4242           	clr.w d2
     b78:	5382           	subq.l #1,d2
     b7a:	64f2           	bcc.s b6e __c_atexit+0x1e
     b7c:	4a79 0000 0032 	tst.w 32 ___umodsi4+0x2
			b7e: RELOC32	.bss
     b82:	671e           	beq.s ba2 __aio_writes4+0x4
     b84:	2279 0000 0024 	movea.l 24 __debug_putc+0x4,a1
			b86: RELOC32	.bss
     b8a:	2379 0000 002c 	move.l 2c ___umodsi3+0x2,40(a1)
     b90:	0028 
			b8c: RELOC32	.bss
     b92:	337c 000a 001c 	move.w #10,28(a1)
     b98:	2c79           	.short 0x2c79

00000b9a _PSET:
     b9a:	0000 0000      	ori.b #0,d0
			b9a: RELOC32	.bss

00000b9e __aio_writes4:
     b9e:	4eae fe38      	jsr -456(a6)
     ba2:	4a79 0000 0030 	tst.w 30 ___umodsi4
			ba4: RELOC32	.bss
     ba8:	6710           	beq.s bba __aio_writes4+0x1c
     baa:	2279 0000 0024 	movea.l 24 __debug_putc+0x4,a1
			bac: RELOC32	.bss
     bb0:	2c79 0000 0000 	movea.l 0 _start,a6
			bb2: RELOC32	.bss
     bb6:	4eae fe3e      	jsr -450(a6)
     bba:	2039 0000 0024 	move.l 24 __debug_putc+0x4,d0
			bbc: RELOC32	.bss
     bc0:	670a           	beq.s bcc __aio_writes4+0x2e
     bc2:	2f00           	move.l d0,-(sp)
     bc4:	4eb9 0000 063a 	jsr 63a __autil_delete_ext_io
			bc6: RELOC32	.text
     bca:	588f           	addq.l #4,sp
     bcc:	2279 0000 002c 	movea.l 2c ___umodsi3+0x2,a1
			bce: RELOC32	.bss
     bd2:	2009           	move.l a1,d0
     bd4:	670c           	beq.s be2 __aio_writes4+0x44
     bd6:	7016           	moveq #22,d0
     bd8:	2c79 0000 0000 	movea.l 0 _start,a6
			bda: RELOC32	.bss
     bde:	4eae ff2e      	jsr -210(a6)
     be2:	2039 0000 0028 	move.l 28 __debug_putc+0x8,d0
			be4: RELOC32	.bss
     be8:	670a           	beq.s bf4 __aio_writes4+0x56
     bea:	2f00           	move.l d0,-(sp)
     bec:	4eb9 0000 0572 	jsr 572 __autil_delete_port
			bee: RELOC32	.text
     bf2:	588f           	addq.l #4,sp
     bf4:	4a79 0000 0022 	tst.w 22 __debug_putc+0x2
			bf6: RELOC32	.bss
     bfa:	6600 00a0      	bne.w c9c _POINT_+0x6
     bfe:	4a79 0000 0020 	tst.w 20 __debug_putc
			c00: RELOC32	.bss
     c04:	6600 008c      	bne.w c92 _SOUND_start+0x22
     c08:	2279 0000 0010 	movea.l 10 __aqb_read1,a1
			c0a: RELOC32	.bss
     c0e:	2009           	move.l a1,d0
     c10:	670a           	beq.s c1c __aio_writes4+0x7e
     c12:	2c79 0000 0000 	movea.l 0 _start,a6
			c14: RELOC32	.bss
     c18:	4eae fe62      	jsr -414(a6)
     c1c:	2279 0000 000c 	movea.l c _SCREEN,a1
			c1e: RELOC32	.bss
     c22:	2009           	move.l a1,d0
     c24:	670a           	beq.s c30 __aio_writes4+0x92
     c26:	2c79 0000 0000 	movea.l 0 _start,a6
			c28: RELOC32	.bss
     c2c:	4eae fe62      	jsr -414(a6)
     c30:	2279 0000 0008 	movea.l 8 ___mulsi4+0x2,a1
			c32: RELOC32	.bss
     c36:	2009           	move.l a1,d0
     c38:	670a           	beq.s c44 __aio_writes4+0xa6
     c3a:	2c79 0000 0000 	movea.l 0 _start,a6
			c3c: RELOC32	.bss
     c40:	4eae fe62      	jsr -414(a6)
     c44:	2039 0000 0060 	move.l 60 __aqb_read2+0x20,d0
			c46: RELOC32	.bss
     c4a:	670e           	beq.s c5a __aio_writes2+0x4
     c4c:	2f00           	move.l d0,-(sp)
     c4e:	4eb9 0000 0572 	jsr 572 __autil_delete_port
			c50: RELOC32	.text
     c54:	42b9           	.short 0x42b9

00000c56 __aio_writes2:
     c56:	0000 0060      	ori.b #96,d0
			c56: RELOC32	.bss
     c5a:	2279 0000 0004 	movea.l 4 _start+0x4,a1
			c5c: RELOC32	.bss
     c60:	2009           	move.l a1,d0
     c62:	6710           	beq.s c74 _SOUND_start+0x4
     c64:	42b9 0000 0034 	clr.l 34 ___umodsi4+0x4
			c66: RELOC32	.bss
     c6a:	2c79 0000 0000 	movea.l 0 _start,a6
			c6c: RELOC32	.bss

00000c70 _SOUND_start:
     c70:	4eae fe62      	jsr -414(a6)
     c74:	2279 0000 001a 	movea.l 1a ___DARRAY_T_REDIM+0x2,a1
			c76: RELOC32	.bss
     c7a:	2009           	move.l a1,d0
     c7c:	670a           	beq.s c88 _SOUND_start+0x18
     c7e:	2c79 0000 0000 	movea.l 0 _start,a6
			c80: RELOC32	.bss
     c84:	4eae fd4e      	jsr -690(a6)
     c88:	4ced 4404 fff4 	movem.l -12(a5),d2/a2/a6
     c8e:	4e5d           	unlk a5
     c90:	4e75           	rts
     c92:	4eb9           	.short 0x4eb9
	...
			c94: RELOC32	.text

00000c96 _POINT_:
     c96:	06a4 6000 ff6e 	addi.l #1610678126,-(a4)
     c9c:	4eb9 0000 2720 	jsr 2720 __aio_shutdown
			c9e: RELOC32	.text
     ca2:	4a79 0000 0020 	tst.w 20 __debug_putc
			ca4: RELOC32	.bss
     ca8:	6700 ff5e      	beq.w c08 __aio_writes4+0x6a
     cac:	60e4           	bra.s c92 _SOUND_start+0x22

00000cae __cshutdown:
     cae:	4e55 0000      	link.w a5,#0
     cb2:	48e7 3802      	movem.l d2-d4/a6,-(sp)
     cb6:	282d 0008      	move.l 8(a5),d4
     cba:	242d 000c      	move.l 12(a5),d2
     cbe:	671a           	beq.s cda __cshutdown+0x2c
     cc0:	4ab9 0000 0004 	tst.l 4 _start+0x4
			cc2: RELOC32	.bss
     cc6:	6712           	beq.s cda __cshutdown+0x2c
     cc8:	0c79 0003 0000 	cmpi.w #3,18 ___DARRAY_T_REDIM
     cce:	0018 
			ccc: RELOC32	.bss
     cd0:	6742           	beq.s d14 __aio_writes1+0x4
     cd2:	2639 0000 0034 	move.l 34 ___umodsi4+0x4,d3
			cd4: RELOC32	.bss
     cd8:	6612           	bne.s cec __cshutdown+0x3e
     cda:	2b44 0008      	move.l d4,8(a5)
     cde:	4ced 401c fff0 	movem.l -16(a5),d2-d4/a6
     ce4:	4e5d           	unlk a5
     ce6:	4ef9 0000 0086 	jmp 86 __autil_exit
			ce8: RELOC32	.text
     cec:	2f02           	move.l d2,-(sp)
     cee:	4eb9 0000 03f0 	jsr 3f0 _LEN_
			cf0: RELOC32	.text
     cf4:	2c79 0000 0004 	movea.l 4 _start+0x4,a6
			cf6: RELOC32	.bss
     cfa:	2203           	move.l d3,d1
     cfc:	2600           	move.l d0,d3
     cfe:	4eae ffd0      	jsr -48(a6)
     d02:	2b44 0008      	move.l d4,8(a5)
     d06:	4ced 401c fff0 	movem.l -16(a5),d2-d4/a6
     d0c:	4e5d           	unlk a5
     d0e:	4ef9           	.short 0x4ef9

00000d10 __aio_writes1:
     d10:	0000 0086      	ori.b #-122,d0
			d10: RELOC32	.text
     d14:	2039 0000 0060 	move.l 60 __aqb_read2+0x20,d0
			d16: RELOC32	.bss
     d1a:	67b6           	beq.s cd2 __cshutdown+0x24
     d1c:	41f9 0000 0038 	lea 38 __aqb_clear+0x2,a0
			d1e: RELOC32	.bss
     d22:	7200           	moveq #0,d1
     d24:	20c1           	move.l d1,(a0)+
     d26:	4298           	clr.l (a0)+
     d28:	4228 0001      	clr.b 1(a0)
     d2c:	42a8 0002      	clr.l 2(a0)
     d30:	10fc 0005      	move.b #5,(a0)+
     d34:	317c 0026 0009 	move.w #38,9(a0)
     d3a:	2140 0005      	move.l d0,5(a0)
     d3e:	217c deca 11ed 	move.l #-557182483,15(a0)
     d44:	000f 
     d46:	317c 0019 0013 	move.w #25,19(a0)
     d4c:	2142           	.short 0x2142

00000d4e _CIRCLE:
     d4e:	0019 2079      	ori.b #121,(a1)+
     d52:	0000 0004      	ori.b #4,d0
			d52: RELOC32	.data
     d56:	2c79 0000 0000 	movea.l 0 _start,a6
			d58: RELOC32	.bss
     d5c:	43f9 0000 0038 	lea 38 __aqb_clear+0x2,a1
			d5e: RELOC32	.bss
     d62:	2068 000e      	movea.l 14(a0),a0
     d66:	4eae fe92      	jsr -366(a6)
     d6a:	2079 0000 0060 	movea.l 60 __aqb_read2+0x20,a0
			d6c: RELOC32	.bss

00000d70 _RANDOMIZE:
     d70:	4eae fe80      	jsr -384(a6)
     d74:	2079 0000 0060 	movea.l 60 __aqb_read2+0x20,a0
			d76: RELOC32	.bss
     d7a:	4eae fe8c      	jsr -372(a6)
     d7e:	2b44 0008      	move.l d4,8(a5)
     d82:	4ced 401c fff0 	movem.l -16(a5),d2-d4/a6
     d88:	4e5d           	unlk a5
     d8a:	4ef9 0000 0086 	jmp 86 __autil_exit
			d8c: RELOC32	.text

00000d90 ____breakHandler:
     d90:	33fc 0001 0000 	move.w #1,1e __atimer_shutdown+0x2
     d96:	001e 
			d94: RELOC32	.bss
     d98:	4e75           	rts

00000d9a __amath_init:
     d9a:	646f           	bcc.s e0b __aio_writeu4+0x3f
     d9c:	732e           	.short 0x732e
     d9e:	6c69           	bge.s e09 __aio_writeu4+0x3d
     da0:	6272           	bhi.s e14 __aio_writeu4+0x48
     da2:	6172           	bsr.s e16 __aio_writeu4+0x4a
     da4:	7900           	.short 0x7900
     da6:	6d61           	blt.s e09 __aio_writeu4+0x3d
     da8:	7468           	moveq #104,d2
     daa:	6666           	bne.s e12 __aio_writeu4+0x46
     dac:	702e           	moveq #46,d0
     dae:	6c69           	bge.s e19 __aio_writeu4+0x4d
     db0:	6272           	bhi.s e24 __aio_writeu4+0x58
     db2:	6172           	bsr.s e26 __aio_writeu4+0x5a
     db4:	7900           	.short 0x7900
     db6:	2a2a 2a20      	move.l 10784(a2),d5
     dba:	6572           	bcs.s e2e __aio_writeu4+0x62
     dbc:	726f           	moveq #111,d1
     dbe:	723a           	moveq #58,d1

00000dc0 __asound_init:
     dc0:	2066           	movea.l -(a6),a0
     dc2:	6169           	bsr.s e2d __aio_writeu4+0x61
     dc4:	6c65           	bge.s e2b __aio_writeu4+0x5f
     dc6:	6420           	bcc.s de8 __aio_writeu4+0x1c
     dc8:	746f           	moveq #111,d2
     dca:	206f           	.short 0x206f

00000dcc __aio_writeu4:
     dcc:	7065           	moveq #101,d0
     dce:	6e20           	bgt.s df0 __aio_writeu4+0x24
     dd0:	6d61           	blt.s e33 __aio_writeu4+0x67
     dd2:	7468           	moveq #104,d2
     dd4:	6666           	bne.s e3c __aio_writeu4+0x70
     dd6:	702e           	moveq #46,d0
     dd8:	6c69           	bge.s e43 __aio_writeu4+0x77
     dda:	6272           	bhi.s e4e __aio_writeu4+0x82
     ddc:	6172           	bsr.s e50 __aio_writeu4+0x84
     dde:	7921           	.short 0x7921
     de0:	0a00 6d61      	eori.b #97,d0
     de4:	7468           	moveq #104,d2
     de6:	7472           	moveq #114,d2
     de8:	616e           	bsr.s e58 __aio_writeu4+0x8c
     dea:	732e           	.short 0x732e
     dec:	6c69           	bge.s e57 __aio_writeu4+0x8b
     dee:	6272           	bhi.s e62 __aio_writeu4+0x96
     df0:	6172           	bsr.s e64 __aio_writeu4+0x98
     df2:	7900           	.short 0x7900
     df4:	2a2a 2a20      	move.l 10784(a2),d5
     df8:	6572           	bcs.s e6c __aio_writeu4+0xa0
     dfa:	726f           	moveq #111,d1
     dfc:	723a           	moveq #58,d1
     dfe:	2066           	movea.l -(a6),a0
     e00:	6169           	bsr.s e6b __aio_writeu4+0x9f
     e02:	6c65           	bge.s e69 __aio_writeu4+0x9d
     e04:	6420           	bcc.s e26 __aio_writeu4+0x5a
     e06:	746f           	moveq #111,d2
     e08:	206f 7065      	movea.l 28773(sp),a0
     e0c:	6e20           	bgt.s e2e __aio_writeu4+0x62
     e0e:	6d61           	blt.s e71 __aio_writeu4+0xa5
     e10:	7468           	moveq #104,d2
     e12:	7472           	moveq #114,d2
     e14:	616e           	bsr.s e84 __aio_writeu2
     e16:	732e           	.short 0x732e
     e18:	6c69           	bge.s e83 __aio_writeu4+0xb7
     e1a:	6272           	bhi.s e8e __aio_writeu2+0xa
     e1c:	6172           	bsr.s e90 __aio_writeu2+0xc
     e1e:	7921           	.short 0x7921
     e20:	0a00 7574      	eori.b #116,d0
     e24:	696c           	bvs.s e92 __aio_writeu2+0xe
     e26:	6974           	bvs.s e9c __aio_writeu2+0x18
     e28:	792e           	.short 0x792e
     e2a:	6c69           	bge.s e95 __aio_writeu2+0x11
     e2c:	6272           	bhi.s ea0 __aio_writeu2+0x1c
     e2e:	6172           	bsr.s ea2 __aio_writeu2+0x1e
     e30:	7900           	.short 0x7900
     e32:	2a2a 2a20      	move.l 10784(a2),d5
     e36:	6572           	bcs.s eaa __aio_writeu2+0x26
     e38:	726f           	moveq #111,d1
     e3a:	723a           	moveq #58,d1
     e3c:	2066           	movea.l -(a6),a0
     e3e:	6169           	bsr.s ea9 __aio_writeu2+0x25
     e40:	6c65           	bge.s ea7 __aio_writeu2+0x23
     e42:	6420           	bcc.s e64 __aio_writeu4+0x98
     e44:	746f           	moveq #111,d2
     e46:	206f 7065      	movea.l 28773(sp),a0
     e4a:	6e20           	bgt.s e6c __aio_writeu4+0xa0
     e4c:	7574           	.short 0x7574
     e4e:	696c           	bvs.s ebc __aio_writeu2+0x38
     e50:	6974           	bvs.s ec6 __asound_shutdown+0x6
     e52:	792e           	.short 0x792e
     e54:	6c69           	bge.s ebf __aio_writeu2+0x3b
     e56:	6272           	bhi.s eca __asound_shutdown+0xa
     e58:	6172           	bsr.s ecc __asound_shutdown+0xc
     e5a:	7921           	.short 0x7921
     e5c:	0a00 2a2a      	eori.b #42,d0
     e60:	2a20           	move.l -(a0),d5
     e62:	6572           	bcs.s ed6 __asound_shutdown+0x16
     e64:	726f           	moveq #111,d1
     e66:	723a           	moveq #58,d1
     e68:	2066           	movea.l -(a6),a0
     e6a:	6169           	bsr.s ed5 __asound_shutdown+0x15
     e6c:	6c65           	bge.s ed3 __asound_shutdown+0x13
     e6e:	6420           	bcc.s e90 __aio_writeu2+0xc
     e70:	746f           	moveq #111,d2
     e72:	2061           	movea.l -(a1),a0
     e74:	6c6c           	bge.s ee2 __asound_shutdown+0x22
     e76:	6f63           	ble.s edb __asound_shutdown+0x1b
     e78:	6174           	bsr.s eee __asound_shutdown+0x2e
     e7a:	6520           	bcs.s e9c __aio_writeu2+0x18
     e7c:	7374           	.short 0x7374
     e7e:	6163           	bsr.s ee3 __asound_shutdown+0x23
     e80:	6b21           	bmi.s ea3 __aio_writeu2+0x1f
     e82:	0a00           	Address 0x0000000000000e84 is out of bounds.
.short 0x0a00

00000e84 __aio_writeu2:
     e84:	2a2a 2a20      	move.l 10784(a2),d5
     e88:	6572           	bcs.s efc __asound_shutdown+0x3c
     e8a:	726f           	moveq #111,d1
     e8c:	723a           	moveq #58,d1
     e8e:	2066           	movea.l -(a6),a0
     e90:	6169           	bsr.s efb __asound_shutdown+0x3b
     e92:	6c65           	bge.s ef9 __asound_shutdown+0x39
     e94:	6420           	bcc.s eb6 __aio_writeu2+0x32
     e96:	746f           	moveq #111,d2
     e98:	2061           	movea.l -(a1),a0
     e9a:	6c6c           	bge.s f08 __asound_shutdown+0x48
     e9c:	6f63           	ble.s f01 __asound_shutdown+0x41
     e9e:	6174           	bsr.s f14 __asound_shutdown+0x54
     ea0:	6520           	bcs.s ec2 __asound_shutdown+0x2
     ea2:	6465           	bcc.s f09 __asound_shutdown+0x49
     ea4:	6275           	bhi.s f1b __asound_shutdown+0x5b
     ea6:	6720           	beq.s ec8 __asound_shutdown+0x8
     ea8:	706f           	moveq #111,d0
     eaa:	7274           	moveq #116,d1
     eac:	210a           	move.l a2,-(a0)
     eae:	002a 2a2a 2065 	ori.b #42,8293(a2)
     eb4:	7272           	moveq #114,d1
     eb6:	6f72           	ble.s f2a __asound_shutdown+0x6a
     eb8:	3a20           	move.w -(a0),d5
     eba:	6661           	bne.s f1d __asound_shutdown+0x5d
     ebc:	696c           	bvs.s f2a __asound_shutdown+0x6a
     ebe:	6564           	bcs.s f24 __asound_shutdown+0x64

00000ec0 __asound_shutdown:
     ec0:	2074 6f20 616c 	movea.l (24940,a4,d6.l*8),a0
     ec6:	6c6f           	bge.s f37 __asound_shutdown+0x77
     ec8:	6361           	bls.s f2b __asound_shutdown+0x6b
     eca:	7465           	moveq #101,d2
     ecc:	2043           	movea.l d3,a0
     ece:	5452           	addq.w #2,(a2)
     ed0:	4c2d           	.short 0x4c2d
     ed2:	4320           	chk.l -(a0),d1
     ed4:	6861           	bvc.s f37 __asound_shutdown+0x77
     ed6:	6e64           	bgt.s f3c __asound_shutdown+0x7c
     ed8:	6c65           	bge.s f3f __asound_shutdown+0x7f
     eda:	7220           	moveq #32,d1
     edc:	696e           	bvs.s f4c __aio_writeu1+0xc
     ede:	7075           	moveq #117,d0
     ee0:	7420           	moveq #32,d2
     ee2:	706f           	moveq #111,d0
     ee4:	7274           	moveq #116,d1
     ee6:	210a           	move.l a2,-(a0)
     ee8:	002a 2a2a 2065 	ori.b #42,8293(a2)
     eee:	7272           	moveq #114,d1
     ef0:	6f72           	ble.s f64 __aio_writeu1+0x24
     ef2:	3a20           	move.w -(a0),d5
     ef4:	6661           	bne.s f57 __aio_writeu1+0x17
     ef6:	696c           	bvs.s f64 __aio_writeu1+0x24
     ef8:	6564           	bcs.s f5e __aio_writeu1+0x1e
     efa:	2074 6f20 616c 	movea.l (24940,a4,d6.l*8),a0
     f00:	6c6f           	bge.s f71 __aio_writeu1+0x31
     f02:	6361           	bls.s f65 __aio_writeu1+0x25
     f04:	7465           	moveq #101,d2
     f06:	2043           	movea.l d3,a0
     f08:	5452           	addq.w #2,(a2)
     f0a:	4c2d           	.short 0x4c2d
     f0c:	4320           	chk.l -(a0),d1
     f0e:	6861           	bvc.s f71 __aio_writeu1+0x31
     f10:	6e64           	bgt.s f76 __aio_writeu1+0x36
     f12:	6c65           	bge.s f79 __aio_writeu1+0x39
     f14:	7220           	moveq #32,d1
     f16:	6d65           	blt.s f7d __aio_writeu1+0x3d
     f18:	6d6f           	blt.s f89 __cstartup+0x5
     f1a:	7279           	moveq #121,d1
     f1c:	210a           	move.l a2,-(a0)
     f1e:	002a 2a2a 2065 	ori.b #42,8293(a2)
     f24:	7272           	moveq #114,d1
     f26:	6f72           	ble.s f9a __cstartup+0x16
     f28:	3a20           	move.w -(a0),d5
     f2a:	6661           	bne.s f8d __cstartup+0x9
     f2c:	696c           	bvs.s f9a __cstartup+0x16
     f2e:	6564           	bcs.s f94 __cstartup+0x10
     f30:	2074 6f20 616c 	movea.l (24940,a4,d6.l*8),a0
     f36:	6c6f           	bge.s fa7 __cstartup+0x23
     f38:	6361           	bls.s f9b __cstartup+0x17
     f3a:	7465           	moveq #101,d2
     f3c:	2043           	movea.l d3,a0
     f3e:	5452           	addq.w #2,(a2)

00000f40 __aio_writeu1:
     f40:	4c2d           	.short 0x4c2d
     f42:	4320           	chk.l -(a0),d1
     f44:	6578           	bcs.s fbe __cstartup+0x3a
     f46:	7420           	moveq #32,d2
     f48:	696f           	bvs.s fb9 __cstartup+0x35
     f4a:	210a           	move.l a2,-(a0)
     f4c:	0069 6e70 7574 	ori.w #28272,30068(a1)
     f52:	2e64           	movea.l -(a4),sp
     f54:	6576           	bcs.s fcc __cstartup+0x48
     f56:	6963           	bvs.s fbb __cstartup+0x37
     f58:	6500 2a2a      	bcs.w 3984 _FONT_+0xe4
     f5c:	2a20           	move.l -(a0),d5
     f5e:	6572           	bcs.s fd2 __cstartup+0x4e
     f60:	726f           	moveq #111,d1
     f62:	723a           	moveq #58,d1
     f64:	2066           	movea.l -(a6),a0
     f66:	6169           	bsr.s fd1 __cstartup+0x4d
     f68:	6c65           	bge.s fcf __cstartup+0x4b
     f6a:	6420           	bcc.s f8c __cstartup+0x8
     f6c:	746f           	moveq #111,d2
     f6e:	206f 7065      	movea.l 28773(sp),a0
     f72:	6e20           	bgt.s f94 __cstartup+0x10
     f74:	696e           	bvs.s fe4 __cstartup+0x60
     f76:	7075           	moveq #117,d0
     f78:	742e           	moveq #46,d2
     f7a:	6465           	bcc.s fe1 __cstartup+0x5d
     f7c:	7669           	moveq #105,d3
     f7e:	6365           	bls.s fe5 __cstartup+0x61
     f80:	210a           	move.l a2,-(a0)
	...

00000f84 __cstartup:
     f84:	4e55 0000      	link.w a5,#0
     f88:	2f0e           	move.l a6,-(sp)
     f8a:	2f0a           	move.l a2,-(sp)
     f8c:	2c78 0004      	movea.l 4 _start+0x4,a6
     f90:	23ce 0000 0000 	move.l a6,0 _start
			f92: RELOC32	.bss
     f96:	7025           	moveq #37,d0
     f98:	43fa fe00      	lea d9a __amath_init(pc),a1
     f9c:	4eae fdd8      	jsr -552(a6)
     fa0:	23c0 0000 0004 	move.l d0,4 _start+0x4
			fa2: RELOC32	.bss
     fa6:	2c40           	movea.l d0,a6
     fa8:	6700 03ac      	beq.w 1356 __aio_writecomma+0x8
     fac:	4eae ffc4      	jsr -60(a6)
     fb0:	23c0 0000 0034 	move.l d0,34 ___umodsi4+0x4
			fb2: RELOC32	.bss
     fb6:	2c79 0000 0000 	movea.l 0 _start,a6
			fb8: RELOC32	.bss
     fbc:	7025           	moveq #37,d0
     fbe:	43fa fde6      	lea da6 __amath_init+0xc(pc),a1
     fc2:	4eae fdd8      	jsr -552(a6)
     fc6:	23c0 0000 0008 	move.l d0,8 ___mulsi4+0x2
			fc8: RELOC32	.bss
     fcc:	6700 0214      	beq.w 11e2 __aio_writes+0x7a
     fd0:	7025           	moveq #37,d0
     fd2:	43fa fe0e      	lea de2 __aio_writeu4+0x16(pc),a1
     fd6:	4eae fdd8      	jsr -552(a6)
     fda:	23c0 0000 000c 	move.l d0,c _SCREEN
			fdc: RELOC32	.bss
     fe0:	6700 025c      	beq.w 123e __aio_writes+0xd6
     fe4:	7025           	moveq #37,d0
     fe6:	43fa fe3a      	lea e22 __aio_writeu4+0x56(pc),a1
     fea:	4eae fdd8      	jsr -552(a6)
     fee:	23c0 0000 0010 	move.l d0,10 __aqb_read1
			ff0: RELOC32	.bss
     ff4:	6700 0226      	beq.w 121c __aio_writes+0xb4
     ff8:	2039           	.short 0x2039
	...
			ffa: RELOC32	.data

00000ffc __aio_writef:
     ffc:	0000 6716      	ori.b #22,d0
    1000:	7201           	moveq #1,d1
    1002:	2c79 0000 0000 	movea.l 0 _start,a6
			1004: RELOC32	.bss
    1008:	4eae fd54      	jsr -684(a6)
    100c:	23c0 0000 001a 	move.l d0,1a ___DARRAY_T_REDIM+0x2
			100e: RELOC32	.bss
    1012:	6700 02a2      	beq.w 12b6 __astr_ftoa+0xe
    1016:	4eb9 0000 0680 	jsr 680 __autil_init
			1018: RELOC32	.text
    101c:	33fc 0001 0000 	move.w #1,20 __debug_putc
    1022:	0020 
			1020: RELOC32	.bss
    1024:	2079 0000 0004 	movea.l 4 _start+0x4,a0
			1026: RELOC32	.data
    102a:	2008           	move.l a0,d0
    102c:	6700 02c0      	beq.w 12ee __s1toa_+0x6
    1030:	0ca8 deca 11ed 	cmpi.l #-557182483,24(a0)
    1036:	0018 
    1038:	6700 0356      	beq.w 1390 __aio_writecomma+0x42
    103c:	33fc 0002 0000 	move.w #2,18 ___DARRAY_T_REDIM
    1042:	0018 
			1040: RELOC32	.bss
    1044:	45f9 0000 04de 	lea 4de __autil_create_port,a2
			1046: RELOC32	.text
    104a:	93c9           	suba.l a1,a1
    104c:	2c79 0000 0000 	movea.l 0 _start,a6
			104e: RELOC32	.bss
    1052:	4eae feda      	jsr -294(a6)
    1056:	23c0 0000 0014 	move.l d0,14 __aqb_read1+0x4
			1058: RELOC32	.bss
    105c:	4eae ff7c      	jsr -132(a6)
    1060:	2079 0000 0014 	movea.l 14 __aqb_read1+0x4,a0
			1062: RELOC32	.bss
    1066:	42a8 0026      	clr.l 38(a0)
    106a:	217c 0000 0d90 	move.l #3472,42(a0)
    1070:	002a 
			106c: RELOC32	.text
    1072:	7000           	moveq #0,d0
    1074:	223c 0000 1000 	move.l #4096,d1
    107a:	4eae fece      	jsr -306(a6)
    107e:	223c 0000 1000 	move.l #4096,d1
    1084:	2001           	move.l d1,d0
    1086:	4eae fec8      	jsr -312(a6)
    108a:	4eae ff76      	jsr -138(a6)
    108e:	42a7           	clr.l -(sp)
    1090:	42a7           	clr.l -(sp)
    1092:	4e92           	jsr (a2)
    1094:	23c0 0000 0028 	move.l d0,28 __debug_putc+0x8
			1096: RELOC32	.bss
    109a:	508f           	addq.l #8,sp
    109c:	6700 01da      	beq.w 1278 __aio_writes+0x110
    10a0:	2c79 0000 0000 	movea.l 0 _start,a6
			10a2: RELOC32	.bss
    10a6:	7016           	moveq #22,d0
    10a8:	223c 0001 0001 	move.l #65537,d1
    10ae:	4eae           	.short 0x4eae

000010b0 __aio_writebool:
    10b0:	ff3a           	.short 0xff3a
    10b2:	23c0 0000 002c 	move.l d0,2c ___umodsi3+0x2
			10b4: RELOC32	.bss
    10b8:	6700 00c8      	beq.w 1182 __aio_writes+0x1a
    10bc:	4878 0030      	pea 30 ___umodsi4
    10c0:	2f39 0000 0028 	move.l 28 __debug_putc+0x8,-(sp)
			10c2: RELOC32	.bss
    10c6:	4eb9 0000 05aa 	jsr 5aa __autil_create_ext_io
			10c8: RELOC32	.text
    10cc:	23c0 0000 0024 	move.l d0,24 __debug_putc+0x4
			10ce: RELOC32	.bss
    10d2:	508f           	addq.l #8,sp
    10d4:	6700 00e4      	beq.w 11ba __aio_writes+0x52
    10d8:	2240           	movea.l d0,a1
    10da:	2c79 0000 0000 	movea.l 0 _start,a6
			10dc: RELOC32	.bss
    10e0:	7200           	moveq #0,d1
    10e2:	2001           	move.l d1,d0
    10e4:	41fa fe67      	lea f4d __aio_writeu1+0xd(pc),a0
    10e8:	4eae fe44      	jsr -444(a6)
    10ec:	4a00           	tst.b d0
    10ee:	671e           	beq.s 110e __aio_writebool+0x5e
    10f0:	4ab9 0000 0004 	tst.l 4 _start+0x4
			10f2: RELOC32	.bss
    10f6:	670a           	beq.s 1102 __aio_writebool+0x52
    10f8:	487a fe60      	pea f5a __aio_writeu1+0x1a(pc)
    10fc:	4eba efce      	jsr cc __debug_puts(pc)
    1100:	588f           	addq.l #4,sp
    1102:	4878 0014      	pea 14 __aqb_read1+0x4
    1106:	4eb9 0000 0086 	jsr 86 __autil_exit
			1108: RELOC32	.text
    110c:	588f           	addq.l #4,sp
    110e:	33fc 0001 0000 	move.w #1,30 ___umodsi4
    1114:	0030 
			1112: RELOC32	.bss
    1116:	2079 0000 002c 	movea.l 2c ___umodsi3+0x2,a0
			1118: RELOC32	.bss
    111c:	217c 0000 0b04 	move.l #2820,18(a0)
    1122:	0012 
			111e: RELOC32	.text
    1124:	2179 0000 0014 	move.l 14 __aqb_read1+0x4,14(a0)
    112a:	000e 
			1126: RELOC32	.bss
    112c:	117c 0064 0009 	move.b #100,9(a0)
    1132:	2179 0000 0000 	move.l 0 _start,10(a0)
    1138:	000a 
			1134: RELOC32	.data
    113a:	2279 0000 0024 	movea.l 24 __debug_putc+0x4,a1
			113c: RELOC32	.bss
    1140:	2348 0028      	move.l a0,40(a1)
    1144:	337c 0009 001c 	move.w #9,28(a1)
    114a:	2c79 0000 0000 	movea.l 0 _start,a6
			114c: RELOC32	.bss
    1150:	4eae           	.short 0x4eae

00001152 _deadKeyConvert:
    1152:	fe38           	.short 0xfe38
    1154:	33fc 0001 0000 	move.w #1,32 ___umodsi4+0x2
    115a:	0032 
			1158: RELOC32	.bss
    115c:	4eb9 0000 267c 	jsr 267c __astr_init
			115e: RELOC32	.text
    1162:	4eb9 0000 0d9a 	jsr d9a __amath_init
			1164: RELOC32	.text

00001168 __aio_writes:
    1168:	4eb9 0000 219e 	jsr 219e __aio_init
			116a: RELOC32	.text
    116e:	33fc 0001 0000 	move.w #1,22 __debug_putc+0x2
    1174:	0022 
			1172: RELOC32	.bss
    1176:	246d fff8      	movea.l -8(a5),a2
    117a:	2c6d fffc      	movea.l -4(a5),a6
    117e:	4e5d           	unlk a5
    1180:	4e75           	rts
    1182:	4ab9 0000 0004 	tst.l 4 _start+0x4
			1184: RELOC32	.bss
    1188:	670a           	beq.s 1194 __aio_writes+0x2c
    118a:	487a fd5d      	pea ee9 __asound_shutdown+0x29(pc)
    118e:	4eba ef3c      	jsr cc __debug_puts(pc)
    1192:	588f           	addq.l #4,sp
    1194:	4878 0014      	pea 14 __aqb_read1+0x4
    1198:	4eb9 0000 0086 	jsr 86 __autil_exit
			119a: RELOC32	.text
    119e:	7030           	moveq #48,d0
    11a0:	2e80           	move.l d0,(sp)
    11a2:	2f39 0000 0028 	move.l 28 __debug_putc+0x8,-(sp)
			11a4: RELOC32	.bss
    11a8:	4eb9 0000 05aa 	jsr 5aa __autil_create_ext_io
			11aa: RELOC32	.text
    11ae:	23c0 0000 0024 	move.l d0,24 __debug_putc+0x4
			11b0: RELOC32	.bss
    11b4:	508f           	addq.l #8,sp
    11b6:	6600 ff20      	bne.w 10d8 __aio_writebool+0x28
    11ba:	4ab9 0000 0004 	tst.l 4 _start+0x4
			11bc: RELOC32	.bss
    11c0:	670a           	beq.s 11cc __aio_writes+0x64
    11c2:	487a fd5b      	pea f1f __asound_shutdown+0x5f(pc)
    11c6:	4eba ef04      	jsr cc __debug_puts(pc)
    11ca:	588f           	addq.l #4,sp
    11cc:	4878 0014      	pea 14 __aqb_read1+0x4
    11d0:	4eb9 0000 0086 	jsr 86 __autil_exit
			11d2: RELOC32	.text
    11d6:	2279 0000 0024 	movea.l 24 __debug_putc+0x4,a1
			11d8: RELOC32	.bss
    11dc:	588f           	addq.l #4,sp
    11de:	6000 fefa      	bra.w 10da __aio_writebool+0x2a
    11e2:	4ab9 0000 0004 	tst.l 4 _start+0x4
			11e4: RELOC32	.bss
    11e8:	670a           	beq.s 11f4 __aio_writes+0x8c
    11ea:	487a fbca      	pea db6 __amath_init+0x1c(pc)
    11ee:	4eba eedc      	jsr cc __debug_puts(pc)
    11f2:	588f           	addq.l #4,sp
    11f4:	4878 0014      	pea 14 __aqb_read1+0x4
    11f8:	4eb9 0000 0086 	jsr 86 __autil_exit
			11fa: RELOC32	.text
    11fe:	588f           	addq.l #4,sp
    1200:	2c79 0000 0000 	movea.l 0 _start,a6
			1202: RELOC32	.bss
    1206:	7025           	moveq #37,d0
    1208:	43fa fbd8      	lea de2 __aio_writeu4+0x16(pc),a1
    120c:	4eae fdd8      	jsr -552(a6)
    1210:	23c0 0000 000c 	move.l d0,c _SCREEN
			1212: RELOC32	.bss
    1216:	6600 fdcc      	bne.w fe4 __cstartup+0x60
    121a:	6022           	bra.s 123e __aio_writes+0xd6
    121c:	4ab9 0000 0004 	tst.l 4 _start+0x4
			121e: RELOC32	.bss
    1222:	670a           	beq.s 122e __aio_writes+0xc6
    1224:	487a fc0c      	pea e32 __aio_writeu4+0x66(pc)
    1228:	4eba eea2      	jsr cc __debug_puts(pc)
    122c:	588f           	addq.l #4,sp
    122e:	4878 0014      	pea 14 __aqb_read1+0x4
    1232:	4eb9 0000 0086 	jsr 86 __autil_exit
			1234: RELOC32	.text
    1238:	588f           	addq.l #4,sp
    123a:	6000 fdbc      	bra.w ff8 __cstartup+0x74
    123e:	4ab9 0000 0004 	tst.l 4 _start+0x4
			1240: RELOC32	.bss
    1244:	670a           	beq.s 1250 __aio_writes+0xe8
    1246:	487a fbac      	pea df4 __aio_writeu4+0x28(pc)
    124a:	4eba ee80      	jsr cc __debug_puts(pc)
    124e:	588f           	addq.l #4,sp
    1250:	4878 0014      	pea 14 __aqb_read1+0x4
    1254:	4eb9 0000 0086 	jsr 86 __autil_exit
			1256: RELOC32	.text
    125a:	588f           	addq.l #4,sp
    125c:	2c79 0000 0000 	movea.l 0 _start,a6
			125e: RELOC32	.bss
    1262:	7025           	moveq #37,d0
    1264:	43fa fbbc      	lea e22 __aio_writeu4+0x56(pc),a1
    1268:	4eae fdd8      	jsr -552(a6)
    126c:	23c0 0000 0010 	move.l d0,10 __aqb_read1
			126e: RELOC32	.bss
    1272:	6600 fd84      	bne.w ff8 __cstartup+0x74
    1276:	60a4           	bra.s 121c __aio_writes+0xb4
    1278:	4ab9 0000 0004 	tst.l 4 _start+0x4
			127a: RELOC32	.bss
    127e:	670a           	beq.s 128a __aio_writes+0x122
    1280:	487a fc2d      	pea eaf __aio_writeu2+0x2b(pc)
    1284:	4eba ee46      	jsr cc __debug_puts(pc)
    1288:	588f           	addq.l #4,sp
    128a:	4878 0014      	pea 14 __aqb_read1+0x4
    128e:	4eb9 0000 0086 	jsr 86 __autil_exit
			1290: RELOC32	.text
    1294:	588f           	addq.l #4,sp
    1296:	2c79 0000 0000 	movea.l 0 _start,a6
			1298: RELOC32	.bss
    129c:	7016           	moveq #22,d0
    129e:	223c 0001 0001 	move.l #65537,d1
    12a4:	4eae ff3a      	jsr -198(a6)

000012a8 __astr_ftoa:
    12a8:	23c0 0000 002c 	move.l d0,2c ___umodsi3+0x2
			12aa: RELOC32	.bss
    12ae:	6600 fe0c      	bne.w 10bc __aio_writebool+0xc
    12b2:	6000 fece      	bra.w 1182 __aio_writes+0x1a
    12b6:	4ab9 0000 0004 	tst.l 4 _start+0x4
			12b8: RELOC32	.bss
    12bc:	670a           	beq.s 12c8 __astr_strchr+0x4
    12be:	487a fb9e      	pea e5e __aio_writeu4+0x92(pc)
    12c2:	4eba           	.short 0x4eba

000012c4 __astr_strchr:
    12c4:	ee08           	lsr.b #7,d0
    12c6:	588f           	addq.l #4,sp
    12c8:	4878 0014      	pea 14 __aqb_read1+0x4
    12cc:	4eb9 0000 0086 	jsr 86 __autil_exit
			12ce: RELOC32	.text
    12d2:	588f           	addq.l #4,sp
    12d4:	4eb9 0000 0680 	jsr 680 __autil_init
			12d6: RELOC32	.text
    12da:	33fc 0001 0000 	move.w #1,20 __debug_putc
    12e0:	0020 
			12de: RELOC32	.bss
    12e2:	2079 0000 0004 	movea.l 4 _start+0x4,a0
			12e4: RELOC32	.data

000012e8 __s1toa_:
    12e8:	2008           	move.l a0,d0
    12ea:	6600 fd44      	bne.w 1030 __aio_writef+0x34
    12ee:	33fc 0001 0000 	move.w #1,18 ___DARRAY_T_REDIM
    12f4:	0018 
			12f2: RELOC32	.bss
    12f6:	45f9 0000 04de 	lea 4de __autil_create_port,a2
			12f8: RELOC32	.text
    12fc:	93c9           	suba.l a1,a1
    12fe:	2c79 0000 0000 	movea.l 0 _start,a6
			1300: RELOC32	.bss
    1304:	4eae feda      	jsr -294(a6)
    1308:	23c0 0000 0014 	move.l d0,14 __aqb_read1+0x4
			130a: RELOC32	.bss
    130e:	4eae ff7c      	jsr -132(a6)
    1312:	2079 0000 0014 	movea.l 14 __aqb_read1+0x4,a0
			1314: RELOC32	.bss
    1318:	42a8 0026      	clr.l 38(a0)
    131c:	217c 0000 0d90 	move.l #3472,42(a0)
    1322:	002a 
			131e: RELOC32	.text
    1324:	7000           	moveq #0,d0
    1326:	223c 0000 1000 	move.l #4096,d1
    132c:	4eae fece      	jsr -306(a6)
    1330:	223c 0000 1000 	move.l #4096,d1
    1336:	2001           	move.l d1,d0
    1338:	4eae fec8      	jsr -312(a6)
    133c:	4eae ff76      	jsr -138(a6)
    1340:	42a7           	clr.l -(sp)
    1342:	42a7           	clr.l -(sp)
    1344:	4e92           	jsr (a2)
    1346:	23c0 0000 0028 	move.l d0,28 __debug_putc+0x8
			1348: RELOC32	.bss
    134c:	508f           	addq.l #8,sp

0000134e __aio_writecomma:
    134e:	6600 fd50      	bne.w 10a0 __aio_writef+0xa4
    1352:	6000 ff24      	bra.w 1278 __aio_writes+0x110
    1356:	4878 0014      	pea 14 __aqb_read1+0x4
    135a:	4eb9 0000 0086 	jsr 86 __autil_exit
			135c: RELOC32	.text
    1360:	2c79 0000 0004 	movea.l 4 _start+0x4,a6
			1362: RELOC32	.bss
    1366:	588f           	addq.l #4,sp
    1368:	4eae ffc4      	jsr -60(a6)
    136c:	23c0 0000 0034 	move.l d0,34 ___umodsi4+0x4
			136e: RELOC32	.bss
    1372:	2c79 0000 0000 	movea.l 0 _start,a6
			1374: RELOC32	.bss
    1378:	7025           	moveq #37,d0
    137a:	43fa fa2a      	lea da6 __amath_init+0xc(pc),a1
    137e:	4eae fdd8      	jsr -552(a6)
    1382:	23c0 0000 0008 	move.l d0,8 ___mulsi4+0x2
			1384: RELOC32	.bss
    1388:	6600 fc46      	bne.w fd0 __cstartup+0x4c
    138c:	6000 fe54      	bra.w 11e2 __aio_writes+0x7a
    1390:	33fc 0003 0000 	move.w #3,18 ___DARRAY_T_REDIM
    1396:	0018 
			1394: RELOC32	.bss
    1398:	42a7           	clr.l -(sp)
    139a:	42a7           	clr.l -(sp)
    139c:	45f9 0000 04de 	lea 4de __autil_create_port,a2
			139e: RELOC32	.text
    13a2:	4e92           	jsr (a2)
    13a4:	23c0 0000 0060 	move.l d0,60 __aqb_read2+0x20
			13a6: RELOC32	.bss
    13aa:	508f           	addq.l #8,sp
    13ac:	6600 fc9c      	bne.w 104a __aio_writef+0x4e
    13b0:	4ab9 0000 0004 	tst.l 4 _start+0x4
			13b2: RELOC32	.bss
    13b6:	670a           	beq.s 13c2 __aio_writecomma+0x74
    13b8:	487a faca      	pea e84 __aio_writeu2(pc)
    13bc:	4eba ed0e      	jsr cc __debug_puts(pc)
    13c0:	588f           	addq.l #4,sp
    13c2:	4878 0014      	pea 14 __aqb_read1+0x4
    13c6:	4eb9 0000 0086 	jsr 86 __autil_exit
			13c8: RELOC32	.text
    13cc:	588f           	addq.l #4,sp
    13ce:	93c9           	suba.l a1,a1
    13d0:	2c79 0000 0000 	movea.l 0 _start,a6
			13d2: RELOC32	.bss
    13d6:	4eae feda      	jsr -294(a6)
    13da:	23c0 0000 0014 	move.l d0,14 __aqb_read1+0x4
			13dc: RELOC32	.bss
    13e0:	4eae ff7c      	jsr -132(a6)
    13e4:	2079 0000 0014 	movea.l 14 __aqb_read1+0x4,a0
			13e6: RELOC32	.bss
    13ea:	42a8 0026      	clr.l 38(a0)
    13ee:	217c 0000 0d90 	move.l #3472,42(a0)
    13f4:	002a 
			13f0: RELOC32	.text
    13f6:	7000           	moveq #0,d0
    13f8:	223c 0000 1000 	move.l #4096,d1
    13fe:	4eae fece      	jsr -306(a6)
    1402:	223c 0000 1000 	move.l #4096,d1
    1408:	2001           	move.l d1,d0
    140a:	4eae           	.short 0x4eae

0000140c __s2toa_:
    140c:	fec8           	.short 0xfec8
    140e:	4eae ff76      	jsr -138(a6)
    1412:	42a7           	clr.l -(sp)
    1414:	42a7           	clr.l -(sp)
    1416:	4e92           	jsr (a2)
    1418:	23c0 0000 0028 	move.l d0,28 __debug_putc+0x8
			141a: RELOC32	.bss
    141e:	508f           	addq.l #8,sp
    1420:	6600 fc7e      	bne.w 10a0 __aio_writef+0xa4
    1424:	6000 fe52      	bra.w 1278 __aio_writes+0x110

00001428 ___brt_init:
    1428:	4e75           	rts
	...

Disassembly of section .text:

00000000 _start:
       0:	4e55 0000      	link.w a5,#0
       4:	48e7           	Address 0x0000000000000006 is out of bounds.
.short 0x48e7

00000006 ___mulsi4:
       6:	3f3a 2a2d      	move.w 2a35 _PAINT+0x9b(pc),-(sp)
       a:	0008           	Address 0x000000000000000c is out of bounds.
.short 0x0008

0000000c _SCREEN:
       c:	262d 0010      	move.l 16(a5),d3

00000010 __aqb_read1:
      10:	3c2d 0016      	move.w 22(a5),d6
      14:	4a85           	tst.l d5
      16:	6626           	bne.s 3e _foo

00000018 ___DARRAY_T_REDIM:
      18:	4a46           	tst.w d6
      1a:	6700           	.short 0x6700

0000001c __atimer_shutdown:
      1c:	00e4           	.short 0x00e4
      1e:	206d           	.short 0x206d

00000020 __debug_putc:
      20:	000c           	.short 0x000c
      22:	10bc 0020      	move.b #32,(a0)
      26:	7002           	moveq #2,d0
      28:	7201           	moveq #1,d1

0000002a ___umodsi3:
      2a:	11bc 0030 1800 	move.b #48,(0,a0,d1.l)

00000030 ___umodsi4:
      30:	4230 0800      	clr.b (0,a0,d0.l)
      34:	4ced           	Address 0x0000000000000036 is out of bounds.
.short 0x4ced

00000036 __aqb_clear:
      36:	5cfc           	trapge
      38:	ffd8           	.short 0xffd8
      3a:	4e5d           	unlk a5

0000003c ___udivsi4:
      3c:	4e75           	rts

0000003e _foo:
      3e:	4a85           	tst.l d5

00000040 __aqb_read2:
      40:	6d00 00d2      	blt.w 114 __aio_putnl+0xa
      44:	286d 000c      	movea.l 12(a5),a4
      48:	4247           	clr.w d7
      4a:	264c           	movea.l a4,a3
      4c:	7400           	moveq #0,d2
      4e:	45f9 0000 0082 	lea 82 ___modsi3,a2
			50: RELOC32	.text
      54:	4df9 0000 008e 	lea 8e ___divsi3,a6
			56: RELOC32	.text
      5a:	2f03           	move.l d3,-(sp)
      5c:	2f05           	move.l d5,-(sp)
      5e:	4e92           	jsr (a2)
      60:	7801           	moveq #1,d4
      62:	508f           	addq.l #8,sp
      64:	d882           	add.l d2,d4
      66:	7209           	moveq #9,d1
      68:	b280           	cmp.l d0,d1
      6a:	6c26           	bge.s 92 ___divsi3+0x4
      6c:	0600           	Address 0x000000000000006e is out of bounds.
.short 0x0600

0000006e __aqb_read4:
      6e:	0057           	Address 0x0000000000000070 is out of bounds.
.short 0x0057

00000070 _DEALLOCATE:
      70:	18c0           	move.b d0,(a4)+

00000072 __MEMSET:
      72:	2f03           	move.l d3,-(sp)
      74:	2f05           	move.l d5,-(sp)
      76:	4e96           	jsr (a6)

00000078 __atimer_process_signals:
      78:	508f           	addq.l #8,sp
      7a:	2a00           	move.l d0,d5
      7c:	6726           	beq.s a4 __aio_set_dos_cursor_visible+0x4
      7e:	2404           	move.l d4,d2
      80:	2f03           	move.l d3,-(sp)

00000082 ___modsi3:
      82:	2f05           	move.l d5,-(sp)
      84:	4e92           	jsr (a2)

00000086 __autil_exit:
      86:	7801           	moveq #1,d4

00000088 ___modsi4:
      88:	508f           	addq.l #8,sp
      8a:	d882           	add.l d2,d4
      8c:	7209           	moveq #9,d1

0000008e ___divsi3:
      8e:	b280           	cmp.l d0,d1
      90:	6dda           	blt.s 6c __aqb_read2+0x2c
      92:	0600           	Address 0x0000000000000094 is out of bounds.
.short 0x0600

00000094 ___divsi4:
      94:	0030           	.short 0x0030
      96:	18c0           	move.b d0,(a4)+
      98:	2f03           	move.l d3,-(sp)

0000009a _TAGITEMS_:
      9a:	2f05           	move.l d5,-(sp)

0000009c __aqb_assert:
      9c:	4e96           	jsr (a6)
      9e:	508f           	addq.l #8,sp

000000a0 __aio_set_dos_cursor_visible:
      a0:	2a00           	move.l d0,d5
      a2:	66da           	bne.s 7e __atimer_process_signals+0x6
      a4:	4a47           	tst.w d7
      a6:	6742           	beq.s ea _ON_ERROR_CALL
      a8:	7002           	moveq #2,d0
      aa:	206d 000c      	movea.l 12(a5),a0

000000ae _TAGS_:
      ae:	d082           	add.l d2,d0
      b0:	11bc 002d 4800 	move.b #45,(0,a0,d4.l)
      b6:	2248           	movea.l a0,a1
      b8:	d3c0           	adda.l d0,a1

000000ba _SOUND:
      ba:	4211           	clr.b (a1)
      bc:	5380           	subq.l #1,d0
      be:	6700 ff74      	beq.w 34 ___umodsi4+0x4

000000c2 ___pow_s4:
      c2:	7200           	moveq #0,d1
      c4:	1413           	move.b (a3),d2
      c6:	16e9 ffff      	move.b -1(a1),(a3)+
      ca:	1302           	move.b d2,-(a1)

000000cc __debug_puts:
      cc:	5281           	addq.l #1,d1
      ce:	5380           	subq.l #1,d0
      d0:	b081           	cmp.l d1,d0
      d2:	6f00 ff60      	ble.w 34 ___umodsi4+0x4
      d6:	1413           	move.b (a3),d2
      d8:	16e9 ffff      	move.b -1(a1),(a3)+
      dc:	1302           	move.b d2,-(a1)
      de:	5281           	addq.l #1,d1
      e0:	5380           	subq.l #1,d0
      e2:	b081           	cmp.l d1,d0
      e4:	6ede           	bgt.s c4 ___pow_s4+0x2
      e6:	6000 ff4c      	bra.w 34 ___umodsi4+0x4

000000ea _ON_ERROR_CALL:
      ea:	4a46           	tst.w d6
      ec:	674a           	beq.s 138 _SCREEN_CLOSE
      ee:	7002           	moveq #2,d0
      f0:	206d 000c      	movea.l 12(a5),a0
      f4:	d082           	add.l d2,d0
      f6:	11bc 0020 4800 	move.b #32,(0,a0,d4.l)
      fc:	2248           	movea.l a0,a1
      fe:	60b8           	bra.s b8 _TAGS_+0xa
     100:	206d 000c      	movea.l 12(a5),a0

00000104 ___pow_u4:
     104:	7001           	moveq #1,d0
     106:	11bc           	.short 0x11bc
     108:	0030           	Address 0x000000000000010a is out of bounds.
.short 0x0030

0000010a __aio_putnl:
     10a:	5800           	addq.b #4,d0
     10c:	4230 0800      	clr.b (0,a0,d0.l)
     110:	6000 ff22      	bra.w 34 ___umodsi4+0x4
     114:	700a           	moveq #10,d0
     116:	b083           	cmp.l d3,d0
     118:	6600 ff2a      	bne.w 44 __aqb_read2+0x4
     11c:	4485           	neg.l d5

0000011e _ERROR:
     11e:	286d 000c      	movea.l 12(a5),a4
     122:	7e01           	moveq #1,d7
     124:	264c           	movea.l a4,a3
     126:	7400           	moveq #0,d2
     128:	45f9 0000 0082 	lea 82 ___modsi3,a2
			12a: RELOC32	.text
     12e:	4df9 0000 008e 	lea 8e ___divsi3,a6
			130: RELOC32	.text
     134:	6000 ff24      	bra.w 5a __aqb_read2+0x1a

00000138 _SCREEN_CLOSE:
     138:	2004           	move.l d4,d0
     13a:	226d 000c      	movea.l 12(a5),a1

0000013e ___aqb_init:
     13e:	6000 ff78      	bra.w b8 _TAGS_+0xa

00000142 __astr_itoa:
     142:	4e55 0000      	link.w a5,#0

00000146 ___pow_s2:
     146:	48e7 3f3a      	movem.l d2-d7/a2-a4/a6,-(sp)
     14a:	262d 0008      	move.l 8(a5),d3
     14e:	286d 000c      	movea.l 12(a5),a4
     152:	2a2d 0010      	move.l 16(a5),d5
     156:	4a83           	tst.l d3
     158:	6614           	bne.s 16e ___pow_s2+0x28
     15a:	18fc 0020      	move.b #32,(a4)+
     15e:	18fc 0030      	move.b #48,(a4)+
     162:	1883           	move.b d3,(a4)
     164:	4ced 5cfc ffd8 	movem.l -40(a5),d2-d7/a2-a4/a6
     16a:	4e5d           	unlk a5
     16c:	4e75           	rts
     16e:	4a83           	tst.l d3
     170:	6d00           	.short 0x6d00

00000172 ___pow_u2:
     172:	00b6 4247 244c 	ori.l #1111958604,(76,a6,d2.w*8)
     178:	264c 
     17a:	7800           	moveq #0,d4
     17c:	2c3c 0000 0082 	move.l #130,d6
			17e: RELOC32	.text
     182:	4df9 0000 008e 	lea 8e ___divsi3,a6
			184: RELOC32	.text
     188:	2f05           	move.l d5,-(sp)
     18a:	2f03           	move.l d3,-(sp)

0000018c __debug_puts1:
     18c:	2046           	movea.l d6,a0
     18e:	4e90           	jsr (a0)
     190:	7401           	moveq #1,d2
     192:	508f           	addq.l #8,sp
     194:	d484           	add.l d4,d2
     196:	7209           	moveq #9,d1

00000198 _WINDOW:
     198:	b280           	cmp.l d0,d1
     19a:	6c28           	bge.s 1c4 _TIMER_
     19c:	0600           	Address 0x000000000000019e is out of bounds.
.short 0x0600

0000019e ___pow_s1:
     19e:	0057 16c0      	ori.w #5824,(sp)
     1a2:	2f05           	move.l d5,-(sp)
     1a4:	2f03           	move.l d3,-(sp)
     1a6:	4e96           	jsr (a6)
     1a8:	508f           	addq.l #8,sp
     1aa:	2600           	move.l d0,d3
     1ac:	6728           	beq.s 1d6 ___mul_s1+0xc
     1ae:	2802           	move.l d2,d4
     1b0:	2f05           	move.l d5,-(sp)
     1b2:	2f03           	move.l d3,-(sp)
     1b4:	2046           	movea.l d6,a0
     1b6:	4e90           	jsr (a0)
     1b8:	7401           	moveq #1,d2

000001ba _RESUME_NEXT:
     1ba:	508f           	addq.l #8,sp

000001bc __aio_puttab:
     1bc:	d484           	add.l d4,d2
     1be:	7209           	moveq #9,d1
     1c0:	b280           	cmp.l d0,d1
     1c2:	6dd8           	blt.s 19c _WINDOW+0x4

000001c4 _TIMER_:
     1c4:	0600 0030      	addi.b #48,d0
     1c8:	16c0           	move.b d0,(a3)+

000001ca ___mul_s1:
     1ca:	2f05           	move.l d5,-(sp)
     1cc:	2f03           	move.l d3,-(sp)
     1ce:	4e96           	jsr (a6)
     1d0:	508f           	addq.l #8,sp
     1d2:	2600           	move.l d0,d3
     1d4:	66d8           	bne.s 1ae ___pow_s1+0x10
     1d6:	5484           	addq.l #2,d4
     1d8:	4a47           	tst.w d7

000001da ___div_s1:
     1da:	6738           	beq.s 214 ___mod_s1+0x1a
     1dc:	19bc 002d 2800 	move.b #45,(0,a4,d2.l)
     1e2:	4234 4800      	clr.b (0,a4,d4.l)
     1e6:	41f4           	.short 0x41f4

000001e8 ___DARRAY_T_LBOUND_:
     1e8:	2801           	move.l d1,d4
     1ea:	2002           	move.l d2,d0
     1ec:	7200           	moveq #0,d1
     1ee:	1412           	move.b (a2),d2
     1f0:	14e8 ffff      	move.b -1(a0),(a2)+
     1f4:	1102           	move.b d2,-(a0)
     1f6:	5281           	addq.l #1,d1
     1f8:	5380           	subq.l #1,d0

000001fa ___mod_s1:
     1fa:	b081           	cmp.l d1,d0
     1fc:	6f00 ff66      	ble.w 164 ___pow_s2+0x1e
     200:	1412           	move.b (a2),d2
     202:	14e8 ffff      	move.b -1(a0),(a2)+
     206:	1102           	move.b d2,-(a0)
     208:	5281           	addq.l #1,d1
     20a:	5380           	subq.l #1,d0
     20c:	b081           	cmp.l d1,d0
     20e:	6ede           	bgt.s 1ee ___DARRAY_T_LBOUND_+0x6
     210:	6000 ff52      	bra.w 164 ___pow_s2+0x1e
     214:	19bc           	.short 0x19bc
     216:	0020           	Address 0x0000000000000218 is out of bounds.
.short 0x0020

00000218 _DATE_:
     218:	2800           	move.l d0,d4

0000021a ___pow_u1:
     21a:	4234 4800      	clr.b (0,a4,d4.l)
     21e:	41f4 2801      	lea (1,a4,d2.l),a0
     222:	2002           	move.l d2,d0
     224:	7200           	moveq #0,d1
     226:	60c6           	bra.s 1ee ___DARRAY_T_LBOUND_+0x6
     228:	700a           	moveq #10,d0

0000022a ___DARRAY_T_UBOUND_:
     22a:	b085           	cmp.l d5,d0
     22c:	6600 ff46      	bne.w 174 ___pow_u2+0x2
     230:	4483           	neg.l d3
     232:	7e01           	moveq #1,d7
     234:	244c           	movea.l a4,a2
     236:	264c           	movea.l a4,a3
     238:	7800           	moveq #0,d4
     23a:	2c3c 0000 0082 	move.l #130,d6
			23c: RELOC32	.text
     240:	4df9 0000 008e 	lea 8e ___divsi3,a6
			242: RELOC32	.text

00000246 ___mul_u1:
     246:	6000 ff40      	bra.w 188 ___pow_u2+0x16

0000024a __astr_utoa_ext:
     24a:	4e55 0000      	link.w a5,#0
     24e:	48e7 3f3a      	movem.l d2-d7/a2-a4/a6,-(sp)
     252:	262d 0008      	move.l 8(a5),d3

00000256 ___div_u1:
     256:	2c2d 000c      	move.l 12(a5),d6
     25a:	282d 0010      	move.l 16(a5),d4
     25e:	3e2d 0016      	move.w 22(a5),d7
     262:	4a83           	tst.l d3
     264:	6700 0096      	beq.w 2fc ___DARRAY_T_CLEAR+0x14
     268:	2646           	movea.l d6,a3

0000026a __debug_puts2:
     26a:	2846           	movea.l d6,a4

0000026c __aio_puts4:
     26c:	7a00           	moveq #0,d5
     26e:	45f9           	.short 0x45f9
	...
			270: RELOC32	.text

00000272 ___mod_u1:
     272:	002a           	Address 0x0000000000000274 is out of bounds.
.short 0x002a

00000274 ___DARRAY_T_COPY:
     274:	4df9 0000 0036 	lea 36 __aqb_clear,a6
			276: RELOC32	.text
     27a:	2f04           	move.l d4,-(sp)
     27c:	2f03           	move.l d3,-(sp)
     27e:	4e92           	jsr (a2)
     280:	7401           	moveq #1,d2
     282:	508f           	addq.l #8,sp
     284:	d485           	add.l d5,d2
     286:	7209           	moveq #9,d1
     288:	b280           	cmp.l d0,d1
     28a:	6c26           	bge.s 2b2 ___aqb_mod+0x20
     28c:	0600 0057      	addi.b #87,d0
     290:	18c0           	move.b d0,(a4)+

00000292 ___aqb_mod:
     292:	2f04           	move.l d4,-(sp)
     294:	2f03           	move.l d3,-(sp)
     296:	4e96           	jsr (a6)
     298:	508f           	addq.l #8,sp
     29a:	2600           	move.l d0,d3
     29c:	6726           	beq.s 2c4 ___DARRAY_T_ERASE+0x6
     29e:	2a02           	move.l d2,d5
     2a0:	2f04           	move.l d4,-(sp)
     2a2:	2f03           	move.l d3,-(sp)
     2a4:	4e92           	jsr (a2)
     2a6:	7401           	moveq #1,d2
     2a8:	508f           	addq.l #8,sp
     2aa:	d485           	add.l d5,d2
     2ac:	7209           	moveq #9,d1
     2ae:	b280           	cmp.l d0,d1
     2b0:	6dda           	blt.s 28c ___DARRAY_T_COPY+0x18
     2b2:	0600 0030      	addi.b #48,d0
     2b6:	18c0           	move.b d0,(a4)+
     2b8:	2f04           	move.l d4,-(sp)
     2ba:	2f03           	move.l d3,-(sp)
     2bc:	4e96           	jsr (a6)

000002be ___DARRAY_T_ERASE:
     2be:	508f           	addq.l #8,sp
     2c0:	2600           	move.l d0,d3
     2c2:	66da           	bne.s 29e ___aqb_mod+0xc
     2c4:	4a47           	tst.w d7
     2c6:	670c           	beq.s 2d4 ___DARRAY_T_ERASE+0x16
     2c8:	2046           	movea.l d6,a0
     2ca:	11bc 0020 2800 	move.b #32,(0,a0,d2.l)
     2d0:	7402           	moveq #2,d2
     2d2:	d485           	add.l d5,d2
     2d4:	2046           	movea.l d6,a0
     2d6:	d1c2           	adda.l d2,a0
     2d8:	4210           	clr.b (a0)
     2da:	70ff           	moveq #-1,d0
     2dc:	d082           	add.l d2,d0
     2de:	6712           	beq.s 2f2 ___DARRAY_T_CLEAR+0xa
     2e0:	7200           	moveq #0,d1
     2e2:	1413           	move.b (a3),d2
     2e4:	16e8 ffff      	move.b -1(a0),(a3)+

000002e8 ___DARRAY_T_CLEAR:
     2e8:	1102           	move.b d2,-(a0)
     2ea:	5281           	addq.l #1,d1
     2ec:	5380           	subq.l #1,d0
     2ee:	b081           	cmp.l d1,d0
     2f0:	6ef0           	bgt.s 2e2 ___DARRAY_T_ERASE+0x24
     2f2:	4ced 5cfc ffd8 	movem.l -40(a5),d2-d7/a2-a4/a6
     2f8:	4e5d           	unlk a5
     2fa:	4e75           	rts
     2fc:	4a47           	tst.w d7
     2fe:	6720           	beq.s 320 ___DARRAY_T_CLEAR+0x38
     300:	2046           	movea.l d6,a0
     302:	10bc 0020      	move.b #32,(a0)
     306:	7002           	moveq #2,d0
     308:	2046           	movea.l d6,a0
     30a:	7201           	moveq #1,d1
     30c:	11bc 0030 1800 	move.b #48,(0,a0,d1.l)
     312:	4230 0800      	clr.b (0,a0,d0.l)
     316:	4ced 5cfc ffd8 	movem.l -40(a5),d2-d7/a2-a4/a6
     31c:	4e5d           	unlk a5
     31e:	4e75           	rts
     320:	2046           	movea.l d6,a0

00000322 __aio_puts2:
     322:	7001           	moveq #1,d0
     324:	11bc 0030 3800 	move.b #48,(0,a0,d3.l)
     32a:	4230 0800      	clr.b (0,a0,d0.l)
     32e:	60e6           	bra.s 316 ___DARRAY_T_CLEAR+0x2e

00000330 __astr_utoa:
     330:	4e55 0000      	link.w a5,#0
     334:	48e7 3e3a      	movem.l d2-d6/a2-a4/a6,-(sp)
     338:	242d 0008      	move.l 8(a5),d2
     33c:	266d 000c      	movea.l 12(a5),a3

00000340 _ON_TIMER_CALL:
     340:	282d 0010      	move.l 16(a5),d4

00000344 __debug_puts4:
     344:	4a82           	tst.l d2
     346:	6614           	bne.s 35c _fix_
     348:	16fc 0020      	move.b #32,(a3)+
     34c:	16fc 0030      	move.b #48,(a3)+
     350:	1682           	move.b d2,(a3)
     352:	4ced 5c7c ffdc 	movem.l -36(a5),d2-d6/a2-a4/a6
     358:	4e5d           	unlk a5
     35a:	4e75           	rts

0000035c _fix_:
     35c:	284b           	movea.l a3,a4
     35e:	7a00           	moveq #0,d5
     360:	2c3c           	.short 0x2c3c
	...
			362: RELOC32	.text

00000364 _SLEEP_FOR:
     364:	002a 4df9 0000 	ori.b #-7,0(a2)
			368: RELOC32	.text
     36a:	0036 2f04 2f02 	ori.b #4,([0,a6,d2.l*8],8262)
     370:	2046 
     372:	4e90           	jsr (a0)
     374:	7601           	moveq #1,d3

00000376 _int_:
     376:	508f           	addq.l #8,sp
     378:	d685           	add.l d5,d3
     37a:	7209           	moveq #9,d1
     37c:	b280           	cmp.l d0,d1
     37e:	6c28           	bge.s 3a8 _SYSTEM+0x4
     380:	0600 0057      	addi.b #87,d0
     384:	18c0           	move.b d0,(a4)+
     386:	2f04           	move.l d4,-(sp)
     388:	2f02           	move.l d2,-(sp)
     38a:	4e96           	jsr (a6)
     38c:	508f           	addq.l #8,sp
     38e:	2400           	move.l d0,d2
     390:	6728           	beq.s 3ba _FRE_+0x4
     392:	2a03           	move.l d3,d5

00000394 _cint_:
     394:	2f04           	move.l d4,-(sp)
     396:	2f02           	move.l d2,-(sp)
     398:	2046           	movea.l d6,a0
     39a:	4e90           	jsr (a0)
     39c:	7601           	moveq #1,d3
     39e:	508f           	addq.l #8,sp
     3a0:	d685           	add.l d5,d3
     3a2:	7209           	moveq #9,d1

000003a4 _SYSTEM:
     3a4:	b280           	cmp.l d0,d1
     3a6:	6dd8           	blt.s 380 _int_+0xa
     3a8:	0600 0030      	addi.b #48,d0
     3ac:	18c0           	move.b d0,(a4)+
     3ae:	2f04           	move.l d4,-(sp)
     3b0:	2f02           	move.l d2,-(sp)
     3b2:	4e96           	jsr (a6)
     3b4:	508f           	addq.l #8,sp

000003b6 _FRE_:
     3b6:	2400           	move.l d0,d2
     3b8:	66d8           	bne.s 392 _int_+0x1c
     3ba:	17bc 0020 3800 	move.b #32,(0,a3,d3.l)
     3c0:	4233 5802      	clr.b (2,a3,d5.l)
     3c4:	41f3 3801      	lea (1,a3,d3.l),a0
     3c8:	7000           	moveq #0,d0
     3ca:	1213           	move.b (a3),d1
     3cc:	16e8 ffff      	move.b -1(a0),(a3)+
     3d0:	1101           	move.b d1,-(a0)
     3d2:	5280           	addq.l #1,d0
     3d4:	5383           	subq.l #1,d3
     3d6:	b680           	cmp.l d0,d3
     3d8:	6f00           	.short 0x6f00

000003da __aio_puts1:
     3da:	ff78           	.short 0xff78
     3dc:	1213           	move.b (a3),d1
     3de:	16e8 ffff      	move.b -1(a0),(a3)+
     3e2:	1101           	move.b d1,-(a0)
     3e4:	5280           	addq.l #1,d0
     3e6:	5383           	subq.l #1,d3
     3e8:	b680           	cmp.l d0,d3
     3ea:	6ede           	bgt.s 3ca _FRE_+0x14

000003ec _clng_:
     3ec:	6000 ff64      	bra.w 352 __debug_puts4+0xe

000003f0 _LEN_:
     3f0:	4e55 0000      	link.w a5,#0
     3f4:	206d 0008      	movea.l 8(a5),a0
     3f8:	7000           	moveq #0,d0
     3fa:	1218           	move.b (a0)+,d1
     3fc:	6706           	beq.s 404 _LEN_+0x14
     3fe:	5280           	addq.l #1,d0
     400:	1218           	move.b (a0)+,d1
     402:	66fa           	bne.s 3fe _LEN_+0xe
     404:	4e5d           	unlk a5
     406:	4e75           	rts

00000408 _CHR_:
     408:	4e55 fffc      	link.w a5,#-4
     40c:	48e7           	Address 0x000000000000040e is out of bounds.
.short 0x48e7

0000040e _WINDOW_CLOSE:
     40e:	3002           	move.w d2,d0
     410:	202d 0008      	move.l 8(a5),d0
     414:	1200           	move.b d0,d1
     416:	1b40 fffe      	move.b d0,-2(a5)
     41a:	422d           	.short 0x422d

0000041c __debug_putu1:
     41c:	ffff           	.short 0xffff
     41e:	7000           	moveq #0,d0
     420:	4a01           	tst.b d1
     422:	6708           	beq.s 42c _TIMER_ON+0x2
     424:	5280           	addq.l #1,d0
     426:	1235 08fe      	move.b (-2,a5,d0.l),d1

0000042a _TIMER_ON:
     42a:	66f8           	bne.s 424 __debug_putu1+0x8
     42c:	7401           	moveq #1,d2
     42e:	d480           	add.l d0,d2
     430:	42a7           	clr.l -(sp)
     432:	2f02           	move.l d2,-(sp)
     434:	4eb9 0000 0000 	jsr 0 _start
			436: RELOC32	.text
     43a:	2600           	move.l d0,d3
     43c:	2c79 0000 0000 	movea.l 0 _start,a6
			43e: RELOC32	.bss
     442:	41ed           	.short 0x41ed

00000444 ___aqb_intdiv_single:
     444:	fffe           	.short 0xfffe
     446:	2240           	movea.l d0,a1
     448:	2002           	move.l d2,d0
     44a:	4eae fd90      	jsr -624(a6)
     44e:	2003           	move.l d3,d0
     450:	4ced 400c fff0 	movem.l -16(a5),d2-d3/a6
     456:	4e5d           	unlk a5
     458:	4e75           	rts

0000045a _ASC_:
     45a:	4e55 0000      	link.w a5,#0
     45e:	226d 0008      	movea.l 8(a5),a1
     462:	2009           	move.l a1,d0
     464:	671a           	beq.s 480 _ASC_+0x26
     466:	2049           	movea.l a1,a0
     468:	7000           	moveq #0,d0
     46a:	1218           	move.b (a0)+,d1
     46c:	6706           	beq.s 474 _ASC_+0x1a
     46e:	5280           	addq.l #1,d0
     470:	1218           	move.b (a0)+,d1
     472:	66fa           	bne.s 46e _ASC_+0x14
     474:	4a80           	tst.l d0
     476:	6708           	beq.s 480 _ASC_+0x26
     478:	4240           	clr.w d0
     47a:	1011           	move.b (a1),d0
     47c:	4e5d           	unlk a5
     47e:	4e75           	rts
     480:	4878 0005      	pea 5 _start+0x5

00000484 _POKE:
     484:	4eb9 0000 011e 	jsr 11e _ERROR
			486: RELOC32	.text
     48a:	4240           	clr.w d0
     48c:	4e5d           	unlk a5
     48e:	4e75           	rts
	...

00000492 _MID_:
     492:	4e55           	Address 0x0000000000000494 is out of bounds.
.short 0x4e55

00000494 _POKEW:
     494:	0000 48e7      	ori.b #-25,d0
     498:	303a 286d      	move.w 2d07 _AREA+0x1c5(pc),d0
     49c:	0008           	.short 0x0008
     49e:	226d 0010      	movea.l 16(a5),a1
     4a2:	322d           	.short 0x322d

000004a4 _POKEL:
     4a4:	000e           	.short 0x000e
     4a6:	3609           	move.w a1,d3
     4a8:	200c           	move.l a4,d0
     4aa:	675c           	beq.s 508 __window_add_msg_cb+0x8
     4ac:	4a41           	tst.w d1
     4ae:	6f58           	ble.s 508 __window_add_msg_cb+0x8
     4b0:	204c           	movea.l a4,a0

000004b2 __window_add_close_cb:
     4b2:	95ca           	suba.l a2,a2

000004b4 _PEEK_:
     4b4:	1018           	move.b (a0)+,d0
     4b6:	6706           	beq.s 4be _PEEK_+0xa
     4b8:	528a           	addq.l #1,a2
     4ba:	1018           	move.b (a0)+,d0
     4bc:	66fa           	bne.s 4b8 _PEEK_+0x4
     4be:	5341           	subq.w #1,d1
     4c0:	7400           	moveq #0,d2

000004c2 _PEEKW_:
     4c2:	3401           	move.w d1,d2
     4c4:	b5c2           	cmpa.l d2,a2
     4c6:	6f7a           	ble.s 542 ___aqb_shl_single+0x34
     4c8:	95c2           	suba.l d2,a2
     4ca:	4a43           	tst.w d3
     4cc:	6d08           	blt.s 4d6 _PEEKL_+0x6
     4ce:	3249           	movea.w a1,a1

000004d0 _PEEKL_:
     4d0:	b3ca           	cmpa.l a2,a1
     4d2:	6c02           	bge.s 4d6 _PEEKL_+0x6
     4d4:	2449           	movea.l a1,a2
     4d6:	42a7           	clr.l -(sp)
     4d8:	486a 0001      	pea 1(a2)
     4dc:	4eb9           	.short 0x4eb9

000004de __autil_create_port:
     4de:	0000 0000      	ori.b #0,d0
			4de: RELOC32	.text
     4e2:	2640           	movea.l d0,a3
     4e4:	2c79 0000 0000 	movea.l 0 _start,a6
			4e6: RELOC32	.bss
     4ea:	41f4 2800      	lea (0,a4,d2.l),a0
     4ee:	2240           	movea.l d0,a1
     4f0:	200a           	move.l a2,d0
     4f2:	4eae fd90      	jsr -624(a6)
     4f6:	4233           	.short 0x4233

000004f8 __debug_putu2:
     4f8:	a800           	.short 0xa800
     4fa:	200b           	move.l a3,d0
     4fc:	508f           	addq.l #8,sp
     4fe:	4ced           	Address 0x0000000000000500 is out of bounds.
.short 0x4ced

00000500 __window_add_msg_cb:
     500:	5c0c           	.short 0x5c0c
     502:	ffe8           	.short 0xffe8
     504:	4e5d           	unlk a5
     506:	4e75           	rts
     508:	4878 0005      	pea 5 _start+0x5
     50c:	4eb9           	.short 0x4eb9

0000050e ___aqb_shl_single:
     50e:	0000 011e      	ori.b #30,d0
			50e: RELOC32	.text
     512:	42a7           	clr.l -(sp)
     514:	4878 0001      	pea 1 _start+0x1
     518:	4eb9 0000 0000 	jsr 0 _start
			51a: RELOC32	.text
     51e:	2440           	movea.l d0,a2
     520:	2c79 0000 0000 	movea.l 0 _start,a6
			522: RELOC32	.bss
     526:	41fa ff68      	lea 490 _POKE+0xc(pc),a0
     52a:	2240           	movea.l d0,a1
     52c:	7001           	moveq #1,d0
     52e:	4eae fd90      	jsr -624(a6)
     532:	200a           	move.l a2,d0
     534:	4fef 000c      	lea 12(sp),sp
     538:	4ced 5c0c ffe8 	movem.l -24(a5),d2-d3/a2-a4/a6
     53e:	4e5d           	unlk a5
     540:	4e75           	rts
     542:	42a7           	clr.l -(sp)
     544:	4878 0001      	pea 1 _start+0x1
     548:	4eb9           	.short 0x4eb9

0000054a __aio_putu2:
     54a:	0000 0000      	ori.b #0,d0
			54a: RELOC32	.text

0000054e _WINDOW_OUTPUT:
     54e:	2440           	movea.l d0,a2
     550:	2c79 0000 0000 	movea.l 0 _start,a6
			552: RELOC32	.bss
     556:	41fa ff38      	lea 490 _POKE+0xc(pc),a0
     55a:	2240           	movea.l d0,a1
     55c:	7001           	moveq #1,d0
     55e:	4eae fd90      	jsr -624(a6)
     562:	200a           	move.l a2,d0

00000564 _TIMER_OFF:
     564:	4ced 5c0c ffe8 	movem.l -24(a5),d2-d3/a2-a4/a6
     56a:	4e5d           	unlk a5
     56c:	4e75           	rts

0000056e _UCASE_:
     56e:	4e55 0000      	link.w a5,#0

00000572 __autil_delete_port:
     572:	48e7 3832      	movem.l d2-d4/a2-a3/a6,-(sp)
     576:	262d 0008      	move.l 8(a5),d3
     57a:	6768           	beq.s 5e4 __debug_putu4+0x10
     57c:	2443           	movea.l d3,a2
     57e:	2043           	movea.l d3,a0
     580:	7000           	moveq #0,d0
     582:	1218           	move.b (a0)+,d1
     584:	6706           	beq.s 58c __autil_delete_port+0x1a
     586:	5280           	addq.l #1,d0
     588:	1218           	move.b (a0)+,d1
     58a:	66fa           	bne.s 586 __autil_delete_port+0x14
     58c:	7401           	moveq #1,d2
     58e:	d480           	add.l d0,d2
     590:	42a7           	clr.l -(sp)
     592:	2f02           	move.l d2,-(sp)
     594:	4eb9 0000 0000 	jsr 0 _start
			596: RELOC32	.text
     59a:	2800           	move.l d0,d4
     59c:	2c79 0000 0000 	movea.l 0 _start,a6
			59e: RELOC32	.bss
     5a2:	2043           	movea.l d3,a0
     5a4:	2240           	movea.l d0,a1
     5a6:	2002           	move.l d2,d0
     5a8:	4eae           	.short 0x4eae

000005aa __autil_create_ext_io:
     5aa:	fd90           	.short 0xfd90
     5ac:	2644           	movea.l d4,a3
     5ae:	508f           	addq.l #8,sp
     5b0:	2044           	movea.l d4,a0
     5b2:	7400           	moveq #0,d2
     5b4:	1018           	move.b (a0)+,d0
     5b6:	6706           	beq.s 5be ___aqb_shr_single
     5b8:	5282           	addq.l #1,d2
     5ba:	1018           	move.b (a0)+,d0
     5bc:	66fa           	bne.s 5b8 __autil_create_ext_io+0xe

000005be ___aqb_shr_single:
     5be:	4a82           	tst.l d2
     5c0:	6716           	beq.s 5d8 __debug_putu4+0x4
     5c2:	7600           	moveq #0,d3
     5c4:	101a           	move.b (a2)+,d0
     5c6:	2c79 0000 0010 	movea.l 10 __aqb_read1,a6
			5c8: RELOC32	.bss
     5cc:	4eae ff52      	jsr -174(a6)
     5d0:	16c0           	move.b d0,(a3)+
     5d2:	5283           	addq.l #1,d3

000005d4 __debug_putu4:
     5d4:	b483           	cmp.l d3,d2
     5d6:	6eec           	bgt.s 5c4 ___aqb_shr_single+0x6
     5d8:	2004           	move.l d4,d0
     5da:	4ced 4c1c ffe8 	movem.l -24(a5),d2-d4/a2-a3/a6
     5e0:	4e5d           	unlk a5
     5e2:	4e75           	rts
     5e4:	4878 0005      	pea 5 _start+0x5
     5e8:	4eb9 0000 011e 	jsr 11e _ERROR
			5ea: RELOC32	.text
     5ee:	2f03           	move.l d3,-(sp)
     5f0:	4878 0001      	pea 1 _start+0x1

000005f4 __autil_create_std_io:
     5f4:	4eb9           	.short 0x4eb9
	...
			5f6: RELOC32	.text

000005f8 _WAVE_:
     5f8:	0000 2400      	ori.b #0,d0

000005fc __awindow_shutdown:
     5fc:	2c79 0000 0000 	movea.l 0 _start,a6
			5fe: RELOC32	.bss
     602:	41fa           	.short 0x41fa

00000604 __aio_putu1:
     604:	fe8c           	.short 0xfe8c
     606:	2240           	movea.l d0,a1
     608:	7001           	moveq #1,d0
     60a:	4eae fd90      	jsr -624(a6)
     60e:	2002           	move.l d2,d0
     610:	4ced 4c1c ffe8 	movem.l -24(a5),d2-d4/a2-a3/a6
     616:	4e5d           	unlk a5
     618:	4e75           	rts

0000061a _LCASE_:
     61a:	4e55 0000      	link.w a5,#0
     61e:	48e7 3832      	movem.l d2-d4/a2-a3/a6,-(sp)
     622:	262d 0008      	move.l 8(a5),d3
     626:	6768           	beq.s 690 __autil_init+0x10
     628:	2443           	movea.l d3,a2
     62a:	2043           	movea.l d3,a0
     62c:	7000           	moveq #0,d0
     62e:	1218           	move.b (a0)+,d1
     630:	6706           	beq.s 638 _LCASE_+0x1e
     632:	5280           	addq.l #1,d0
     634:	1218           	move.b (a0)+,d1
     636:	66fa           	bne.s 632 _LCASE_+0x18
     638:	7401           	moveq #1,d2

0000063a __autil_delete_ext_io:
     63a:	d480           	add.l d0,d2
     63c:	42a7           	clr.l -(sp)
     63e:	2f02           	move.l d2,-(sp)
     640:	4eb9 0000 0000 	jsr 0 _start
			642: RELOC32	.text
     646:	2800           	move.l d0,d4
     648:	2c79 0000 0000 	movea.l 0 _start,a6
			64a: RELOC32	.bss
     64e:	2043           	movea.l d3,a0
     650:	2240           	movea.l d0,a1
     652:	2002           	move.l d2,d0
     654:	4eae fd90      	jsr -624(a6)
     658:	2644           	movea.l d4,a3
     65a:	508f           	addq.l #8,sp
     65c:	2044           	movea.l d4,a0
     65e:	7400           	moveq #0,d2
     660:	1018           	move.b (a0)+,d0
     662:	6706           	beq.s 66a __autil_begin_io+0x2
     664:	5282           	addq.l #1,d2
     666:	1018           	move.b (a0)+,d0

00000668 __autil_begin_io:
     668:	66fa           	bne.s 664 __autil_delete_ext_io+0x2a
     66a:	4a82           	tst.l d2
     66c:	6716           	beq.s 684 __autil_init+0x4

0000066e ___aqb_xor_single:
     66e:	7600           	moveq #0,d3
     670:	101a           	move.b (a2)+,d0
     672:	2c79 0000 0010 	movea.l 10 __aqb_read1,a6
			674: RELOC32	.bss
     678:	4eae ff4c      	jsr -180(a6)
     67c:	16c0           	move.b d0,(a3)+
     67e:	5283           	addq.l #1,d3

00000680 __autil_init:
     680:	b483           	cmp.l d3,d2
     682:	6eec           	bgt.s 670 ___aqb_xor_single+0x2
     684:	2004           	move.l d4,d0
     686:	4ced 4c1c ffe8 	movem.l -24(a5),d2-d4/a2-a3/a6
     68c:	4e5d           	unlk a5
     68e:	4e75           	rts
     690:	4878 0005      	pea 5 _start+0x5
     694:	4eb9 0000 011e 	jsr 11e _ERROR
			696: RELOC32	.text
     69a:	2f03           	move.l d3,-(sp)
     69c:	4878 0001      	pea 1 _start+0x1
     6a0:	4eb9           	.short 0x4eb9
	...
			6a2: RELOC32	.text

000006a4 __autil_shutdown:
     6a4:	0000 2400      	ori.b #0,d0
     6a8:	2c79           	.short 0x2c79
	...
			6aa: RELOC32	.bss

000006ac __debug_putf:
     6ac:	0000 41fa      	ori.b #-6,d0
     6b0:	fde0           	.short 0xfde0
     6b2:	2240           	movea.l d0,a1
     6b4:	7001           	moveq #1,d0
     6b6:	4eae fd90      	jsr -624(a6)
     6ba:	2002           	move.l d2,d0
     6bc:	4ced           	Address 0x00000000000006be is out of bounds.
.short 0x4ced

000006be __aio_puthex:
     6be:	4c1c           	.short 0x4c1c
     6c0:	ffe8           	.short 0xffe8
     6c2:	4e5d           	unlk a5
     6c4:	4e75           	rts

000006c6 _LEFT_:
     6c6:	4e55 0000      	link.w a5,#0
     6ca:	48e7 3822      	movem.l d2-d4/a2/a6,-(sp)
     6ce:	282d 0008      	move.l 8(a5),d4
     6d2:	242d 000c      	move.l 12(a5),d2
     6d6:	3602           	move.w d2,d3
     6d8:	4a84           	tst.l d4
     6da:	674e           	beq.s 72a ___aqb_eqv_single+0x10
     6dc:	4a42           	tst.w d2
     6de:	6d4a           	blt.s 72a ___aqb_eqv_single+0x10
     6e0:	2044           	movea.l d4,a0
     6e2:	7000           	moveq #0,d0
     6e4:	1218           	move.b (a0)+,d1
     6e6:	6706           	beq.s 6ee _WAVE_FREE+0x6

000006e8 _WAVE_FREE:
     6e8:	5280           	addq.l #1,d0
     6ea:	1218           	move.b (a0)+,d1
     6ec:	66fa           	bne.s 6e8 _WAVE_FREE
     6ee:	3242           	movea.w d2,a1
     6f0:	b089           	cmp.l a1,d0
     6f2:	6c04           	bge.s 6f8 _WAVE_FREE+0x10
     6f4:	3600           	move.w d0,d3
     6f6:	2240           	movea.l d0,a1
     6f8:	42a7           	clr.l -(sp)
     6fa:	4869 0001      	pea 1(a1)
     6fe:	4eb9 0000 0000 	jsr 0 _start
			700: RELOC32	.text
     704:	2440           	movea.l d0,a2
     706:	2c79 0000 0000 	movea.l 0 _start,a6
			708: RELOC32	.bss
     70c:	2044           	movea.l d4,a0
     70e:	2240           	movea.l d0,a1
     710:	3003           	move.w d3,d0
     712:	48c0           	ext.l d0
     714:	4eae fd90      	jsr -624(a6)
     718:	4232           	.short 0x4232

0000071a ___aqb_eqv_single:
     71a:	3000           	move.w d0,d0
     71c:	200a           	move.l a2,d0
     71e:	508f           	addq.l #8,sp
     720:	4ced 441c ffec 	movem.l -20(a5),d2-d4/a2/a6
     726:	4e5d           	unlk a5
     728:	4e75           	rts
     72a:	4878 0005      	pea 5 _start+0x5
     72e:	4eb9 0000 011e 	jsr 11e _ERROR
			730: RELOC32	.text
     734:	42a7           	clr.l -(sp)
     736:	4878 0001      	pea 1 _start+0x1
     73a:	4eb9 0000 0000 	jsr 0 _start
			73c: RELOC32	.text
     740:	2440           	movea.l d0,a2
     742:	2c79           	.short 0x2c79
	...
			744: RELOC32	.bss

00000746 _WAVE:
     746:	0000 41fa      	ori.b #-6,d0
     74a:	fd46           	.short 0xfd46
     74c:	2240           	movea.l d0,a1
     74e:	7001           	moveq #1,d0
     750:	4eae fd90      	jsr -624(a6)
     754:	200a           	move.l a2,d0
     756:	4ced 441c ffec 	movem.l -20(a5),d2-d4/a2/a6
     75c:	4e5d           	unlk a5
     75e:	4e75           	rts

00000760 _RIGHT_:
     760:	4e55 0000      	link.w a5,#0
     764:	48e7 383a      	movem.l d2-d4/a2-a4/a6,-(sp)
     768:	262d 0008      	move.l 8(a5),d3
     76c:	242d 000c      	move.l 12(a5),d2
     770:	3802           	move.w d2,d4
     772:	4a83           	tst.l d3

00000774 __aio_putbin:
     774:	6776           	beq.s 7ec ___aqb_imp_single+0x22
     776:	4a42           	tst.w d2
     778:	6d72           	blt.s 7ec ___aqb_imp_single+0x22

0000077a _SOUND_WAIT:
     77a:	2043           	movea.l d3,a0
     77c:	2243           	movea.l d3,a1
     77e:	7000           	moveq #0,d0
     780:	1219           	move.b (a1)+,d1
     782:	6706           	beq.s 78a __debug_putbool
     784:	5280           	addq.l #1,d0
     786:	1219           	move.b (a1)+,d1
     788:	66fa           	bne.s 784 _SOUND_WAIT+0xa

0000078a __debug_putbool:
     78a:	3242           	movea.w d2,a1
     78c:	b089           	cmp.l a1,d0
     78e:	6d50           	blt.s 7e0 ___aqb_imp_single+0x16
     790:	9044           	sub.w d4,d0
     792:	3200           	move.w d0,d1
     794:	5241           	addq.w #1,d1
     796:	4a41           	tst.w d1
     798:	6f52           	ble.s 7ec ___aqb_imp_single+0x22
     79a:	97cb           	suba.l a3,a3
     79c:	1418           	move.b (a0)+,d2
     79e:	6706           	beq.s 7a6 __debug_putbool+0x1c
     7a0:	528b           	addq.l #1,a3
     7a2:	1418           	move.b (a0)+,d2
     7a4:	66fa           	bne.s 7a0 __debug_putbool+0x16
     7a6:	3440           	movea.w d0,a2
     7a8:	b5cb           	cmpa.l a3,a2
     7aa:	6c7a           	bge.s 826 ___aqb_imp_single+0x5c
     7ac:	97ca           	suba.l a2,a3
     7ae:	42a7           	clr.l -(sp)
     7b0:	486b 0001      	pea 1(a3)
     7b4:	4eb9 0000 0000 	jsr 0 _start
			7b6: RELOC32	.text
     7ba:	2840           	movea.l d0,a4
     7bc:	2c79 0000 0000 	movea.l 0 _start,a6
			7be: RELOC32	.bss
     7c2:	41f2 3800      	lea (0,a2,d3.l),a0
     7c6:	2240           	movea.l d0,a1
     7c8:	200b           	move.l a3,d0

000007ca ___aqb_imp_single:
     7ca:	4eae fd90      	jsr -624(a6)
     7ce:	1982 b800      	move.b d2,(0,a4,a3.l)
     7d2:	200c           	move.l a4,d0
     7d4:	508f           	addq.l #8,sp
     7d6:	4ced 5c1c ffe4 	movem.l -28(a5),d2-d4/a2-a4/a6
     7dc:	4e5d           	unlk a5
     7de:	4e75           	rts
     7e0:	3200           	move.w d0,d1
     7e2:	9041           	sub.w d1,d0
     7e4:	3200           	move.w d0,d1
     7e6:	5241           	addq.w #1,d1
     7e8:	4a41           	tst.w d1
     7ea:	6eae           	bgt.s 79a __debug_putbool+0x10
     7ec:	4878 0005      	pea 5 _start+0x5
     7f0:	4eb9 0000 011e 	jsr 11e _ERROR
			7f2: RELOC32	.text
     7f6:	42a7           	clr.l -(sp)
     7f8:	4878 0001      	pea 1 _start+0x1
     7fc:	4eb9 0000 0000 	jsr 0 _start
			7fe: RELOC32	.text
     802:	2440           	movea.l d0,a2
     804:	2c79 0000 0000 	movea.l 0 _start,a6
			806: RELOC32	.bss
     80a:	41fa fc84      	lea 490 _POKE+0xc(pc),a0
     80e:	2240           	movea.l d0,a1
     810:	7001           	moveq #1,d0
     812:	4eae fd90      	jsr -624(a6)
     816:	200a           	move.l a2,d0
     818:	4fef 000c      	lea 12(sp),sp
     81c:	4ced 5c1c ffe4 	movem.l -28(a5),d2-d4/a2-a4/a6
     822:	4e5d           	unlk a5
     824:	4e75           	rts
     826:	42a7           	clr.l -(sp)

00000828 __aqb_get_output:
     828:	4878           	.short 0x4878

0000082a __aio_putuhex:
     82a:	0001 4eb9      	ori.b #-71,d1
     82e:	0000 0000      	ori.b #0,d0
			82e: RELOC32	.text
     832:	2440           	movea.l d0,a2
     834:	2c79 0000 0000 	movea.l 0 _start,a6
			836: RELOC32	.bss
     83a:	41fa fc54      	lea 490 _POKE+0xc(pc),a0
     83e:	2240           	movea.l d0,a1
     840:	7001           	moveq #1,d0
     842:	4eae fd90      	jsr -624(a6)
     846:	200a           	move.l a2,d0
     848:	4ced 5c1c ffe4 	movem.l -28(a5),d2-d4/a2-a4/a6
     84e:	4e5d           	unlk a5
     850:	4e75           	rts

00000852 __astr_strstr:
     852:	4e55 0000      	link.w a5,#0
     856:	2f0a           	move.l a2,-(sp)
     858:	2f03           	move.l d3,-(sp)
     85a:	246d 0008      	movea.l 8(a5),a2
     85e:	262d 000c      	move.l 12(a5),d3
     862:	204a           	movea.l a2,a0
     864:	2243           	movea.l d3,a1

00000866 __debug_puttab:
     866:	1218           	move.b (a0)+,d1
     868:	671a           	beq.s 884 ___aqb_not_single+0xa
     86a:	1019           	move.b (a1)+,d0
     86c:	b001           	cmp.b d1,d0
     86e:	67f6           	beq.s 866 __debug_puttab
     870:	4a00           	tst.b d0
     872:	6706           	beq.s 87a ___aqb_not_single
     874:	101a           	move.b (a2)+,d0
     876:	66ea           	bne.s 862 __astr_strstr+0x10
     878:	95ca           	suba.l a2,a2

0000087a ___aqb_not_single:
     87a:	200a           	move.l a2,d0
     87c:	261f           	move.l (sp)+,d3
     87e:	245f           	movea.l (sp)+,a2
     880:	4e5d           	unlk a5
     882:	4e75           	rts
     884:	1011           	move.b (a1),d0
     886:	60e8           	bra.s 870 __debug_puttab+0xa

00000888 _INSTR_:
     888:	4e55 0000      	link.w a5,#0
     88c:	48e7 3820      	movem.l d2-d4/a2,-(sp)
     890:	262d 0008      	move.l 8(a5),d3
     894:	202d 000c      	move.l 12(a5),d0
     898:	242d 0010      	move.l 16(a5),d2
     89c:	3803           	move.w d3,d4
     89e:	5344           	subq.w #1,d4
     8a0:	4a80           	tst.l d0
     8a2:	675c           	beq.s 900 __aqb_get_win+0xc
     8a4:	4a82           	tst.l d2
     8a6:	6758           	beq.s 900 __aqb_get_win+0xc
     8a8:	4a44           	tst.w d4
     8aa:	6d54           	blt.s 900 __aqb_get_win+0xc
     8ac:	2040           	movea.l d0,a0
     8ae:	93c9           	suba.l a1,a1
     8b0:	1218           	move.b (a0)+,d1
     8b2:	6706           	beq.s 8ba _INSTR_+0x32
     8b4:	5289           	addq.l #1,a1
     8b6:	1218           	move.b (a0)+,d1
     8b8:	66fa           	bne.s 8b4 _INSTR_+0x2c
     8ba:	3044           	movea.w d4,a0
     8bc:	b3c8           	cmpa.l a0,a1
     8be:	6f1c           	ble.s 8dc _INSTR_+0x54
     8c0:	2800           	move.l d0,d4
     8c2:	d888           	add.l a0,d4
     8c4:	2444           	movea.l d4,a2
     8c6:	204a           	movea.l a2,a0
     8c8:	2242           	movea.l d2,a1
     8ca:	1218           	move.b (a0)+,d1
     8cc:	671a           	beq.s 8e8 ___aqb_and_single+0xa
     8ce:	1019           	move.b (a1)+,d0
     8d0:	b001           	cmp.b d1,d0
     8d2:	67f6           	beq.s 8ca _INSTR_+0x42
     8d4:	4a00           	tst.b d0
     8d6:	6714           	beq.s 8ec ___aqb_and_single+0xe
     8d8:	121a           	move.b (a2)+,d1
     8da:	66ea           	bne.s 8c6 _INSTR_+0x3e
     8dc:	4240           	clr.w d0

000008de ___aqb_and_single:
     8de:	4ced 041c fff0 	movem.l -16(a5),d2-d4/a2
     8e4:	4e5d           	unlk a5
     8e6:	4e75           	rts
     8e8:	1011           	move.b (a1),d0
     8ea:	66ec           	bne.s 8d8 _INSTR_+0x50
     8ec:	220a           	move.l a2,d1
     8ee:	6726           	beq.s 916 __debug_putnl+0x4
     8f0:	3003           	move.w d3,d0
     8f2:	95c4           	suba.l d4,a2

000008f4 __aqb_get_win:
     8f4:	d04a           	add.w a2,d0
     8f6:	4ced 041c fff0 	movem.l -16(a5),d2-d4/a2
     8fc:	4e5d           	unlk a5
     8fe:	4e75           	rts
     900:	4878 0005      	pea 5 _start+0x5
     904:	4eb9 0000 011e 	jsr 11e _ERROR
			906: RELOC32	.text
     90a:	4240           	clr.w d0
     90c:	4ced 041c fff0 	movem.l -16(a5),d2-d4/a2

00000912 __debug_putnl:
     912:	4e5d           	unlk a5
     914:	4e75           	rts
     916:	300a           	move.w a2,d0
     918:	4ced 041c fff0 	movem.l -16(a5),d2-d4/a2
     91e:	4e5d           	unlk a5
     920:	4e75           	rts

00000922 __astr_dup:
     922:	4e55 0000      	link.w a5,#0
     926:	48e7 3802      	movem.l d2-d4/a6,-(sp)
     92a:	206d 0008      	movea.l 8(a5),a0
     92e:	2808           	move.l a0,d4
     930:	7000           	moveq #0,d0
     932:	1218           	move.b (a0)+,d1
     934:	6706           	beq.s 93c __astr_dup+0x1a
     936:	5280           	addq.l #1,d0
     938:	1218           	move.b (a0)+,d1
     93a:	66fa           	bne.s 936 __astr_dup+0x14
     93c:	7401           	moveq #1,d2
     93e:	d480           	add.l d0,d2
     940:	42a7           	clr.l -(sp)
     942:	2f02           	move.l d2,-(sp)
     944:	4eb9 0000 0000 	jsr 0 _start
			946: RELOC32	.text
     94a:	2600           	move.l d0,d3
     94c:	2c79 0000 0000 	movea.l 0 _start,a6
			94e: RELOC32	.bss
     952:	2044           	movea.l d4,a0
     954:	2240           	movea.l d0,a1
     956:	2002           	move.l d2,d0
     958:	4eae fd90      	jsr -624(a6)
     95c:	2003           	move.l d3,d0
     95e:	4ced 401c fff0 	movem.l -16(a5),d2-d4/a6
     964:	4e5d           	unlk a5
     966:	4e75           	rts

00000968 ___astr_cmp:
     968:	4e55 0000      	link.w a5,#0
     96c:	2f02           	move.l d2,-(sp)
     96e:	206d 0008      	movea.l 8(a5),a0
     972:	226d 000c      	movea.l 12(a5),a1
     976:	1218           	move.b (a0)+,d1
     978:	6716           	beq.s 990 ___aqb_or_single+0x6
     97a:	1419           	move.b (a1)+,d2
     97c:	b401           	cmp.b d1,d2
     97e:	67f6           	beq.s 976 ___astr_cmp+0xe
     980:	4240           	clr.w d0
     982:	1001           	move.b d1,d0
     984:	4241           	clr.w d1
     986:	1202           	move.b d2,d1
     988:	9041           	sub.w d1,d0

0000098a ___aqb_or_single:
     98a:	241f           	move.l (sp)+,d2
     98c:	4e5d           	unlk a5
     98e:	4e75           	rts
     990:	1411           	move.b (a1),d2
     992:	4240           	clr.w d0
     994:	4241           	clr.w d1
     996:	1202           	move.b d2,d1
     998:	9041           	sub.w d1,d0
     99a:	241f           	move.l (sp)+,d2
     99c:	4e5d           	unlk a5
     99e:	4e75           	rts

000009a0 ___astr_concat:
     9a0:	4e55 0000      	link.w a5,#0
     9a4:	48e7 3c22      	movem.l d2-d5/a2/a6,-(sp)
     9a8:	2a2d 0008      	move.l 8(a5),d5
     9ac:	282d 000c      	move.l 12(a5),d4
     9b0:	2045           	movea.l d5,a0
     9b2:	95ca           	suba.l a2,a2
     9b4:	1018           	move.b (a0)+,d0
     9b6:	6706           	beq.s 9be __debug_cls
     9b8:	528a           	addq.l #1,a2
     9ba:	1018           	move.b (a0)+,d0
     9bc:	66fa           	bne.s 9b8 ___astr_concat+0x18

000009be __debug_cls:
     9be:	2044           	movea.l d4,a0
     9c0:	7400           	moveq #0,d2
     9c2:	1018           	move.b (a0)+,d0
     9c4:	6706           	beq.s 9cc __debug_cls+0xe
     9c6:	5282           	addq.l #1,d2
     9c8:	1018           	move.b (a0)+,d0
     9ca:	66fa           	bne.s 9c6 __debug_cls+0x8
     9cc:	42a7           	clr.l -(sp)
     9ce:	4872 2801      	pea (1,a2,d2.l)
     9d2:	4eb9           	.short 0x4eb9

000009d4 _LINE:
     9d4:	0000 0000      	ori.b #0,d0
			9d4: RELOC32	.text
     9d8:	2600           	move.l d0,d3
     9da:	2c79 0000 0000 	movea.l 0 _start,a6
			9dc: RELOC32	.bss
     9e0:	2045           	movea.l d5,a0
     9e2:	2240           	movea.l d0,a1
     9e4:	200a           	move.l a2,d0
     9e6:	4eae fd90      	jsr -624(a6)
     9ea:	2044           	movea.l d4,a0
     9ec:	7001           	moveq #1,d0
     9ee:	d082           	add.l d2,d0
     9f0:	43f2 3800      	lea (0,a2,d3.l),a1
     9f4:	4eae fd90      	jsr -624(a6)
     9f8:	2003           	move.l d3,d0
     9fa:	4ced 443c ffe8 	movem.l -24(a5),d2-d5/a2/a6
     a00:	4e5d           	unlk a5
     a02:	4e75           	rts

00000a04 __astr_ftoa_ext:
     a04:	4e55 ffe8      	link.w a5,#-24
     a08:	48e7 3f3a      	movem.l d2-d7/a2-a4/a6,-(sp)
     a0c:	242d 0008      	move.l 8(a5),d2
     a10:	3e2d 0012      	move.w 18(a5),d7
     a14:	2c79 0000 0008 	movea.l 8 ___mulsi4+0x2,a6
			a16: RELOC32	.bss
     a1a:	2039 0000 0020 	move.l 20 __debug_putc,d0
			a1c: RELOC32	.bss
     a20:	2202           	move.l d2,d1
     a22:	4eae ffd6      	jsr -42(a6)
     a26:	4a80           	tst.l d0
     a28:	6d00 051e      	blt.w f48 __aio_writeu1+0x8

00000a2c __aio_putf:
     a2c:	426d ffee      	clr.w -18(a5)
     a30:	2039 0000 0000 	move.l 0 _start,d0
			a32: RELOC32	.bss

00000a36 ___floatsisf:
     a36:	2202           	move.l d2,d1
     a38:	4eae ffd6      	jsr -42(a6)
     a3c:	4a80           	tst.l d0
     a3e:	6d00 052e      	blt.w f6e __aio_writeu1+0x2e
     a42:	45f9 0000 0008 	lea 8 ___mulsi4+0x2,a2
			a44: RELOC32	.bss
     a48:	2c52           	movea.l (a2),a6
     a4a:	2002           	move.l d2,d0
     a4c:	2239           	.short 0x2239
	...
			a4e: RELOC32	.bss

00000a50 ___gtsf2:
     a50:	0008           	.short 0x0008
     a52:	4eae ffd6      	jsr -42(a6)
     a56:	4a80           	tst.l d0
     a58:	6d00 05ec      	blt.w 1046 __aio_writef+0x4a
     a5c:	2c52           	movea.l (a2),a6
     a5e:	2002           	move.l d2,d0
     a60:	2239 0000 0008 	move.l 8 ___mulsi4+0x2,d1
			a62: RELOC32	.bss
     a66:	4eae ffac      	jsr -84(a6)

00000a6a __debug_break:
     a6a:	2400           	move.l d0,d2
     a6c:	7c18           	moveq #24,d6

00000a6e ___mulsf3:
     a6e:	7610           	moveq #16,d3
     a70:	2c52           	movea.l (a2),a6
     a72:	2002           	move.l d2,d0

00000a74 _ON_EXIT_CALL:
     a74:	2239 0000 000c 	move.l c _SCREEN,d1
			a76: RELOC32	.bss
     a7a:	4eae ffd6      	jsr -42(a6)
     a7e:	4a80           	tst.l d0
     a80:	6d00 05e0      	blt.w 1062 __aio_writef+0x66
     a84:	2c79 0000 0008 	movea.l 8 ___mulsi4+0x2,a6
			a86: RELOC32	.bss
     a8a:	2002           	move.l d2,d0

00000a8c ___divsf3:
     a8c:	2239 0000 000c 	move.l c _SCREEN,d1
			a8e: RELOC32	.bss
     a92:	4eae ffac      	jsr -84(a6)
     a96:	2400           	move.l d0,d2
     a98:	2c79 0000 0008 	movea.l 8 ___mulsi4+0x2,a6
			a9a: RELOC32	.bss
     a9e:	2002           	move.l d2,d0

00000aa0 __ctrlc_break:
     aa0:	2239 0000 0010 	move.l 10 __aqb_read1,d1
			aa2: RELOC32	.bss
     aa6:	4eae ffd6      	jsr -42(a6)

00000aaa _ON_BREAK_CALL:
     aaa:	4a80           	tst.l d0
     aac:	6d10           	blt.s abe ___handle_break+0x4
     aae:	2002           	move.l d2,d0
     ab0:	2239 0000 0010 	move.l 10 __aqb_read1,d1
			ab2: RELOC32	.bss
     ab6:	4eae ffac      	jsr -84(a6)

00000aba ___handle_break:
     aba:	2400           	move.l d0,d2
     abc:	5846           	addq.w #4,d6
     abe:	2002           	move.l d2,d0
     ac0:	2239 0000 0014 	move.l 14 __aqb_read1+0x4,d1
			ac2: RELOC32	.bss
     ac6:	4eae           	.short 0x4eae

00000ac8 ___subsf3:
     ac8:	ffd6           	.short 0xffd6
     aca:	4a80           	tst.l d0
     acc:	6d10           	blt.s ade ___subsf3+0x16
     ace:	2002           	move.l d2,d0
     ad0:	2239 0000 0014 	move.l 14 __aqb_read1+0x4,d1
			ad2: RELOC32	.bss
     ad6:	4eae ffac      	jsr -84(a6)
     ada:	2400           	move.l d0,d2
     adc:	5446           	addq.w #2,d6
     ade:	2002           	move.l d2,d0
     ae0:	2239 0000 0018 	move.l 18 ___DARRAY_T_REDIM,d1
			ae2: RELOC32	.bss

00000ae6 ___fixsfsi:
     ae6:	4eae           	.short 0x4eae

00000ae8 __aio_putbool:
     ae8:	ffd6           	.short 0xffd6
     aea:	4a80           	tst.l d0
     aec:	6d10           	blt.s afe __aio_putbool+0x16
     aee:	2002           	move.l d2,d0
     af0:	2239 0000 0018 	move.l 18 ___DARRAY_T_REDIM,d1
			af2: RELOC32	.bss
     af6:	4eae ffac      	jsr -84(a6)
     afa:	2400           	move.l d0,d2
     afc:	5246           	addq.w #1,d6
     afe:	2002           	move.l d2,d0

00000b00 ___ltsf2:
     b00:	7200           	moveq #0,d1
     b02:	4eae ffd6      	jsr -42(a6)
     b06:	4a80           	tst.l d0
     b08:	6f12           	ble.s b1c ___ltsf2+0x1c
     b0a:	2002           	move.l d2,d0
     b0c:	2239 0000 0004 	move.l 4 _start+0x4,d1
			b0e: RELOC32	.bss
     b12:	4eae ffd6      	jsr -42(a6)
     b16:	4a80           	tst.l d0
     b18:	6f00 0398      	ble.w eb2 __aio_writeu2+0x2e
     b1c:	45f9           	.short 0x45f9

00000b1e _RND_:
	...
			b1e: RELOC32	.bss

00000b20 _SOUND_STOP:
     b20:	0008           	.short 0x0008
     b22:	2002           	move.l d2,d0
     b24:	2c52           	movea.l (a2),a6
     b26:	4eae ffe2      	jsr -30(a6)
     b2a:	2c52           	movea.l (a2),a6
     b2c:	2600           	move.l d0,d3
     b2e:	4eae ffdc      	jsr -36(a6)
     b32:	2c52           	movea.l (a2),a6
     b34:	2200           	move.l d0,d1
     b36:	2002           	move.l d2,d0
     b38:	4eae ffb8      	jsr -72(a6)
     b3c:	2c52           	movea.l (a2),a6
     b3e:	2200           	move.l d0,d1
     b40:	2039 0000 001c 	move.l 1c __atimer_shutdown,d0
			b42: RELOC32	.bss
     b46:	4eae ffb2      	jsr -78(a6)
     b4a:	2c52           	movea.l (a2),a6
     b4c:	2400           	move.l d0,d2
     b4e:	4eae           	.short 0x4eae

00000b50 __c_atexit:
     b50:	ffe2           	.short 0xffe2
     b52:	2c52           	movea.l (a2),a6
     b54:	2a00           	move.l d0,d5
     b56:	4eae ffdc      	jsr -36(a6)
     b5a:	2c52           	movea.l (a2),a6
     b5c:	2200           	move.l d0,d1
     b5e:	2002           	move.l d2,d0
     b60:	4eae ffb8      	jsr -72(a6)
     b64:	2239 0000 003c 	move.l 3c ___udivsi4,d1
			b66: RELOC32	.bss
     b6a:	2c52           	movea.l (a2),a6
     b6c:	4eae ffd6      	jsr -42(a6)
     b70:	4a80           	tst.l d0
     b72:	6d00 02f2      	blt.w e66 __aio_writeu4+0x9a
     b76:	5285           	addq.l #1,d5
     b78:	0c85 3b9a c9ff 	cmpi.l #999999999,d5
     b7e:	6300 02e6      	bls.w e66 __aio_writeu4+0x9a
     b82:	5283           	addq.l #1,d3
     b84:	4a46           	tst.w d6
     b86:	6700 02dc      	beq.w e64 __aio_writeu4+0x98
     b8a:	7009           	moveq #9,d0
     b8c:	b083           	cmp.l d3,d0
     b8e:	6c00 02d4      	bge.w e64 __aio_writeu4+0x98
     b92:	5246           	addq.w #1,d6
     b94:	4a47           	tst.w d7
     b96:	6700 0504      	beq.w 109c __aio_writef+0xa0

00000b9a _PSET:
     b9a:	307c 0001      	movea.w #1,a0

00000b9e __aio_writes4:
     b9e:	2b48 ffea      	move.l a0,-22(a5)
     ba2:	7a00           	moveq #0,d5
     ba4:	3e05           	move.w d5,d7
     ba6:	246d 000c      	movea.l 12(a5),a2
     baa:	2608           	move.l a0,d3
     bac:	284a           	movea.l a2,a4
     bae:	7800           	moveq #0,d4
     bb0:	4df9 0000 0082 	lea 82 ___modsi3,a6
			bb2: RELOC32	.text
     bb6:	47f9 0000 008e 	lea 8e ___divsi3,a3
			bb8: RELOC32	.text
     bbc:	7401           	moveq #1,d2
     bbe:	d484           	add.l d4,d2
     bc0:	4878 000a      	pea a ___mulsi4+0x4
     bc4:	2f03           	move.l d3,-(sp)
     bc6:	4e96           	jsr (a6)
     bc8:	0600 0030      	addi.b #48,d0
     bcc:	508f           	addq.l #8,sp
     bce:	14c0           	move.b d0,(a2)+
     bd0:	4878 000a      	pea a ___mulsi4+0x4
     bd4:	2f03           	move.l d3,-(sp)
     bd6:	4e93           	jsr (a3)
     bd8:	508f           	addq.l #8,sp
     bda:	2600           	move.l d0,d3
     bdc:	6724           	beq.s c02 __aio_writes4+0x64
     bde:	2802           	move.l d2,d4
     be0:	7401           	moveq #1,d2
     be2:	d484           	add.l d4,d2
     be4:	4878 000a      	pea a ___mulsi4+0x4
     be8:	2f03           	move.l d3,-(sp)
     bea:	4e96           	jsr (a6)
     bec:	0600 0030      	addi.b #48,d0
     bf0:	508f           	addq.l #8,sp
     bf2:	14c0           	move.b d0,(a2)+
     bf4:	4878 000a      	pea a ___mulsi4+0x4
     bf8:	2f03           	move.l d3,-(sp)
     bfa:	4e93           	jsr (a3)
     bfc:	508f           	addq.l #8,sp
     bfe:	2600           	move.l d0,d3
     c00:	66dc           	bne.s bde __aio_writes4+0x40
     c02:	4a47           	tst.w d7
     c04:	6700 036e      	beq.w f74 __aio_writeu1+0x34
     c08:	206d 000c      	movea.l 12(a5),a0
     c0c:	11bc 002d 2800 	move.b #45,(0,a0,d2.l)
     c12:	5282           	addq.l #1,d2
     c14:	206d 000c      	movea.l 12(a5),a0
     c18:	d1c2           	adda.l d2,a0
     c1a:	4210           	clr.b (a0)
     c1c:	5382           	subq.l #1,d2
     c1e:	6712           	beq.s c32 __aio_writes4+0x94
     c20:	7200           	moveq #0,d1
     c22:	1014           	move.b (a4),d0
     c24:	18e8 ffff      	move.b -1(a0),(a4)+
     c28:	1100           	move.b d0,-(a0)
     c2a:	5281           	addq.l #1,d1
     c2c:	5382           	subq.l #1,d2
     c2e:	b481           	cmp.l d1,d2
     c30:	6ef0           	bgt.s c22 __aio_writes4+0x84
     c32:	4a6d ffee      	tst.w -18(a5)
     c36:	6708           	beq.s c40 __aio_writes4+0xa2
     c38:	206d 000c      	movea.l 12(a5),a0
     c3c:	10bc 002d      	move.b #45,(a0)
     c40:	4a85           	tst.l d5
     c42:	6700 0154      	beq.w d98 ____breakHandler+0x8
     c46:	45f9 0000 002a 	lea 2a ___umodsi3,a2
			c48: RELOC32	.text
     c4c:	4878 000a      	pea a ___mulsi4+0x4
     c50:	2f05           	move.l d5,-(sp)
     c52:	4e92           	jsr (a2)
     c54:	508f           	addq.l #8,sp

00000c56 __aio_writes2:
     c56:	4a80           	tst.l d0
     c58:	6600 0480      	bne.w 10da __aio_writebool+0x2a
     c5c:	47f9 0000 0036 	lea 36 __aqb_clear,a3
			c5e: RELOC32	.text
     c62:	4878 000a      	pea a ___mulsi4+0x4
     c66:	2f05           	move.l d5,-(sp)
     c68:	4e93           	jsr (a3)
     c6a:	508f           	addq.l #8,sp
     c6c:	2400           	move.l d0,d2
     c6e:	4878           	.short 0x4878

00000c70 _SOUND_start:
     c70:	000a           	.short 0x000a
     c72:	2f00           	move.l d0,-(sp)
     c74:	4e92           	jsr (a2)
     c76:	508f           	addq.l #8,sp
     c78:	4a80           	tst.l d0
     c7a:	6600 05a0      	bne.w 121c __aio_writes+0xb4
     c7e:	4878 0064      	pea 64 __aqb_read2+0x24
     c82:	2f05           	move.l d5,-(sp)
     c84:	4e93           	jsr (a3)
     c86:	508f           	addq.l #8,sp
     c88:	2400           	move.l d0,d2
     c8a:	4878 000a      	pea a ___mulsi4+0x4
     c8e:	2f00           	move.l d0,-(sp)
     c90:	4e92           	jsr (a2)
     c92:	508f           	addq.l #8,sp
     c94:	4a80           	tst.l d0

00000c96 _POINT_:
     c96:	6600 05de      	bne.w 1276 __aio_writes+0x10e
     c9a:	4878 03e8      	pea 3e8 __aio_puts1+0xe
     c9e:	2f05           	move.l d5,-(sp)
     ca0:	4e93           	jsr (a3)
     ca2:	508f           	addq.l #8,sp
     ca4:	2400           	move.l d0,d2
     ca6:	4878 000a      	pea a ___mulsi4+0x4
     caa:	2f00           	move.l d0,-(sp)
     cac:	4e92           	jsr (a2)

00000cae __cshutdown:
     cae:	508f           	addq.l #8,sp
     cb0:	4a80           	tst.l d0
     cb2:	6600 05c6      	bne.w 127a __aio_writes+0x112
     cb6:	4878 2710      	pea 2710 __astr_init+0x94
     cba:	2f05           	move.l d5,-(sp)
     cbc:	4e93           	jsr (a3)
     cbe:	508f           	addq.l #8,sp
     cc0:	2400           	move.l d0,d2
     cc2:	4878 000a      	pea a ___mulsi4+0x4
     cc6:	2f00           	move.l d0,-(sp)
     cc8:	4e92           	jsr (a2)
     cca:	508f           	addq.l #8,sp
     ccc:	4a80           	tst.l d0
     cce:	6600 05ae      	bne.w 127e __aio_writes+0x116
     cd2:	2f3c 0001 86a0 	move.l #100000,-(sp)
     cd8:	2f05           	move.l d5,-(sp)
     cda:	4e93           	jsr (a3)
     cdc:	508f           	addq.l #8,sp
     cde:	2400           	move.l d0,d2
     ce0:	4878 000a      	pea a ___mulsi4+0x4
     ce4:	2f00           	move.l d0,-(sp)
     ce6:	4e92           	jsr (a2)
     ce8:	508f           	addq.l #8,sp
     cea:	4a80           	tst.l d0
     cec:	6600 0594      	bne.w 1282 __aio_writes+0x11a
     cf0:	2f3c 000f 4240 	move.l #1000000,-(sp)
     cf6:	2f05           	move.l d5,-(sp)
     cf8:	4e93           	jsr (a3)
     cfa:	508f           	addq.l #8,sp
     cfc:	2400           	move.l d0,d2
     cfe:	4878 000a      	pea a ___mulsi4+0x4
     d02:	2f00           	move.l d0,-(sp)
     d04:	4e92           	jsr (a2)
     d06:	508f           	addq.l #8,sp
     d08:	4a80           	tst.l d0
     d0a:	6600 057a      	bne.w 1286 __aio_writes+0x11e
     d0e:	2f3c           	.short 0x2f3c

00000d10 __aio_writes1:
     d10:	0098 9680 2f05 	ori.l #-1769984251,(a0)+
     d16:	4e93           	jsr (a3)
     d18:	508f           	addq.l #8,sp
     d1a:	2400           	move.l d0,d2
     d1c:	4878 000a      	pea a ___mulsi4+0x4
     d20:	2f00           	move.l d0,-(sp)
     d22:	4e92           	jsr (a2)
     d24:	508f           	addq.l #8,sp
     d26:	4a80           	tst.l d0
     d28:	6600 0560      	bne.w 128a __aio_writes+0x122
     d2c:	2f3c 05f5 e100 	move.l #100000000,-(sp)
     d32:	2f05           	move.l d5,-(sp)
     d34:	4e93           	jsr (a3)
     d36:	508f           	addq.l #8,sp
     d38:	2400           	move.l d0,d2
     d3a:	4878 000a      	pea a ___mulsi4+0x4
     d3e:	2f00           	move.l d0,-(sp)
     d40:	4e92           	jsr (a2)
     d42:	508f           	addq.l #8,sp
     d44:	4a80           	tst.l d0
     d46:	6600 0546      	bne.w 128e __aio_writes+0x126
     d4a:	2f3c           	.short 0x2f3c
     d4c:	3b9a           	.short 0x3b9a

00000d4e _CIRCLE:
     d4e:	ca00           	and.b d0,d5
     d50:	2f05           	move.l d5,-(sp)
     d52:	4e93           	jsr (a3)
     d54:	508f           	addq.l #8,sp
     d56:	224d           	movea.l a5,a1
     d58:	4a80           	tst.l d0
     d5a:	6600 0536      	bne.w 1292 __aio_writes+0x12a
     d5e:	1300           	move.b d0,-(a1)
     d60:	41e9 ffff      	lea -1(a1),a0
     d64:	137c 002e ffff 	move.b #46,-1(a1)
     d6a:	246d 000c      	movea.l 12(a5),a2
     d6e:	93c9           	suba.l a1,a1

00000d70 _RANDOMIZE:
     d70:	101a           	move.b (a2)+,d0
     d72:	6706           	beq.s d7a _RANDOMIZE+0xa
     d74:	5289           	addq.l #1,a1
     d76:	101a           	move.b (a2)+,d0
     d78:	66fa           	bne.s d74 _RANDOMIZE+0x4
     d7a:	d3ed 000c      	adda.l 12(a5),a1
     d7e:	2448           	movea.l a0,a2
     d80:	7000           	moveq #0,d0
     d82:	121a           	move.b (a2)+,d1
     d84:	6706           	beq.s d8c _RANDOMIZE+0x1c
     d86:	5280           	addq.l #1,d0
     d88:	121a           	move.b (a2)+,d1
     d8a:	66fa           	bne.s d86 _RANDOMIZE+0x16
     d8c:	5280           	addq.l #1,d0
     d8e:	2c79           	.short 0x2c79

00000d90 ____breakHandler:
     d90:	0000 0000      	ori.b #0,d0
			d90: RELOC32	.bss
     d94:	4eae fd90      	jsr -624(a6)
     d98:	4a46           	tst.w d6

00000d9a __amath_init:
     d9a:	6700 00be      	beq.w e5a __aio_writeu4+0x8e
     d9e:	206d 000c      	movea.l 12(a5),a0
     da2:	7000           	moveq #0,d0
     da4:	1218           	move.b (a0)+,d1
     da6:	6706           	beq.s dae __amath_init+0x14
     da8:	5280           	addq.l #1,d0
     daa:	1218           	move.b (a0)+,d1
     dac:	66fa           	bne.s da8 __amath_init+0xe
     dae:	206d 000c      	movea.l 12(a5),a0
     db2:	11bc 0065 0800 	move.b #101,(0,a0,d0.l)
     db8:	41f0 0801      	lea (1,a0,d0.l),a0
     dbc:	2808           	move.l a0,d4
     dbe:	10bc           	.short 0x10bc

00000dc0 __asound_init:
     dc0:	002d 3406 48c2 	ori.b #6,18626(a5)
     dc6:	4a46           	tst.w d6
     dc8:	6d00 02ba      	blt.w 1084 __aio_writef+0x88

00000dcc __aio_writeu4:
     dcc:	4245           	clr.w d5
     dce:	4a82           	tst.l d2
     dd0:	6700 02ee      	beq.w 10c0 __aio_writebool+0x10
     dd4:	2444           	movea.l d4,a2
     dd6:	7600           	moveq #0,d3
     dd8:	4df9 0000 0082 	lea 82 ___modsi3,a6
			dda: RELOC32	.text
     dde:	47f9 0000 008e 	lea 8e ___divsi3,a3
			de0: RELOC32	.text
     de4:	387c 0001      	movea.w #1,a4
     de8:	d9c3           	adda.l d3,a4
     dea:	4878 000a      	pea a ___mulsi4+0x4
     dee:	2f02           	move.l d2,-(sp)
     df0:	4e96           	jsr (a6)
     df2:	0600 0030      	addi.b #48,d0
     df6:	508f           	addq.l #8,sp
     df8:	14c0           	move.b d0,(a2)+
     dfa:	4878 000a      	pea a ___mulsi4+0x4
     dfe:	2f02           	move.l d2,-(sp)
     e00:	4e93           	jsr (a3)
     e02:	508f           	addq.l #8,sp
     e04:	2400           	move.l d0,d2
     e06:	6726           	beq.s e2e __aio_writeu4+0x62
     e08:	260c           	move.l a4,d3
     e0a:	387c 0001      	movea.w #1,a4
     e0e:	d9c3           	adda.l d3,a4
     e10:	4878 000a      	pea a ___mulsi4+0x4
     e14:	2f02           	move.l d2,-(sp)
     e16:	4e96           	jsr (a6)
     e18:	0600 0030      	addi.b #48,d0
     e1c:	508f           	addq.l #8,sp
     e1e:	14c0           	move.b d0,(a2)+
     e20:	4878 000a      	pea a ___mulsi4+0x4
     e24:	2f02           	move.l d2,-(sp)
     e26:	4e93           	jsr (a3)
     e28:	508f           	addq.l #8,sp
     e2a:	2400           	move.l d0,d2
     e2c:	66da           	bne.s e08 __aio_writeu4+0x3c
     e2e:	4a45           	tst.w d5
     e30:	6700 015c      	beq.w f8e __cstartup+0xa
     e34:	19bc 002d 4800 	move.b #45,(0,a4,d4.l)
     e3a:	2044           	movea.l d4,a0
     e3c:	1180 3802      	move.b d0,(2,a0,d3.l)
     e40:	2444           	movea.l d4,a2
     e42:	41f4 4801      	lea (1,a4,d4.l),a0
     e46:	220c           	move.l a4,d1
     e48:	7000           	moveq #0,d0
     e4a:	1412           	move.b (a2),d2
     e4c:	14e8 ffff      	move.b -1(a0),(a2)+
     e50:	1102           	move.b d2,-(a0)
     e52:	5280           	addq.l #1,d0
     e54:	5381           	subq.l #1,d1
     e56:	b280           	cmp.l d0,d1
     e58:	6ef0           	bgt.s e4a __aio_writeu4+0x7e
     e5a:	4ced 5cfc ffc0 	movem.l -64(a5),d2-d7/a2-a4/a6
     e60:	4e5d           	unlk a5
     e62:	4e75           	rts
     e64:	7a00           	moveq #0,d5
     e66:	4a47           	tst.w d7
     e68:	6628           	bne.s e92 __aio_writeu2+0xe
     e6a:	306d ffee      	movea.w -18(a5),a0
     e6e:	2b48 ffea      	move.l a0,-22(a5)
     e72:	4a83           	tst.l d3
     e74:	6600 00b2      	bne.w f28 __asound_shutdown+0x68
     e78:	4a6d ffee      	tst.w -18(a5)
     e7c:	661a           	bne.s e98 __aio_writeu2+0x14
     e7e:	206d 000c      	movea.l 12(a5),a0
     e82:	7001           	moveq #1,d0

00000e84 __aio_writeu2:
     e84:	11bc 0030 3800 	move.b #48,(0,a0,d3.l)
     e8a:	4230 0800      	clr.b (0,a0,d0.l)
     e8e:	6000 fda2      	bra.w c32 __aio_writes4+0x94
     e92:	4a83           	tst.l d3
     e94:	6600 008a      	bne.w f20 __asound_shutdown+0x60
     e98:	206d 000c      	movea.l 12(a5),a0
     e9c:	10bc 0020      	move.b #32,(a0)
     ea0:	7002           	moveq #2,d0
     ea2:	7201           	moveq #1,d1
     ea4:	11bc 0030 1800 	move.b #48,(0,a0,d1.l)
     eaa:	4230 0800      	clr.b (0,a0,d0.l)
     eae:	6000 fd82      	bra.w c32 __aio_writes4+0x94
     eb2:	2002           	move.l d2,d0
     eb4:	2239 0000 002c 	move.l 2c ___umodsi3+0x2,d1
			eb6: RELOC32	.bss
     eba:	4eae ffd6      	jsr -42(a6)
     ebe:	4a80           	tst.l d0

00000ec0 __asound_shutdown:
     ec0:	6d00 015e      	blt.w 1020 __aio_writef+0x24
     ec4:	2002           	move.l d2,d0
     ec6:	2239 0000 0030 	move.l 30 ___umodsi4,d1
			ec8: RELOC32	.bss
     ecc:	4eae ffd6      	jsr -42(a6)
     ed0:	4a80           	tst.l d0
     ed2:	6d00 0128      	blt.w ffc __aio_writef
     ed6:	2002           	move.l d2,d0
     ed8:	2239 0000 0034 	move.l 34 ___umodsi4+0x4,d1
			eda: RELOC32	.bss
     ede:	4eae ffd6      	jsr -42(a6)
     ee2:	4a80           	tst.l d0
     ee4:	6d00 00f2      	blt.w fd8 __cstartup+0x54
     ee8:	2002           	move.l d2,d0
     eea:	2239 0000 0038 	move.l 38 __aqb_clear+0x2,d1
			eec: RELOC32	.bss
     ef0:	4eae ffd6      	jsr -42(a6)
     ef4:	4a80           	tst.l d0
     ef6:	6d00 00ba      	blt.w fb2 __cstartup+0x2e
     efa:	2002           	move.l d2,d0
     efc:	2239 0000 0024 	move.l 24 __debug_putc+0x4,d1
			efe: RELOC32	.bss
     f02:	4eae ffd6      	jsr -42(a6)
     f06:	4a80           	tst.l d0
     f08:	6c00 fc12      	bge.w b1c ___ltsf2+0x1c
     f0c:	2039 0000 0018 	move.l 18 ___DARRAY_T_REDIM,d0
			f0e: RELOC32	.bss
     f12:	2202           	move.l d2,d1
     f14:	4eae ffb2      	jsr -78(a6)
     f18:	2400           	move.l d0,d2
     f1a:	5346           	subq.w #1,d6
     f1c:	6000 fbfe      	bra.w b1c ___ltsf2+0x1c
     f20:	307c 0001      	movea.w #1,a0
     f24:	2b48 ffea      	move.l a0,-22(a5)
     f28:	4a83           	tst.l d3
     f2a:	6d00 013c      	blt.w 1068 __aio_writef+0x6c
     f2e:	246d 000c      	movea.l 12(a5),a2
     f32:	4247           	clr.w d7
     f34:	284a           	movea.l a2,a4
     f36:	7800           	moveq #0,d4
     f38:	4df9 0000 0082 	lea 82 ___modsi3,a6
			f3a: RELOC32	.text
     f3e:	47f9           	.short 0x47f9

00000f40 __aio_writeu1:
     f40:	0000 008e      	ori.b #-114,d0
			f40: RELOC32	.text
     f44:	6000 fc76      	bra.w bbc __aio_writes4+0x1e
     f48:	2039 0000 0040 	move.l 40 __aqb_read2,d0
			f4a: RELOC32	.bss
     f4e:	2202           	move.l d2,d1
     f50:	4eae ffb2      	jsr -78(a6)
     f54:	2400           	move.l d0,d2
     f56:	3b7c 0001 ffee 	move.w #1,-18(a5)
     f5c:	2039 0000 0000 	move.l 0 _start,d0
			f5e: RELOC32	.bss
     f62:	2202           	move.l d2,d1
     f64:	4eae ffd6      	jsr -42(a6)
     f68:	4a80           	tst.l d0
     f6a:	6c00 fad6      	bge.w a42 ___floatsisf+0xc
     f6e:	4246           	clr.w d6
     f70:	6000 fb8c      	bra.w afe __aio_putbool+0x16
     f74:	4aad ffea      	tst.l -22(a5)
     f78:	6700 fc9a      	beq.w c14 __aio_writes4+0x76
     f7c:	206d 000c      	movea.l 12(a5),a0
     f80:	11bc           	.short 0x11bc
     f82:	0020           	Address 0x0000000000000f84 is out of bounds.
.short 0x0020

00000f84 __cstartup:
     f84:	2800           	move.l d0,d4
     f86:	7402           	moveq #2,d2
     f88:	d484           	add.l d4,d2
     f8a:	6000 fc88      	bra.w c14 __aio_writes4+0x76
     f8e:	200c           	move.l a4,d0
     f90:	2044           	movea.l d4,a0
     f92:	5483           	addq.l #2,d3
     f94:	11bc 0020 0800 	move.b #32,(0,a0,d0.l)
     f9a:	4230 3800      	clr.b (0,a0,d3.l)
     f9e:	200c           	move.l a4,d0
     fa0:	6700 feb8      	beq.w e5a __aio_writeu4+0x8e
     fa4:	2444           	movea.l d4,a2
     fa6:	41f4 4801      	lea (1,a4,d4.l),a0
     faa:	220c           	move.l a4,d1
     fac:	7000           	moveq #0,d0
     fae:	6000 fe9a      	bra.w e4a __aio_writeu4+0x7e
     fb2:	2039 0000 0014 	move.l 14 __aqb_read1+0x4,d0
			fb4: RELOC32	.bss
     fb8:	2202           	move.l d2,d1
     fba:	4eae ffb2      	jsr -78(a6)
     fbe:	2400           	move.l d0,d2
     fc0:	5546           	subq.w #2,d6
     fc2:	2002           	move.l d2,d0
     fc4:	2239 0000 0024 	move.l 24 __debug_putc+0x4,d1
			fc6: RELOC32	.bss
     fca:	4eae ffd6      	jsr -42(a6)
     fce:	4a80           	tst.l d0
     fd0:	6c00 fb4a      	bge.w b1c ___ltsf2+0x1c
     fd4:	6000 ff36      	bra.w f0c __asound_shutdown+0x4c
     fd8:	2039 0000 0010 	move.l 10 __aqb_read1,d0
			fda: RELOC32	.bss
     fde:	2202           	move.l d2,d1
     fe0:	4eae ffb2      	jsr -78(a6)
     fe4:	2400           	move.l d0,d2
     fe6:	5946           	subq.w #4,d6
     fe8:	2002           	move.l d2,d0
     fea:	2239 0000 0038 	move.l 38 __aqb_clear+0x2,d1
			fec: RELOC32	.bss
     ff0:	4eae ffd6      	jsr -42(a6)
     ff4:	4a80           	tst.l d0
     ff6:	6c00 ff02      	bge.w efa __asound_shutdown+0x3a
     ffa:	60b6           	bra.s fb2 __cstartup+0x2e

00000ffc __aio_writef:
     ffc:	2039 0000 000c 	move.l c _SCREEN,d0
			ffe: RELOC32	.bss
    1002:	2202           	move.l d2,d1
    1004:	4eae ffb2      	jsr -78(a6)
    1008:	2400           	move.l d0,d2
    100a:	5146           	subq.w #8,d6
    100c:	2002           	move.l d2,d0
    100e:	2239 0000 0034 	move.l 34 ___umodsi4+0x4,d1
			1010: RELOC32	.bss
    1014:	4eae ffd6      	jsr -42(a6)
    1018:	4a80           	tst.l d0
    101a:	6c00 fecc      	bge.w ee8 __asound_shutdown+0x28
    101e:	60b8           	bra.s fd8 __cstartup+0x54
    1020:	2039 0000 0008 	move.l 8 ___mulsi4+0x2,d0
			1022: RELOC32	.bss
    1026:	2202           	move.l d2,d1
    1028:	4eae ffb2      	jsr -78(a6)
    102c:	2400           	move.l d0,d2
    102e:	0646 fff0      	addi.w #-16,d6
    1032:	2002           	move.l d2,d0
    1034:	2239 0000 0030 	move.l 30 ___umodsi4,d1
			1036: RELOC32	.bss
    103a:	4eae ffd6      	jsr -42(a6)
    103e:	4a80           	tst.l d0
    1040:	6c00 fe94      	bge.w ed6 __asound_shutdown+0x16
    1044:	60b6           	bra.s ffc __aio_writef
    1046:	7c08           	moveq #8,d6
    1048:	4243           	clr.w d3
    104a:	2c79 0000 0008 	movea.l 8 ___mulsi4+0x2,a6
			104c: RELOC32	.bss
    1050:	2002           	move.l d2,d0
    1052:	2239 0000 000c 	move.l c _SCREEN,d1
			1054: RELOC32	.bss
    1058:	4eae ffd6      	jsr -42(a6)
    105c:	4a80           	tst.l d0
    105e:	6c00 fa24      	bge.w a84 _ON_EXIT_CALL+0x10
    1062:	3c03           	move.w d3,d6
    1064:	6000 fa32      	bra.w a98 ___divsf3+0xc
    1068:	4483           	neg.l d3
    106a:	246d 000c      	movea.l 12(a5),a2
    106e:	7e01           	moveq #1,d7
    1070:	284a           	movea.l a2,a4
    1072:	7800           	moveq #0,d4
    1074:	4df9 0000 0082 	lea 82 ___modsi3,a6
			1076: RELOC32	.text
    107a:	47f9 0000 008e 	lea 8e ___divsi3,a3
			107c: RELOC32	.text
    1080:	6000 fb3a      	bra.w bbc __aio_writes4+0x1e
    1084:	4482           	neg.l d2
    1086:	7a01           	moveq #1,d5
    1088:	2444           	movea.l d4,a2
    108a:	7600           	moveq #0,d3
    108c:	4df9 0000 0082 	lea 82 ___modsi3,a6
			108e: RELOC32	.text
    1092:	47f9 0000 008e 	lea 8e ___divsi3,a3
			1094: RELOC32	.text
    1098:	6000 fd4a      	bra.w de4 __aio_writeu4+0x18
    109c:	306d ffee      	movea.w -18(a5),a0
    10a0:	2b48 ffea      	move.l a0,-22(a5)
    10a4:	7a00           	moveq #0,d5
    10a6:	246d 000c      	movea.l 12(a5),a2
    10aa:	7601           	moveq #1,d3
    10ac:	284a           	movea.l a2,a4
    10ae:	7800           	moveq #0,d4

000010b0 __aio_writebool:
    10b0:	4df9 0000 0082 	lea 82 ___modsi3,a6
			10b2: RELOC32	.text
    10b6:	47f9 0000 008e 	lea 8e ___divsi3,a3
			10b8: RELOC32	.text
    10bc:	6000 fafe      	bra.w bbc __aio_writes4+0x1e
    10c0:	2842           	movea.l d2,a4
    10c2:	2044           	movea.l d4,a0
    10c4:	7201           	moveq #1,d1
    10c6:	11bc 0020 2800 	move.b #32,(0,a0,d2.l)
    10cc:	4230 1800      	clr.b (0,a0,d1.l)
    10d0:	200c           	move.l a4,d0
    10d2:	6600 fed0      	bne.w fa4 __cstartup+0x20
    10d6:	6000 fd82      	bra.w e5a __aio_writeu4+0x8e
    10da:	422d ffff      	clr.b -1(a5)
    10de:	4878 000a      	pea a ___mulsi4+0x4
    10e2:	2f05           	move.l d5,-(sp)
    10e4:	0600 0030      	addi.b #48,d0
    10e8:	508f           	addq.l #8,sp
    10ea:	1b40 fffe      	move.b d0,-2(a5)
    10ee:	47f9 0000 0036 	lea 36 __aqb_clear,a3
			10f0: RELOC32	.text
    10f4:	4878 000a      	pea a ___mulsi4+0x4
    10f8:	2f05           	move.l d5,-(sp)
    10fa:	4e93           	jsr (a3)
    10fc:	508f           	addq.l #8,sp
    10fe:	4878 000a      	pea a ___mulsi4+0x4
    1102:	2f00           	move.l d0,-(sp)
    1104:	4e92           	jsr (a2)
    1106:	0600 0030      	addi.b #48,d0
    110a:	508f           	addq.l #8,sp
    110c:	1b40 fffd      	move.b d0,-3(a5)
    1110:	4878 0064      	pea 64 __aqb_read2+0x24
    1114:	2f05           	move.l d5,-(sp)
    1116:	4e93           	jsr (a3)
    1118:	508f           	addq.l #8,sp
    111a:	2400           	move.l d0,d2
    111c:	7808           	moveq #8,d4
    111e:	7606           	moveq #6,d3
    1120:	4878 000a      	pea a ___mulsi4+0x4
    1124:	2f02           	move.l d2,-(sp)
    1126:	4e92           	jsr (a2)
    1128:	0600 0030      	addi.b #48,d0
    112c:	508f           	addq.l #8,sp
    112e:	1b40 fffc      	move.b d0,-4(a5)
    1132:	4878 000a      	pea a ___mulsi4+0x4
    1136:	2f02           	move.l d2,-(sp)
    1138:	4e93           	jsr (a3)
    113a:	508f           	addq.l #8,sp
    113c:	4a83           	tst.l d3
    113e:	6700 00c2      	beq.w 1202 __aio_writes+0x9a
    1142:	4878 000a      	pea a ___mulsi4+0x4
    1146:	2f00           	move.l d0,-(sp)
    1148:	4e92           	jsr (a2)
    114a:	0600 0030      	addi.b #48,d0
    114e:	508f           	addq.l #8,sp
    1150:	1b40           	.short 0x1b40

00001152 _deadKeyConvert:
    1152:	fffb           	.short 0xfffb
    1154:	4878 0064      	pea 64 __aqb_read2+0x24
    1158:	2f02           	move.l d2,-(sp)
    115a:	4e93           	jsr (a3)
    115c:	508f           	addq.l #8,sp
    115e:	7201           	moveq #1,d1
    1160:	b283           	cmp.l d3,d1
    1162:	6700 009e      	beq.w 1202 __aio_writes+0x9a
    1166:	4878           	.short 0x4878

00001168 __aio_writes:
    1168:	000a           	.short 0x000a
    116a:	2f00           	move.l d0,-(sp)
    116c:	4e92           	jsr (a2)
    116e:	0600 0030      	addi.b #48,d0
    1172:	508f           	addq.l #8,sp
    1174:	1b40 fffa      	move.b d0,-6(a5)
    1178:	4878 03e8      	pea 3e8 __aio_puts1+0xe
    117c:	2f02           	move.l d2,-(sp)
    117e:	4e93           	jsr (a3)
    1180:	508f           	addq.l #8,sp
    1182:	7202           	moveq #2,d1
    1184:	b283           	cmp.l d3,d1
    1186:	677a           	beq.s 1202 __aio_writes+0x9a
    1188:	4878 000a      	pea a ___mulsi4+0x4
    118c:	2f00           	move.l d0,-(sp)
    118e:	4e92           	jsr (a2)
    1190:	0600 0030      	addi.b #48,d0
    1194:	508f           	addq.l #8,sp
    1196:	1b40 fff9      	move.b d0,-7(a5)
    119a:	4878 2710      	pea 2710 __astr_init+0x94
    119e:	2f02           	move.l d2,-(sp)
    11a0:	4e93           	jsr (a3)
    11a2:	508f           	addq.l #8,sp
    11a4:	7203           	moveq #3,d1
    11a6:	b283           	cmp.l d3,d1
    11a8:	6758           	beq.s 1202 __aio_writes+0x9a
    11aa:	4878 000a      	pea a ___mulsi4+0x4
    11ae:	2f00           	move.l d0,-(sp)
    11b0:	4e92           	jsr (a2)
    11b2:	0600 0030      	addi.b #48,d0
    11b6:	508f           	addq.l #8,sp
    11b8:	1b40 fff8      	move.b d0,-8(a5)
    11bc:	2f3c 0001 86a0 	move.l #100000,-(sp)
    11c2:	2f02           	move.l d2,-(sp)
    11c4:	4e93           	jsr (a3)
    11c6:	508f           	addq.l #8,sp
    11c8:	7204           	moveq #4,d1
    11ca:	b283           	cmp.l d3,d1
    11cc:	6734           	beq.s 1202 __aio_writes+0x9a
    11ce:	4878 000a      	pea a ___mulsi4+0x4
    11d2:	2f00           	move.l d0,-(sp)
    11d4:	4e92           	jsr (a2)
    11d6:	0600 0030      	addi.b #48,d0
    11da:	508f           	addq.l #8,sp
    11dc:	1b40 fff7      	move.b d0,-9(a5)
    11e0:	2f3c 000f 4240 	move.l #1000000,-(sp)
    11e6:	2f02           	move.l d2,-(sp)
    11e8:	4e93           	jsr (a3)
    11ea:	508f           	addq.l #8,sp
    11ec:	5b83           	subq.l #5,d3
    11ee:	6712           	beq.s 1202 __aio_writes+0x9a
    11f0:	4878 000a      	pea a ___mulsi4+0x4
    11f4:	2f00           	move.l d0,-(sp)
    11f6:	4e92           	jsr (a2)
    11f8:	0600 0030      	addi.b #48,d0
    11fc:	508f           	addq.l #8,sp
    11fe:	1b40 fff6      	move.b d0,-10(a5)
    1202:	4684           	not.l d4
    1204:	43f5 48ff      	lea (-1,a5,d4.l),a1
    1208:	41e9 ffff      	lea -1(a1),a0
    120c:	137c 002e ffff 	move.b #46,-1(a1)
    1212:	246d 000c      	movea.l 12(a5),a2
    1216:	93c9           	suba.l a1,a1
    1218:	6000 fb56      	bra.w d70 _RANDOMIZE
    121c:	7a09           	moveq #9,d5
    121e:	422d ffff      	clr.b -1(a5)
    1222:	78fe           	moveq #-2,d4
    1224:	d885           	add.l d5,d4
    1226:	4878 000a      	pea a ___mulsi4+0x4
    122a:	2f02           	move.l d2,-(sp)
    122c:	4e92           	jsr (a2)
    122e:	0600 0030      	addi.b #48,d0
    1232:	508f           	addq.l #8,sp
    1234:	1b40 fffe      	move.b d0,-2(a5)
    1238:	4878 000a      	pea a ___mulsi4+0x4
    123c:	2f02           	move.l d2,-(sp)
    123e:	4e93           	jsr (a3)
    1240:	508f           	addq.l #8,sp
    1242:	4a84           	tst.l d4
    1244:	67bc           	beq.s 1202 __aio_writes+0x9a
    1246:	4878 000a      	pea a ___mulsi4+0x4
    124a:	2f00           	move.l d0,-(sp)
    124c:	4e92           	jsr (a2)
    124e:	0600 0030      	addi.b #48,d0
    1252:	508f           	addq.l #8,sp
    1254:	1b40 fffd      	move.b d0,-3(a5)
    1258:	4878 0064      	pea 64 __aqb_read2+0x24
    125c:	2f02           	move.l d2,-(sp)
    125e:	4e93           	jsr (a3)
    1260:	508f           	addq.l #8,sp
    1262:	2400           	move.l d0,d2
    1264:	76fc           	moveq #-4,d3
    1266:	d685           	add.l d5,d3
    1268:	5785           	subq.l #3,d5
    126a:	6600 feb4      	bne.w 1120 __aio_writebool+0x70
    126e:	4684           	not.l d4
    1270:	43f5 48ff      	lea (-1,a5,d4.l),a1
    1274:	6092           	bra.s 1208 __aio_writes+0xa0
    1276:	7a08           	moveq #8,d5
    1278:	60a4           	bra.s 121e __aio_writes+0xb6
    127a:	7a07           	moveq #7,d5
    127c:	60a0           	bra.s 121e __aio_writes+0xb6
    127e:	7a06           	moveq #6,d5
    1280:	609c           	bra.s 121e __aio_writes+0xb6
    1282:	7a05           	moveq #5,d5
    1284:	6098           	bra.s 121e __aio_writes+0xb6
    1286:	7a04           	moveq #4,d5
    1288:	6094           	bra.s 121e __aio_writes+0xb6
    128a:	7a03           	moveq #3,d5
    128c:	6090           	bra.s 121e __aio_writes+0xb6
    128e:	7a02           	moveq #2,d5
    1290:	608c           	bra.s 121e __aio_writes+0xb6
    1292:	4221           	clr.b -(a1)
    1294:	41e9 ffff      	lea -1(a1),a0
    1298:	137c 002e ffff 	move.b #46,-1(a1)
    129e:	246d 000c      	movea.l 12(a5),a2
    12a2:	93c9           	suba.l a1,a1
    12a4:	6000 faca      	bra.w d70 _RANDOMIZE

000012a8 __astr_ftoa:
    12a8:	4e55 0000      	link.w a5,#0
    12ac:	4878 0001      	pea 1 _start+0x1
    12b0:	2f2d 000c      	move.l 12(a5),-(sp)
    12b4:	2f2d 0008      	move.l 8(a5),-(sp)
    12b8:	4eba f74a      	jsr a04 __astr_ftoa_ext(pc)
    12bc:	4fef 000c      	lea 12(sp),sp
    12c0:	4e5d           	unlk a5
    12c2:	4e75           	rts

000012c4 __astr_strchr:
    12c4:	4e55 0000      	link.w a5,#0
    12c8:	122d 000f      	move.b 15(a5),d1
    12cc:	226d 0008      	movea.l 8(a5),a1
    12d0:	2049           	movea.l a1,a0
    12d2:	1019           	move.b (a1)+,d0
    12d4:	670a           	beq.s 12e0 __astr_strchr+0x1c
    12d6:	b200           	cmp.b d0,d1
    12d8:	66f6           	bne.s 12d0 __astr_strchr+0xc
    12da:	2008           	move.l a0,d0
    12dc:	4e5d           	unlk a5
    12de:	4e75           	rts
    12e0:	7000           	moveq #0,d0
    12e2:	2040           	movea.l d0,a0
    12e4:	4e5d           	unlk a5
    12e6:	4e75           	rts

000012e8 __s1toa_:
    12e8:	4e55 ffd8      	link.w a5,#-40
    12ec:	48e7 3c3a      	movem.l d2-d5/a2-a4/a6,-(sp)
    12f0:	142d 000b      	move.b 11(a5),d2
    12f4:	4882           	ext.w d2
    12f6:	48c2           	ext.l d2
    12f8:	664e           	bne.s 1348 __s1toa_+0x60
    12fa:	1b7c 0020 ffd8 	move.b #32,-40(a5)
    1300:	1b7c 0030 ffd9 	move.b #48,-39(a5)
    1306:	1b42 ffda      	move.b d2,-38(a5)
    130a:	7220           	moveq #32,d1
    130c:	7000           	moveq #0,d0
    130e:	4a01           	tst.b d1
    1310:	6708           	beq.s 131a __s1toa_+0x32
    1312:	5280           	addq.l #1,d0
    1314:	1235 08d8      	move.b (-40,a5,d0.l),d1
    1318:	66f8           	bne.s 1312 __s1toa_+0x2a
    131a:	7401           	moveq #1,d2
    131c:	d480           	add.l d0,d2
    131e:	42a7           	clr.l -(sp)
    1320:	2f02           	move.l d2,-(sp)
    1322:	4eb9 0000 0000 	jsr 0 _start
			1324: RELOC32	.text
    1328:	2600           	move.l d0,d3
    132a:	2c79 0000 0000 	movea.l 0 _start,a6
			132c: RELOC32	.bss
    1330:	41ed ffd8      	lea -40(a5),a0
    1334:	2240           	movea.l d0,a1
    1336:	2002           	move.l d2,d0
    1338:	4eae fd90      	jsr -624(a6)
    133c:	2003           	move.l d3,d0
    133e:	4ced 5c3c ffb8 	movem.l -72(a5),d2-d5/a2-a4/a6
    1344:	4e5d           	unlk a5
    1346:	4e75           	rts
    1348:	4a82           	tst.l d2
    134a:	6d00 00a4      	blt.w 13f0 __aio_writecomma+0xa2

0000134e __aio_writecomma:
    134e:	45ed ffd8      	lea -40(a5),a2
    1352:	4245           	clr.w d5
    1354:	264a           	movea.l a2,a3
    1356:	7800           	moveq #0,d4
    1358:	4df9 0000 0082 	lea 82 ___modsi3,a6
			135a: RELOC32	.text
    135e:	49f9 0000 008e 	lea 8e ___divsi3,a4
			1360: RELOC32	.text
    1364:	7601           	moveq #1,d3
    1366:	d684           	add.l d4,d3
    1368:	4878 000a      	pea a ___mulsi4+0x4
    136c:	2f02           	move.l d2,-(sp)
    136e:	4e96           	jsr (a6)
    1370:	0600 0030      	addi.b #48,d0
    1374:	508f           	addq.l #8,sp
    1376:	16c0           	move.b d0,(a3)+
    1378:	4878 000a      	pea a ___mulsi4+0x4
    137c:	2f02           	move.l d2,-(sp)
    137e:	4e94           	jsr (a4)
    1380:	508f           	addq.l #8,sp
    1382:	2400           	move.l d0,d2
    1384:	6724           	beq.s 13aa __aio_writecomma+0x5c
    1386:	2803           	move.l d3,d4
    1388:	7601           	moveq #1,d3
    138a:	d684           	add.l d4,d3
    138c:	4878 000a      	pea a ___mulsi4+0x4
    1390:	2f02           	move.l d2,-(sp)
    1392:	4e96           	jsr (a6)
    1394:	0600 0030      	addi.b #48,d0
    1398:	508f           	addq.l #8,sp
    139a:	16c0           	move.b d0,(a3)+
    139c:	4878 000a      	pea a ___mulsi4+0x4
    13a0:	2f02           	move.l d2,-(sp)
    13a2:	4e94           	jsr (a4)
    13a4:	508f           	addq.l #8,sp
    13a6:	2400           	move.l d0,d2
    13a8:	66dc           	bne.s 1386 __aio_writecomma+0x38
    13aa:	5484           	addq.l #2,d4
    13ac:	4a45           	tst.w d5
    13ae:	662c           	bne.s 13dc __aio_writecomma+0x8e
    13b0:	1bbc 0020 38d8 	move.b #32,(-40,a5,d3.l)
    13b6:	4235 48d8      	clr.b (-40,a5,d4.l)
    13ba:	41f5 38d9      	lea (-39,a5,d3.l),a0
    13be:	2003           	move.l d3,d0
    13c0:	7200           	moveq #0,d1
    13c2:	1412           	move.b (a2),d2
    13c4:	14e8 ffff      	move.b -1(a0),(a2)+
    13c8:	1102           	move.b d2,-(a0)
    13ca:	5281           	addq.l #1,d1
    13cc:	5380           	subq.l #1,d0
    13ce:	b081           	cmp.l d1,d0
    13d0:	6ef0           	bgt.s 13c2 __aio_writecomma+0x74
    13d2:	122d ffd8      	move.b -40(a5),d1
    13d6:	7000           	moveq #0,d0
    13d8:	6000 ff34      	bra.w 130e __s1toa_+0x26
    13dc:	1bbc 002d 38d8 	move.b #45,(-40,a5,d3.l)
    13e2:	4235 48d8      	clr.b (-40,a5,d4.l)
    13e6:	41f5 38d9      	lea (-39,a5,d3.l),a0
    13ea:	2003           	move.l d3,d0
    13ec:	7200           	moveq #0,d1
    13ee:	60d2           	bra.s 13c2 __aio_writecomma+0x74
    13f0:	4482           	neg.l d2
    13f2:	45ed ffd8      	lea -40(a5),a2
    13f6:	7a01           	moveq #1,d5
    13f8:	264a           	movea.l a2,a3
    13fa:	7800           	moveq #0,d4
    13fc:	4df9 0000 0082 	lea 82 ___modsi3,a6
			13fe: RELOC32	.text
    1402:	49f9 0000 008e 	lea 8e ___divsi3,a4
			1404: RELOC32	.text
    1408:	6000 ff5a      	bra.w 1364 __aio_writecomma+0x16

0000140c __s2toa_:
    140c:	4e55 ffd8      	link.w a5,#-40
    1410:	48e7 3c3a      	movem.l d2-d5/a2-a4/a6,-(sp)
    1414:	362d 000a      	move.w 10(a5),d3
    1418:	48c3           	ext.l d3
    141a:	664e           	bne.s 146a ___brt_init+0x42
    141c:	1b7c 0020 ffd8 	move.b #32,-40(a5)
    1422:	1b7c 0030 ffd9 	move.b #48,-39(a5)

00001428 ___brt_init:
    1428:	1b43 ffda      	move.b d3,-38(a5)
    142c:	7220           	moveq #32,d1
    142e:	7000           	moveq #0,d0
    1430:	4a01           	tst.b d1
    1432:	6708           	beq.s 143c ___brt_init+0x14
    1434:	5280           	addq.l #1,d0
    1436:	1235 08d8      	move.b (-40,a5,d0.l),d1
    143a:	66f8           	bne.s 1434 ___brt_init+0xc
    143c:	7401           	moveq #1,d2
    143e:	d480           	add.l d0,d2
    1440:	42a7           	clr.l -(sp)
    1442:	2f02           	move.l d2,-(sp)
    1444:	4eb9 0000 0000 	jsr 0 _start
			1446: RELOC32	.text
    144a:	2600           	move.l d0,d3
    144c:	2c79 0000 0000 	movea.l 0 _start,a6
			144e: RELOC32	.bss
    1452:	41ed ffd8      	lea -40(a5),a0
    1456:	2240           	movea.l d0,a1
    1458:	2002           	move.l d2,d0
    145a:	4eae fd90      	jsr -624(a6)
    145e:	2003           	move.l d3,d0
    1460:	4ced 5c3c ffb8 	movem.l -72(a5),d2-d5/a2-a4/a6
    1466:	4e5d           	unlk a5
    1468:	4e75           	rts
    146a:	4a83           	tst.l d3
    146c:	6d00 00a4      	blt.w 1512 __aio_line_input+0x24
    1470:	45ed ffd8      	lea -40(a5),a2
    1474:	4245           	clr.w d5
    1476:	264a           	movea.l a2,a3
    1478:	7800           	moveq #0,d4
    147a:	4df9 0000 0082 	lea 82 ___modsi3,a6
			147c: RELOC32	.text
    1480:	49f9 0000 008e 	lea 8e ___divsi3,a4
			1482: RELOC32	.text
    1486:	7401           	moveq #1,d2
    1488:	d484           	add.l d4,d2
    148a:	4878 000a      	pea a ___mulsi4+0x4
    148e:	2f03           	move.l d3,-(sp)
    1490:	4e96           	jsr (a6)
    1492:	0600 0030      	addi.b #48,d0
    1496:	508f           	addq.l #8,sp
    1498:	16c0           	move.b d0,(a3)+
    149a:	4878 000a      	pea a ___mulsi4+0x4
    149e:	2f03           	move.l d3,-(sp)
    14a0:	4e94           	jsr (a4)
    14a2:	508f           	addq.l #8,sp
    14a4:	2600           	move.l d0,d3
    14a6:	6724           	beq.s 14cc ___brt_init+0xa4
    14a8:	2802           	move.l d2,d4
    14aa:	7401           	moveq #1,d2
    14ac:	d484           	add.l d4,d2
    14ae:	4878 000a      	pea a ___mulsi4+0x4
    14b2:	2f03           	move.l d3,-(sp)
    14b4:	4e96           	jsr (a6)
    14b6:	0600 0030      	addi.b #48,d0
    14ba:	508f           	addq.l #8,sp
    14bc:	16c0           	move.b d0,(a3)+
    14be:	4878 000a      	pea a ___mulsi4+0x4
    14c2:	2f03           	move.l d3,-(sp)
    14c4:	4e94           	jsr (a4)
    14c6:	508f           	addq.l #8,sp
    14c8:	2600           	move.l d0,d3
    14ca:	66dc           	bne.s 14a8 ___brt_init+0x80
    14cc:	5484           	addq.l #2,d4
    14ce:	4a45           	tst.w d5
    14d0:	662c           	bne.s 14fe __aio_line_input+0x10
    14d2:	1bbc 0020 28d8 	move.b #32,(-40,a5,d2.l)
    14d8:	4235 48d8      	clr.b (-40,a5,d4.l)
    14dc:	41f5 28d9      	lea (-39,a5,d2.l),a0
    14e0:	2002           	move.l d2,d0
    14e2:	7200           	moveq #0,d1
    14e4:	1412           	move.b (a2),d2
    14e6:	14e8 ffff      	move.b -1(a0),(a2)+
    14ea:	1102           	move.b d2,-(a0)
    14ec:	5281           	addq.l #1,d1

000014ee __aio_line_input:
    14ee:	5380           	subq.l #1,d0
    14f0:	b081           	cmp.l d1,d0
    14f2:	6ef0           	bgt.s 14e4 ___brt_init+0xbc
    14f4:	122d ffd8      	move.b -40(a5),d1
    14f8:	7000           	moveq #0,d0
    14fa:	6000 ff34      	bra.w 1430 ___brt_init+0x8
    14fe:	1bbc 002d 28d8 	move.b #45,(-40,a5,d2.l)
    1504:	4235 48d8      	clr.b (-40,a5,d4.l)
    1508:	41f5 28d9      	lea (-39,a5,d2.l),a0
    150c:	2002           	move.l d2,d0
    150e:	7200           	moveq #0,d1
    1510:	60d2           	bra.s 14e4 ___brt_init+0xbc
    1512:	4483           	neg.l d3
    1514:	45ed ffd8      	lea -40(a5),a2
    1518:	7a01           	moveq #1,d5
    151a:	264a           	movea.l a2,a3
    151c:	7800           	moveq #0,d4
    151e:	4df9 0000 0082 	lea 82 ___modsi3,a6
			1520: RELOC32	.text
    1524:	49f9 0000 008e 	lea 8e ___divsi3,a4
			1526: RELOC32	.text
    152a:	6000 ff5a      	bra.w 1486 ___brt_init+0x5e

0000152e __s4toa_:
    152e:	4e55 ffd8      	link.w a5,#-40
    1532:	48e7 3c3a      	movem.l d2-d5/a2-a4/a6,-(sp)
    1536:	262d 0008      	move.l 8(a5),d3
    153a:	664e           	bne.s 158a __s4toa_+0x5c
    153c:	1b7c 0020 ffd8 	move.b #32,-40(a5)
    1542:	1b7c 0030 ffd9 	move.b #48,-39(a5)
    1548:	1b43 ffda      	move.b d3,-38(a5)
    154c:	7220           	moveq #32,d1
    154e:	7000           	moveq #0,d0
    1550:	4a01           	tst.b d1
    1552:	6708           	beq.s 155c __s4toa_+0x2e
    1554:	5280           	addq.l #1,d0
    1556:	1235 08d8      	move.b (-40,a5,d0.l),d1
    155a:	66f8           	bne.s 1554 __s4toa_+0x26
    155c:	7401           	moveq #1,d2
    155e:	d480           	add.l d0,d2
    1560:	42a7           	clr.l -(sp)
    1562:	2f02           	move.l d2,-(sp)
    1564:	4eb9 0000 0000 	jsr 0 _start
			1566: RELOC32	.text
    156a:	2600           	move.l d0,d3
    156c:	2c79 0000 0000 	movea.l 0 _start,a6
			156e: RELOC32	.bss
    1572:	41ed ffd8      	lea -40(a5),a0
    1576:	2240           	movea.l d0,a1
    1578:	2002           	move.l d2,d0
    157a:	4eae fd90      	jsr -624(a6)
    157e:	2003           	move.l d3,d0
    1580:	4ced 5c3c ffb8 	movem.l -72(a5),d2-d5/a2-a4/a6
    1586:	4e5d           	unlk a5
    1588:	4e75           	rts
    158a:	4a83           	tst.l d3
    158c:	6d00 00a4      	blt.w 1632 _SLEEP+0x62
    1590:	45ed ffd8      	lea -40(a5),a2
    1594:	4245           	clr.w d5
    1596:	264a           	movea.l a2,a3
    1598:	7800           	moveq #0,d4
    159a:	4df9 0000 0082 	lea 82 ___modsi3,a6
			159c: RELOC32	.text
    15a0:	49f9 0000 008e 	lea 8e ___divsi3,a4
			15a2: RELOC32	.text
    15a6:	7401           	moveq #1,d2
    15a8:	d484           	add.l d4,d2
    15aa:	4878 000a      	pea a ___mulsi4+0x4
    15ae:	2f03           	move.l d3,-(sp)
    15b0:	4e96           	jsr (a6)
    15b2:	0600 0030      	addi.b #48,d0
    15b6:	508f           	addq.l #8,sp
    15b8:	16c0           	move.b d0,(a3)+
    15ba:	4878 000a      	pea a ___mulsi4+0x4
    15be:	2f03           	move.l d3,-(sp)
    15c0:	4e94           	jsr (a4)
    15c2:	508f           	addq.l #8,sp
    15c4:	2600           	move.l d0,d3
    15c6:	6724           	beq.s 15ec _SLEEP+0x1c
    15c8:	2802           	move.l d2,d4
    15ca:	7401           	moveq #1,d2
    15cc:	d484           	add.l d4,d2
    15ce:	4878           	.short 0x4878

000015d0 _SLEEP:
    15d0:	000a           	.short 0x000a
    15d2:	2f03           	move.l d3,-(sp)
    15d4:	4e96           	jsr (a6)
    15d6:	0600 0030      	addi.b #48,d0
    15da:	508f           	addq.l #8,sp
    15dc:	16c0           	move.b d0,(a3)+
    15de:	4878 000a      	pea a ___mulsi4+0x4
    15e2:	2f03           	move.l d3,-(sp)
    15e4:	4e94           	jsr (a4)
    15e6:	508f           	addq.l #8,sp
    15e8:	2600           	move.l d0,d3
    15ea:	66dc           	bne.s 15c8 __s4toa_+0x9a
    15ec:	5484           	addq.l #2,d4
    15ee:	4a45           	tst.w d5
    15f0:	672c           	beq.s 161e _SLEEP+0x4e
    15f2:	1bbc 002d 28d8 	move.b #45,(-40,a5,d2.l)
    15f8:	4235 48d8      	clr.b (-40,a5,d4.l)
    15fc:	41f5 28d9      	lea (-39,a5,d2.l),a0
    1600:	2002           	move.l d2,d0
    1602:	7200           	moveq #0,d1
    1604:	1412           	move.b (a2),d2
    1606:	14e8 ffff      	move.b -1(a0),(a2)+
    160a:	1102           	move.b d2,-(a0)
    160c:	5281           	addq.l #1,d1
    160e:	5380           	subq.l #1,d0
    1610:	b081           	cmp.l d1,d0
    1612:	6ef0           	bgt.s 1604 _SLEEP+0x34
    1614:	122d ffd8      	move.b -40(a5),d1
    1618:	7000           	moveq #0,d0
    161a:	6000 ff34      	bra.w 1550 __s4toa_+0x22
    161e:	1bbc 0020 28d8 	move.b #32,(-40,a5,d2.l)
    1624:	4235 48d8      	clr.b (-40,a5,d4.l)
    1628:	41f5 28d9      	lea (-39,a5,d2.l),a0
    162c:	2002           	move.l d2,d0
    162e:	7200           	moveq #0,d1
    1630:	60d2           	bra.s 1604 _SLEEP+0x34
    1632:	4483           	neg.l d3
    1634:	45ed ffd8      	lea -40(a5),a2
    1638:	7a01           	moveq #1,d5
    163a:	264a           	movea.l a2,a3
    163c:	7800           	moveq #0,d4
    163e:	4df9 0000 0082 	lea 82 ___modsi3,a6
			1640: RELOC32	.text
    1644:	49f9 0000 008e 	lea 8e ___divsi3,a4
			1646: RELOC32	.text
    164a:	6000 ff5a      	bra.w 15a6 __s4toa_+0x78

0000164e __u1toa_:
    164e:	4e55 ffd8      	link.w a5,#-40
    1652:	48e7           	Address 0x0000000000001654 is out of bounds.
.short 0x48e7

00001654 _VWAIT:
    1654:	383a 7400      	move.w 8a56 __awindow_init+0x4ba0(pc),d4
    1658:	142d 000b      	move.b 11(a5),d2
    165c:	4a82           	tst.l d2
    165e:	664e           	bne.s 16ae _WINDOW_+0x6
    1660:	1b7c 0020 ffd8 	move.b #32,-40(a5)
    1666:	1b7c 0030 ffd9 	move.b #48,-39(a5)
    166c:	1b42 ffda      	move.b d2,-38(a5)
    1670:	7220           	moveq #32,d1

00001672 _ON_WINDOW_CLOSE_CALL:
    1672:	7000           	moveq #0,d0
    1674:	4a01           	tst.b d1
    1676:	6708           	beq.s 1680 _ON_WINDOW_CLOSE_CALL+0xe
    1678:	5280           	addq.l #1,d0
    167a:	1235 08d8      	move.b (-40,a5,d0.l),d1
    167e:	66f8           	bne.s 1678 _ON_WINDOW_CLOSE_CALL+0x6
    1680:	7401           	moveq #1,d2
    1682:	d480           	add.l d0,d2
    1684:	42a7           	clr.l -(sp)
    1686:	2f02           	move.l d2,-(sp)
    1688:	4eb9 0000 0000 	jsr 0 _start
			168a: RELOC32	.text
    168e:	2600           	move.l d0,d3
    1690:	2c79 0000 0000 	movea.l 0 _start,a6
			1692: RELOC32	.bss
    1696:	41ed ffd8      	lea -40(a5),a0
    169a:	2240           	movea.l d0,a1
    169c:	2002           	move.l d2,d0
    169e:	4eae fd90      	jsr -624(a6)
    16a2:	2003           	move.l d3,d0
    16a4:	4ced           	.short 0x4ced
    16a6:	5c1c           	addq.b #6,(a4)+

000016a8 _WINDOW_:
    16a8:	ffbc           	.short 0xffbc
    16aa:	4e5d           	unlk a5
    16ac:	4e75           	rts
    16ae:	45ed ffd8      	lea -40(a5),a2
    16b2:	264a           	movea.l a2,a3
    16b4:	7800           	moveq #0,d4
    16b6:	4df9 0000 002a 	lea 2a ___umodsi3,a6
			16b8: RELOC32	.text
    16bc:	7601           	moveq #1,d3
    16be:	49f9 0000 0036 	lea 36 __aqb_clear,a4
			16c0: RELOC32	.text
    16c4:	d684           	add.l d4,d3
    16c6:	4878 000a      	pea a ___mulsi4+0x4
    16ca:	2f02           	move.l d2,-(sp)
    16cc:	4e96           	jsr (a6)
    16ce:	0600 0030      	addi.b #48,d0
    16d2:	508f           	addq.l #8,sp
    16d4:	16c0           	move.b d0,(a3)+
    16d6:	4878 000a      	pea a ___mulsi4+0x4
    16da:	2f02           	move.l d2,-(sp)
    16dc:	4e94           	jsr (a4)
    16de:	508f           	addq.l #8,sp
    16e0:	2400           	move.l d0,d2
    16e2:	6724           	beq.s 1708 _WINDOW_+0x60
    16e4:	2803           	move.l d3,d4
    16e6:	7601           	moveq #1,d3
    16e8:	d684           	add.l d4,d3
    16ea:	4878 000a      	pea a ___mulsi4+0x4
    16ee:	2f02           	move.l d2,-(sp)
    16f0:	4e96           	jsr (a6)
    16f2:	0600 0030      	addi.b #48,d0
    16f6:	508f           	addq.l #8,sp
    16f8:	16c0           	move.b d0,(a3)+
    16fa:	4878 000a      	pea a ___mulsi4+0x4
    16fe:	2f02           	move.l d2,-(sp)
    1700:	4e94           	jsr (a4)
    1702:	508f           	addq.l #8,sp
    1704:	2400           	move.l d0,d2
    1706:	66dc           	bne.s 16e4 _WINDOW_+0x3c
    1708:	1bbc 0020 38d8 	move.b #32,(-40,a5,d3.l)
    170e:	1b80 48da      	move.b d0,(-38,a5,d4.l)
    1712:	41f5 38d9      	lea (-39,a5,d3.l),a0
    1716:	1012           	move.b (a2),d0
    1718:	14e8 ffff      	move.b -1(a0),(a2)+
    171c:	1100           	move.b d0,-(a0)
    171e:	5282           	addq.l #1,d2
    1720:	5383           	subq.l #1,d3
    1722:	b682           	cmp.l d2,d3
    1724:	6ef0           	bgt.s 1716 _WINDOW_+0x6e
    1726:	122d ffd8      	move.b -40(a5),d1
    172a:	7000           	moveq #0,d0
    172c:	6000 ff46      	bra.w 1674 _ON_WINDOW_CLOSE_CALL+0x2

00001730 __u2toa_:
    1730:	4e55 ffd8      	link.w a5,#-40
    1734:	48e7 383a      	movem.l d2-d4/a2-a4/a6,-(sp)
    1738:	7400           	moveq #0,d2
    173a:	342d 000a      	move.w 10(a5),d2
    173e:	4a82           	tst.l d2
    1740:	664e           	bne.s 1790 __u2toa_+0x60
    1742:	1b7c 0020 ffd8 	move.b #32,-40(a5)
    1748:	1b7c 0030 ffd9 	move.b #48,-39(a5)
    174e:	1b42 ffda      	move.b d2,-38(a5)
    1752:	7220           	moveq #32,d1
    1754:	7000           	moveq #0,d0
    1756:	4a01           	tst.b d1
    1758:	6708           	beq.s 1762 __u2toa_+0x32
    175a:	5280           	addq.l #1,d0
    175c:	1235 08d8      	move.b (-40,a5,d0.l),d1
    1760:	66f8           	bne.s 175a __u2toa_+0x2a
    1762:	7401           	moveq #1,d2
    1764:	d480           	add.l d0,d2
    1766:	42a7           	clr.l -(sp)
    1768:	2f02           	move.l d2,-(sp)
    176a:	4eb9 0000 0000 	jsr 0 _start
			176c: RELOC32	.text
    1770:	2600           	move.l d0,d3
    1772:	2c79 0000 0000 	movea.l 0 _start,a6
			1774: RELOC32	.bss
    1778:	41ed ffd8      	lea -40(a5),a0
    177c:	2240           	movea.l d0,a1
    177e:	2002           	move.l d2,d0
    1780:	4eae fd90      	jsr -624(a6)
    1784:	2003           	move.l d3,d0
    1786:	4ced 5c1c ffbc 	movem.l -68(a5),d2-d4/a2-a4/a6
    178c:	4e5d           	unlk a5
    178e:	4e75           	rts
    1790:	45ed ffd8      	lea -40(a5),a2
    1794:	264a           	movea.l a2,a3
    1796:	7800           	moveq #0,d4
    1798:	4df9 0000 002a 	lea 2a ___umodsi3,a6
			179a: RELOC32	.text
    179e:	7601           	moveq #1,d3
    17a0:	49f9 0000 0036 	lea 36 __aqb_clear,a4
			17a2: RELOC32	.text
    17a6:	d684           	add.l d4,d3
    17a8:	4878 000a      	pea a ___mulsi4+0x4
    17ac:	2f02           	move.l d2,-(sp)
    17ae:	4e96           	jsr (a6)
    17b0:	0600 0030      	addi.b #48,d0
    17b4:	508f           	addq.l #8,sp
    17b6:	16c0           	move.b d0,(a3)+
    17b8:	4878 000a      	pea a ___mulsi4+0x4
    17bc:	2f02           	move.l d2,-(sp)
    17be:	4e94           	jsr (a4)
    17c0:	508f           	addq.l #8,sp
    17c2:	2400           	move.l d0,d2
    17c4:	6724           	beq.s 17ea __u2toa_+0xba
    17c6:	2803           	move.l d3,d4
    17c8:	7601           	moveq #1,d3
    17ca:	d684           	add.l d4,d3
    17cc:	4878 000a      	pea a ___mulsi4+0x4
    17d0:	2f02           	move.l d2,-(sp)
    17d2:	4e96           	jsr (a6)
    17d4:	0600 0030      	addi.b #48,d0
    17d8:	508f           	addq.l #8,sp
    17da:	16c0           	move.b d0,(a3)+
    17dc:	4878 000a      	pea a ___mulsi4+0x4
    17e0:	2f02           	move.l d2,-(sp)
    17e2:	4e94           	jsr (a4)
    17e4:	508f           	addq.l #8,sp
    17e6:	2400           	move.l d0,d2
    17e8:	66dc           	bne.s 17c6 __u2toa_+0x96
    17ea:	1bbc 0020 38d8 	move.b #32,(-40,a5,d3.l)
    17f0:	1b80 48da      	move.b d0,(-38,a5,d4.l)
    17f4:	41f5 38d9      	lea (-39,a5,d3.l),a0
    17f8:	1012           	move.b (a2),d0
    17fa:	14e8 ffff      	move.b -1(a0),(a2)+
    17fe:	1100           	move.b d0,-(a0)
    1800:	5282           	addq.l #1,d2
    1802:	5383           	subq.l #1,d3
    1804:	b682           	cmp.l d2,d3
    1806:	6ef0           	bgt.s 17f8 __u2toa_+0xc8
    1808:	122d ffd8      	move.b -40(a5),d1
    180c:	7000           	moveq #0,d0
    180e:	6000 ff46      	bra.w 1756 __u2toa_+0x26

00001812 __u4toa_:
    1812:	4e55 ffd8      	link.w a5,#-40
    1816:	48e7 383a      	movem.l d2-d4/a2-a4/a6,-(sp)
    181a:	242d 0008      	move.l 8(a5),d2

0000181e _MOUSE_ON:
    181e:	664e           	bne.s 186e _MOUSE_ON+0x50
    1820:	1b7c 0020 ffd8 	move.b #32,-40(a5)
    1826:	1b7c 0030 ffd9 	move.b #48,-39(a5)
    182c:	1b42 ffda      	move.b d2,-38(a5)
    1830:	7220           	moveq #32,d1
    1832:	7000           	moveq #0,d0
    1834:	4a01           	tst.b d1
    1836:	6708           	beq.s 1840 _MOUSE_ON+0x22
    1838:	5280           	addq.l #1,d0
    183a:	1235 08d8      	move.b (-40,a5,d0.l),d1
    183e:	66f8           	bne.s 1838 _MOUSE_ON+0x1a
    1840:	7401           	moveq #1,d2
    1842:	d480           	add.l d0,d2
    1844:	42a7           	clr.l -(sp)
    1846:	2f02           	move.l d2,-(sp)
    1848:	4eb9 0000 0000 	jsr 0 _start
			184a: RELOC32	.text
    184e:	2600           	move.l d0,d3
    1850:	2c79 0000 0000 	movea.l 0 _start,a6
			1852: RELOC32	.bss
    1856:	41ed ffd8      	lea -40(a5),a0
    185a:	2240           	movea.l d0,a1
    185c:	2002           	move.l d2,d0
    185e:	4eae fd90      	jsr -624(a6)
    1862:	2003           	move.l d3,d0
    1864:	4ced 5c1c ffbc 	movem.l -68(a5),d2-d4/a2-a4/a6
    186a:	4e5d           	unlk a5
    186c:	4e75           	rts
    186e:	45ed ffd8      	lea -40(a5),a2
    1872:	264a           	movea.l a2,a3
    1874:	7800           	moveq #0,d4
    1876:	4df9 0000 002a 	lea 2a ___umodsi3,a6
			1878: RELOC32	.text
    187c:	7601           	moveq #1,d3
    187e:	49f9 0000 0036 	lea 36 __aqb_clear,a4
			1880: RELOC32	.text
    1884:	d684           	add.l d4,d3
    1886:	4878 000a      	pea a ___mulsi4+0x4
    188a:	2f02           	move.l d2,-(sp)
    188c:	4e96           	jsr (a6)
    188e:	0600 0030      	addi.b #48,d0
    1892:	508f           	addq.l #8,sp
    1894:	16c0           	move.b d0,(a3)+
    1896:	4878 000a      	pea a ___mulsi4+0x4
    189a:	2f02           	move.l d2,-(sp)
    189c:	4e94           	jsr (a4)
    189e:	508f           	addq.l #8,sp
    18a0:	2400           	move.l d0,d2
    18a2:	6724           	beq.s 18c8 _MOUSE_OFF+0x6
    18a4:	2803           	move.l d3,d4
    18a6:	7601           	moveq #1,d3
    18a8:	d684           	add.l d4,d3
    18aa:	4878 000a      	pea a ___mulsi4+0x4
    18ae:	2f02           	move.l d2,-(sp)
    18b0:	4e96           	jsr (a6)
    18b2:	0600 0030      	addi.b #48,d0
    18b6:	508f           	addq.l #8,sp
    18b8:	16c0           	move.b d0,(a3)+
    18ba:	4878 000a      	pea a ___mulsi4+0x4
    18be:	2f02           	move.l d2,-(sp)
    18c0:	4e94           	jsr (a4)

000018c2 _MOUSE_OFF:
    18c2:	508f           	addq.l #8,sp
    18c4:	2400           	move.l d0,d2
    18c6:	66dc           	bne.s 18a4 _MOUSE_ON+0x86
    18c8:	1bbc 0020 38d8 	move.b #32,(-40,a5,d3.l)
    18ce:	1b80 48da      	move.b d0,(-38,a5,d4.l)
    18d2:	41f5 38d9      	lea (-39,a5,d3.l),a0
    18d6:	1012           	move.b (a2),d0
    18d8:	14e8 ffff      	move.b -1(a0),(a2)+
    18dc:	1100           	move.b d0,-(a0)
    18de:	5282           	addq.l #1,d2
    18e0:	5383           	subq.l #1,d3
    18e2:	b682           	cmp.l d2,d3
    18e4:	6ef0           	bgt.s 18d6 _MOUSE_OFF+0x14
    18e6:	122d ffd8      	move.b -40(a5),d1
    18ea:	7000           	moveq #0,d0
    18ec:	6000 ff46      	bra.w 1834 _MOUSE_ON+0x16

000018f0 __ftoa_:
    18f0:	4e55 ffd8      	link.w a5,#-40
    18f4:	48e7 2022      	movem.l d2/a2/a6,-(sp)
    18f8:	4878 0001      	pea 1 _start+0x1
    18fc:	45ed ffd8      	lea -40(a5),a2
    1900:	2f0a           	move.l a2,-(sp)
    1902:	2f2d 0008      	move.l 8(a5),-(sp)
    1906:	4eba f0fc      	jsr a04 __astr_ftoa_ext(pc)
    190a:	4fef 000c      	lea 12(sp),sp
    190e:	7000           	moveq #0,d0
    1910:	121a           	move.b (a2)+,d1
    1912:	6706           	beq.s 191a __ftoa_+0x2a
    1914:	5280           	addq.l #1,d0
    1916:	121a           	move.b (a2)+,d1
    1918:	66fa           	bne.s 1914 __ftoa_+0x24
    191a:	347c 0001      	movea.w #1,a2
    191e:	d5c0           	adda.l d0,a2
    1920:	42a7           	clr.l -(sp)
    1922:	2f0a           	move.l a2,-(sp)
    1924:	4eb9 0000 0000 	jsr 0 _start
			1926: RELOC32	.text
    192a:	2400           	move.l d0,d2
    192c:	2c79 0000 0000 	movea.l 0 _start,a6
			192e: RELOC32	.bss
    1932:	41ed ffd8      	lea -40(a5),a0
    1936:	2240           	movea.l d0,a1
    1938:	200a           	move.l a2,d0
    193a:	4eae fd90      	jsr -624(a6)
    193e:	2002           	move.l d2,d0
    1940:	4ced 4404 ffcc 	movem.l -52(a5),d2/a2/a6
    1946:	4e5d           	unlk a5
    1948:	4e75           	rts
    194a:	5452           	addq.w #2,(a2)
    194c:	5545           	subq.w #2,d5
    194e:	0046 414c      	ori.w #16716,d6
    1952:	5345           	subq.w #1,d5
	...

00001956 __booltoa_:
    1956:	4e55 0000      	link.w a5,#0
    195a:	4a6d 000a      	tst.w 10(a5)
    195e:	660a           	bne.s 196a _ON_MOUSE_CALL+0x4
    1960:	203c 0000 194f 	move.l #6479,d0
			1962: RELOC32	.text

00001966 _ON_MOUSE_CALL:
    1966:	4e5d           	unlk a5
    1968:	4e75           	rts
    196a:	203c 0000 194a 	move.l #6474,d0
			196c: RELOC32	.text
    1970:	4e5d           	unlk a5
    1972:	4e75           	rts

00001974 __str2i4_:
    1974:	4e55           	Address 0x0000000000001976 is out of bounds.
.short 0x4e55

00001976 _MOUSE_:
    1976:	0000 48e7      	ori.b #-25,d0
    197a:	3800           	move.w d0,d4
    197c:	226d 0008      	movea.l 8(a5),a1
    1980:	202d 0010      	move.l 16(a5),d0
    1984:	1211           	move.b (a1),d1
    1986:	0c01 002d      	cmpi.b #45,d1
    198a:	6700 00f4      	beq.w 1a80 _MOUSE_+0x10a
    198e:	0c01 002b      	cmpi.b #43,d1
    1992:	6700 0098      	beq.w 1a2c _MOUSE_+0xb6
    1996:	7208           	moveq #8,d1
    1998:	b280           	cmp.l d0,d1
    199a:	6700 009a      	beq.w 1a36 _MOUSE_+0xc0
    199e:	b280           	cmp.l d0,d1
    19a0:	6c54           	bge.s 19f6 _MOUSE_+0x80
    19a2:	720a           	moveq #10,d1
    19a4:	b280           	cmp.l d0,d1
    19a6:	6700 00c0      	beq.w 1a68 _MOUSE_+0xf2
    19aa:	7210           	moveq #16,d1
    19ac:	b280           	cmp.l d0,d1
    19ae:	6600 00c6      	bne.w 1a76 _MOUSE_+0x100
    19b2:	76ff           	moveq #-1,d3
    19b4:	d6ad 000c      	add.l 12(a5),d3
    19b8:	4242           	clr.w d2
    19ba:	4a83           	tst.l d3
    19bc:	6d00 00b8      	blt.w 1a76 _MOUSE_+0x100
    19c0:	7000           	moveq #0,d0
    19c2:	7200           	moveq #0,d1
    19c4:	307c ff9f      	movea.w #-97,a0
    19c8:	1219           	move.b (a1)+,d1
    19ca:	d1c1           	adda.l d1,a0
    19cc:	7805           	moveq #5,d4
    19ce:	b888           	cmp.l a0,d4
    19d0:	6500 00f2      	bcs.w 1ac4 _MOUSE_+0x14e
    19d4:	307c ffa9      	movea.w #-87,a0
    19d8:	e988           	lsl.l #4,d0
    19da:	d1c1           	adda.l d1,a0
    19dc:	d088           	add.l a0,d0
    19de:	51cb ffe2      	dbf d3,19c2 _MOUSE_+0x4c
    19e2:	4243           	clr.w d3
    19e4:	5383           	subq.l #1,d3
    19e6:	64da           	bcc.s 19c2 _MOUSE_+0x4c
    19e8:	4a42           	tst.w d2
    19ea:	6702           	beq.s 19ee _MOUSE_+0x78
    19ec:	4480           	neg.l d0
    19ee:	4cdf 001c      	movem.l (sp)+,d2-d4
    19f2:	4e5d           	unlk a5
    19f4:	4e75           	rts
    19f6:	5580           	subq.l #2,d0
    19f8:	667c           	bne.s 1a76 _MOUSE_+0x100
    19fa:	76ff           	moveq #-1,d3
    19fc:	d6ad 000c      	add.l 12(a5),d3
    1a00:	4242           	clr.w d2
    1a02:	4a83           	tst.l d3
    1a04:	6d70           	blt.s 1a76 _MOUSE_+0x100
    1a06:	7000           	moveq #0,d0
    1a08:	7200           	moveq #0,d1
    1a0a:	307c ffd0      	movea.w #-48,a0
    1a0e:	1219           	move.b (a1)+,d1
    1a10:	d1c1           	adda.l d1,a0
    1a12:	7201           	moveq #1,d1
    1a14:	b288           	cmp.l a0,d1
    1a16:	65d0           	bcs.s 19e8 _MOUSE_+0x72
    1a18:	d080           	add.l d0,d0
    1a1a:	d088           	add.l a0,d0
    1a1c:	51cb ffea      	dbf d3,1a08 _MOUSE_+0x92
    1a20:	4243           	clr.w d3
    1a22:	5383           	subq.l #1,d3
    1a24:	64e2           	bcc.s 1a08 _MOUSE_+0x92
    1a26:	4a42           	tst.w d2
    1a28:	66c2           	bne.s 19ec _MOUSE_+0x76
    1a2a:	60c2           	bra.s 19ee _MOUSE_+0x78
    1a2c:	5289           	addq.l #1,a1
    1a2e:	7208           	moveq #8,d1
    1a30:	b280           	cmp.l d0,d1
    1a32:	6600 ff6a      	bne.w 199e _MOUSE_+0x28
    1a36:	76ff           	moveq #-1,d3
    1a38:	d6ad 000c      	add.l 12(a5),d3
    1a3c:	4242           	clr.w d2
    1a3e:	4a83           	tst.l d3
    1a40:	6d34           	blt.s 1a76 _MOUSE_+0x100
    1a42:	7000           	moveq #0,d0
    1a44:	7200           	moveq #0,d1
    1a46:	307c ffd0      	movea.w #-48,a0
    1a4a:	1219           	move.b (a1)+,d1
    1a4c:	d1c1           	adda.l d1,a0
    1a4e:	7207           	moveq #7,d1
    1a50:	b288           	cmp.l a0,d1
    1a52:	6594           	bcs.s 19e8 _MOUSE_+0x72
    1a54:	e788           	lsl.l #3,d0
    1a56:	d088           	add.l a0,d0
    1a58:	51cb ffea      	dbf d3,1a44 _MOUSE_+0xce
    1a5c:	4243           	clr.w d3
    1a5e:	5383           	subq.l #1,d3
    1a60:	64e2           	bcc.s 1a44 _MOUSE_+0xce
    1a62:	4a42           	tst.w d2
    1a64:	6686           	bne.s 19ec _MOUSE_+0x76
    1a66:	6086           	bra.s 19ee _MOUSE_+0x78
    1a68:	76ff           	moveq #-1,d3
    1a6a:	d6ad 000c      	add.l 12(a5),d3
    1a6e:	4242           	clr.w d2
    1a70:	4a83           	tst.l d3
    1a72:	6c00 00a4      	bge.w 1b18 _MOUSE_+0x1a2
    1a76:	7000           	moveq #0,d0
    1a78:	4cdf 001c      	movem.l (sp)+,d2-d4
    1a7c:	4e5d           	unlk a5
    1a7e:	4e75           	rts
    1a80:	5289           	addq.l #1,a1
    1a82:	7208           	moveq #8,d1
    1a84:	b280           	cmp.l d0,d1
    1a86:	6700 00c2      	beq.w 1b4a _MOUSE_MOTION_ON+0x18
    1a8a:	6c22           	bge.s 1aae _MOUSE_+0x138
    1a8c:	720a           	moveq #10,d1
    1a8e:	b280           	cmp.l d0,d1
    1a90:	677a           	beq.s 1b0c _MOUSE_+0x196
    1a92:	7210           	moveq #16,d1
    1a94:	b280           	cmp.l d0,d1
    1a96:	660e           	bne.s 1aa6 _MOUSE_+0x130
    1a98:	76ff           	moveq #-1,d3
    1a9a:	d6ad 000c      	add.l 12(a5),d3
    1a9e:	7401           	moveq #1,d2
    1aa0:	4a83           	tst.l d3
    1aa2:	6c00 ff1c      	bge.w 19c0 _MOUSE_+0x4a
    1aa6:	7000           	moveq #0,d0
    1aa8:	4480           	neg.l d0
    1aaa:	6000 ff42      	bra.w 19ee _MOUSE_+0x78
    1aae:	5580           	subq.l #2,d0
    1ab0:	66f4           	bne.s 1aa6 _MOUSE_+0x130
    1ab2:	76ff           	moveq #-1,d3
    1ab4:	d6ad 000c      	add.l 12(a5),d3
    1ab8:	7401           	moveq #1,d2
    1aba:	4a83           	tst.l d3
    1abc:	6de8           	blt.s 1aa6 _MOUSE_+0x130
    1abe:	7000           	moveq #0,d0
    1ac0:	6000 ff46      	bra.w 1a08 _MOUSE_+0x92
    1ac4:	307c ffbf      	movea.w #-65,a0
    1ac8:	d1c1           	adda.l d1,a0
    1aca:	7805           	moveq #5,d4
    1acc:	b888           	cmp.l a0,d4
    1ace:	651a           	bcs.s 1aea _MOUSE_+0x174
    1ad0:	307c ffc9      	movea.w #-55,a0
    1ad4:	e988           	lsl.l #4,d0
    1ad6:	d1c1           	adda.l d1,a0
    1ad8:	d088           	add.l a0,d0
    1ada:	51cb fee6      	dbf d3,19c2 _MOUSE_+0x4c
    1ade:	4243           	clr.w d3
    1ae0:	5383           	subq.l #1,d3
    1ae2:	6400 fede      	bcc.w 19c2 _MOUSE_+0x4c
    1ae6:	6000 ff00      	bra.w 19e8 _MOUSE_+0x72
    1aea:	307c ffd0      	movea.w #-48,a0
    1aee:	d1c1           	adda.l d1,a0
    1af0:	7209           	moveq #9,d1
    1af2:	b288           	cmp.l a0,d1
    1af4:	6500 fef2      	bcs.w 19e8 _MOUSE_+0x72
    1af8:	e988           	lsl.l #4,d0
    1afa:	d088           	add.l a0,d0
    1afc:	51cb fec4      	dbf d3,19c2 _MOUSE_+0x4c
    1b00:	4243           	clr.w d3
    1b02:	5383           	subq.l #1,d3
    1b04:	6400 febc      	bcc.w 19c2 _MOUSE_+0x4c
    1b08:	6000 fede      	bra.w 19e8 _MOUSE_+0x72
    1b0c:	76ff           	moveq #-1,d3
    1b0e:	d6ad 000c      	add.l 12(a5),d3
    1b12:	7401           	moveq #1,d2
    1b14:	4a83           	tst.l d3
    1b16:	6d8e           	blt.s 1aa6 _MOUSE_+0x130
    1b18:	7000           	moveq #0,d0
    1b1a:	7200           	moveq #0,d1
    1b1c:	307c ffd0      	movea.w #-48,a0
    1b20:	1219           	move.b (a1)+,d1
    1b22:	d1c1           	adda.l d1,a0
    1b24:	7209           	moveq #9,d1
    1b26:	b288           	cmp.l a0,d1
    1b28:	6500 febe      	bcs.w 19e8 _MOUSE_+0x72
    1b2c:	2200           	move.l d0,d1
    1b2e:	e589           	lsl.l #2,d1
    1b30:	d081           	add.l d1,d0

00001b32 _MOUSE_MOTION_ON:
    1b32:	d080           	add.l d0,d0
    1b34:	d088           	add.l a0,d0
    1b36:	51cb ffe2      	dbf d3,1b1a _MOUSE_+0x1a4
    1b3a:	4243           	clr.w d3
    1b3c:	5383           	subq.l #1,d3
    1b3e:	64da           	bcc.s 1b1a _MOUSE_+0x1a4
    1b40:	4a42           	tst.w d2
    1b42:	6600 fea8      	bne.w 19ec _MOUSE_+0x76
    1b46:	6000 fea6      	bra.w 19ee _MOUSE_+0x78
    1b4a:	76ff           	moveq #-1,d3
    1b4c:	d6ad 000c      	add.l 12(a5),d3
    1b50:	7401           	moveq #1,d2
    1b52:	4a83           	tst.l d3
    1b54:	6d00 ff50      	blt.w 1aa6 _MOUSE_+0x130
    1b58:	7000           	moveq #0,d0
    1b5a:	6000 fee8      	bra.w 1a44 _MOUSE_+0xce

00001b5e _VALINT_:
    1b5e:	4e55 0000      	link.w a5,#0
    1b62:	2f03           	move.l d3,-(sp)
    1b64:	2f02           	move.l d2,-(sp)
    1b66:	202d 0008      	move.l 8(a5),d0
    1b6a:	6748           	beq.s 1bb4 __aio_console_input+0x22
    1b6c:	2040           	movea.l d0,a0
    1b6e:	2248           	movea.l a0,a1
    1b70:	1218           	move.b (a0)+,d1
    1b72:	0c01 0020      	cmpi.b #32,d1
    1b76:	67f6           	beq.s 1b6e _VALINT_+0x10
    1b78:	0c01 0009      	cmpi.b #9,d1
    1b7c:	67f0           	beq.s 1b6e _VALINT_+0x10
    1b7e:	1601           	move.b d1,d3
    1b80:	7400           	moveq #0,d2
    1b82:	4a03           	tst.b d3
    1b84:	6706           	beq.s 1b8c _VALINT_+0x2e
    1b86:	5282           	addq.l #1,d2
    1b88:	1618           	move.b (a0)+,d3
    1b8a:	66fa           	bne.s 1b86 _VALINT_+0x28
    1b8c:	4a82           	tst.l d2
    1b8e:	6730           	beq.s 1bc0 __aio_console_input+0x2e
    1b90:	7001           	moveq #1,d0

00001b92 __aio_console_input:
    1b92:	b082           	cmp.l d2,d0
    1b94:	6706           	beq.s 1b9c __aio_console_input+0xa
    1b96:	0c01 0026      	cmpi.b #38,d1
    1b9a:	6732           	beq.s 1bce __aio_console_input+0x3c
    1b9c:	91c8           	suba.l a0,a0
    1b9e:	2008           	move.l a0,d0
    1ba0:	720a           	moveq #10,d1
    1ba2:	9488           	sub.l a0,d2
    1ba4:	d089           	add.l a1,d0
    1ba6:	2f01           	move.l d1,-(sp)
    1ba8:	2f02           	move.l d2,-(sp)
    1baa:	2f00           	move.l d0,-(sp)
    1bac:	4eba fdc6      	jsr 1974 __str2i4_(pc)
    1bb0:	4fef 000c      	lea 12(sp),sp
    1bb4:	242d fff8      	move.l -8(a5),d2
    1bb8:	262d fffc      	move.l -4(a5),d3
    1bbc:	4e5d           	unlk a5
    1bbe:	4e75           	rts
    1bc0:	720a           	moveq #10,d1
    1bc2:	2f01           	move.l d1,-(sp)
    1bc4:	2f02           	move.l d2,-(sp)
    1bc6:	2f00           	move.l d0,-(sp)
    1bc8:	4eba fdaa      	jsr 1974 __str2i4_(pc)
    1bcc:	60e6           	bra.s 1bb4 __aio_console_input+0x22
    1bce:	1229 0001      	move.b 1(a1),d1
    1bd2:	0601 00be      	addi.b #-66,d1
    1bd6:	0c01 002d      	cmpi.b #45,d1
    1bda:	6200           	.short 0x6200

00001bdc _MOUSE_MOTION_OFF:
    1bdc:	0098 7000 1001 	ori.l #1879052289,(a0)+
    1be2:	d080           	add.l d0,d0
    1be4:	303b 0806      	move.w (1bec _MOUSE_MOTION_OFF+0x10,pc,d0.l),d0
    1be8:	4efb 0002      	jmp (1bec _MOUSE_MOTION_OFF+0x10,pc,d0.w)
    1bec:	007c 0088      	ori.w #136,sr
    1bf0:	0088           	.short 0x0088
    1bf2:	0088           	.short 0x0088
    1bf4:	0088           	.short 0x0088
    1bf6:	0088           	.short 0x0088
    1bf8:	006c 0088 0088 	ori.w #136,136(a4)
    1bfe:	0088           	.short 0x0088
    1c00:	0088           	.short 0x0088
    1c02:	0088           	.short 0x0088
    1c04:	0088           	.short 0x0088
    1c06:	005c 0088      	ori.w #136,(a4)+
    1c0a:	0088           	.short 0x0088
    1c0c:	0088           	.short 0x0088
    1c0e:	0088           	.short 0x0088
    1c10:	0088           	.short 0x0088
    1c12:	0088           	.short 0x0088
    1c14:	0088           	.short 0x0088
    1c16:	0088           	.short 0x0088
    1c18:	0088           	.short 0x0088
    1c1a:	0088           	.short 0x0088
    1c1c:	0088           	.short 0x0088
    1c1e:	0088           	.short 0x0088
    1c20:	0088           	.short 0x0088
    1c22:	0088           	.short 0x0088
    1c24:	0088           	.short 0x0088
    1c26:	0088           	.short 0x0088
    1c28:	0088           	.short 0x0088
    1c2a:	0088           	.short 0x0088
    1c2c:	007c 0088      	ori.w #136,sr
    1c30:	0088           	.short 0x0088
    1c32:	0088           	.short 0x0088
    1c34:	0088           	.short 0x0088
    1c36:	0088           	.short 0x0088
    1c38:	006c 0088 0088 	ori.w #136,136(a4)
    1c3e:	0088           	.short 0x0088
    1c40:	0088           	.short 0x0088
    1c42:	0088           	.short 0x0088
    1c44:	0088           	.short 0x0088
    1c46:	005c 307c      	ori.w #12412,(a4)+
    1c4a:	0002 2008      	ori.b #8,d2
    1c4e:	7208           	moveq #8,d1
    1c50:	9488           	sub.l a0,d2
    1c52:	d089           	add.l a1,d0
    1c54:	6000 ff50      	bra.w 1ba6 __aio_console_input+0x14
    1c58:	307c 0002      	movea.w #2,a0
    1c5c:	2008           	move.l a0,d0
    1c5e:	7210           	moveq #16,d1
    1c60:	9488           	sub.l a0,d2
    1c62:	d089           	add.l a1,d0
    1c64:	6000 ff40      	bra.w 1ba6 __aio_console_input+0x14
    1c68:	7202           	moveq #2,d1
    1c6a:	2001           	move.l d1,d0
    1c6c:	9481           	sub.l d1,d2
    1c6e:	d089           	add.l a1,d0
    1c70:	6000 ff34      	bra.w 1ba6 __aio_console_input+0x14
    1c74:	307c 0001      	movea.w #1,a0
    1c78:	2008           	move.l a0,d0
    1c7a:	7208           	moveq #8,d1
    1c7c:	9488           	sub.l a0,d2
    1c7e:	d089           	add.l a1,d0
    1c80:	6000 ff24      	bra.w 1ba6 __aio_console_input+0x14

00001c84 _VALUINT_:
    1c84:	4e55           	Address 0x0000000000001c86 is out of bounds.
.short 0x4e55

00001c86 _ON_MOUSE_MOTION_CALL:
    1c86:	0000 2f03      	ori.b #3,d0
    1c8a:	2f02           	move.l d2,-(sp)
    1c8c:	202d 0008      	move.l 8(a5),d0
    1c90:	6748           	beq.s 1cda _ON_MOUSE_MOTION_CALL+0x54
    1c92:	2040           	movea.l d0,a0
    1c94:	2248           	movea.l a0,a1
    1c96:	1218           	move.b (a0)+,d1
    1c98:	0c01 0020      	cmpi.b #32,d1
    1c9c:	67f6           	beq.s 1c94 _ON_MOUSE_MOTION_CALL+0xe
    1c9e:	0c01 0009      	cmpi.b #9,d1
    1ca2:	67f0           	beq.s 1c94 _ON_MOUSE_MOTION_CALL+0xe
    1ca4:	1601           	move.b d1,d3
    1ca6:	7400           	moveq #0,d2
    1ca8:	4a03           	tst.b d3
    1caa:	6706           	beq.s 1cb2 _ON_MOUSE_MOTION_CALL+0x2c
    1cac:	5282           	addq.l #1,d2
    1cae:	1618           	move.b (a0)+,d3
    1cb0:	66fa           	bne.s 1cac _ON_MOUSE_MOTION_CALL+0x26
    1cb2:	4a82           	tst.l d2
    1cb4:	6730           	beq.s 1ce6 _ON_MOUSE_MOTION_CALL+0x60
    1cb6:	7001           	moveq #1,d0
    1cb8:	b082           	cmp.l d2,d0
    1cba:	6706           	beq.s 1cc2 _ON_MOUSE_MOTION_CALL+0x3c
    1cbc:	0c01 0026      	cmpi.b #38,d1
    1cc0:	6732           	beq.s 1cf4 _ON_MOUSE_MOTION_CALL+0x6e
    1cc2:	91c8           	suba.l a0,a0
    1cc4:	2008           	move.l a0,d0
    1cc6:	720a           	moveq #10,d1
    1cc8:	9488           	sub.l a0,d2
    1cca:	d089           	add.l a1,d0
    1ccc:	2f01           	move.l d1,-(sp)
    1cce:	2f02           	move.l d2,-(sp)
    1cd0:	2f00           	move.l d0,-(sp)
    1cd2:	4eba fca0      	jsr 1974 __str2i4_(pc)
    1cd6:	4fef 000c      	lea 12(sp),sp
    1cda:	242d fff8      	move.l -8(a5),d2
    1cde:	262d fffc      	move.l -4(a5),d3
    1ce2:	4e5d           	unlk a5
    1ce4:	4e75           	rts
    1ce6:	720a           	moveq #10,d1
    1ce8:	2f01           	move.l d1,-(sp)
    1cea:	2f02           	move.l d2,-(sp)
    1cec:	2f00           	move.l d0,-(sp)
    1cee:	4eba fc84      	jsr 1974 __str2i4_(pc)
    1cf2:	60e6           	bra.s 1cda _ON_MOUSE_MOTION_CALL+0x54
    1cf4:	1229 0001      	move.b 1(a1),d1
    1cf8:	0601 00be      	addi.b #-66,d1
    1cfc:	0c01 002d      	cmpi.b #45,d1
    1d00:	6200 0098      	bhi.w 1d9a __aio_inputs1+0x52
    1d04:	7000           	moveq #0,d0
    1d06:	1001           	move.b d1,d0
    1d08:	d080           	add.l d0,d0
    1d0a:	303b 0806      	move.w (1d12 _ON_MOUSE_MOTION_CALL+0x8c,pc,d0.l),d0
    1d0e:	4efb 0002      	jmp (1d12 _ON_MOUSE_MOTION_CALL+0x8c,pc,d0.w)
    1d12:	007c 0088      	ori.w #136,sr
    1d16:	0088           	.short 0x0088
    1d18:	0088           	.short 0x0088
    1d1a:	0088           	.short 0x0088
    1d1c:	0088           	.short 0x0088
    1d1e:	006c 0088 0088 	ori.w #136,136(a4)
    1d24:	0088           	.short 0x0088
    1d26:	0088           	.short 0x0088
    1d28:	0088           	.short 0x0088
    1d2a:	0088           	.short 0x0088
    1d2c:	005c 0088      	ori.w #136,(a4)+
    1d30:	0088           	.short 0x0088
    1d32:	0088           	.short 0x0088
    1d34:	0088           	.short 0x0088
    1d36:	0088           	.short 0x0088
    1d38:	0088           	.short 0x0088
    1d3a:	0088           	.short 0x0088
    1d3c:	0088           	.short 0x0088
    1d3e:	0088           	.short 0x0088
    1d40:	0088           	.short 0x0088
    1d42:	0088           	.short 0x0088
    1d44:	0088           	Address 0x0000000000001d46 is out of bounds.
.short 0x0088
    1d46:	0088           	Address 0x0000000000001d48 is out of bounds.
.short 0x0088

00001d48 __aio_inputs1:
    1d48:	0088           	.short 0x0088
    1d4a:	0088           	.short 0x0088
    1d4c:	0088           	.short 0x0088
    1d4e:	0088           	.short 0x0088
    1d50:	0088           	.short 0x0088
    1d52:	007c 0088      	ori.w #136,sr
    1d56:	0088           	.short 0x0088
    1d58:	0088           	.short 0x0088
    1d5a:	0088           	.short 0x0088
    1d5c:	0088           	.short 0x0088
    1d5e:	006c 0088 0088 	ori.w #136,136(a4)
    1d64:	0088           	.short 0x0088
    1d66:	0088           	.short 0x0088
    1d68:	0088           	.short 0x0088
    1d6a:	0088           	.short 0x0088
    1d6c:	005c 307c      	ori.w #12412,(a4)+
    1d70:	0002 2008      	ori.b #8,d2
    1d74:	7208           	moveq #8,d1
    1d76:	9488           	sub.l a0,d2
    1d78:	d089           	add.l a1,d0
    1d7a:	6000 ff50      	bra.w 1ccc _ON_MOUSE_MOTION_CALL+0x46
    1d7e:	307c 0002      	movea.w #2,a0
    1d82:	2008           	move.l a0,d0
    1d84:	7210           	moveq #16,d1
    1d86:	9488           	sub.l a0,d2
    1d88:	d089           	add.l a1,d0
    1d8a:	6000 ff40      	bra.w 1ccc _ON_MOUSE_MOTION_CALL+0x46
    1d8e:	7202           	moveq #2,d1
    1d90:	2001           	move.l d1,d0
    1d92:	9481           	sub.l d1,d2
    1d94:	d089           	add.l a1,d0
    1d96:	6000 ff34      	bra.w 1ccc _ON_MOUSE_MOTION_CALL+0x46
    1d9a:	307c 0001      	movea.w #1,a0
    1d9e:	2008           	move.l a0,d0
    1da0:	7208           	moveq #8,d1
    1da2:	9488           	sub.l a0,d2
    1da4:	d089           	add.l a1,d0
    1da6:	6000 ff24      	bra.w 1ccc _ON_MOUSE_MOTION_CALL+0x46

00001daa _VALLNG_:
    1daa:	4e55 0000      	link.w a5,#0
    1dae:	2f03           	move.l d3,-(sp)
    1db0:	2f02           	move.l d2,-(sp)
    1db2:	202d 0008      	move.l 8(a5),d0
    1db6:	6748           	beq.s 1e00 _VALLNG_+0x56
    1db8:	2040           	movea.l d0,a0
    1dba:	2248           	movea.l a0,a1
    1dbc:	1218           	move.b (a0)+,d1
    1dbe:	0c01 0020      	cmpi.b #32,d1
    1dc2:	67f6           	beq.s 1dba _VALLNG_+0x10
    1dc4:	0c01 0009      	cmpi.b #9,d1
    1dc8:	67f0           	beq.s 1dba _VALLNG_+0x10
    1dca:	1601           	move.b d1,d3
    1dcc:	7400           	moveq #0,d2
    1dce:	4a03           	tst.b d3
    1dd0:	6706           	beq.s 1dd8 _VALLNG_+0x2e
    1dd2:	5282           	addq.l #1,d2
    1dd4:	1618           	move.b (a0)+,d3
    1dd6:	66fa           	bne.s 1dd2 _VALLNG_+0x28
    1dd8:	4a82           	tst.l d2
    1dda:	6730           	beq.s 1e0c __aio_inputs2
    1ddc:	7001           	moveq #1,d0
    1dde:	b082           	cmp.l d2,d0
    1de0:	6706           	beq.s 1de8 _VALLNG_+0x3e
    1de2:	0c01 0026      	cmpi.b #38,d1
    1de6:	6732           	beq.s 1e1a __aio_inputs2+0xe
    1de8:	91c8           	suba.l a0,a0
    1dea:	2008           	move.l a0,d0
    1dec:	720a           	moveq #10,d1
    1dee:	9488           	sub.l a0,d2
    1df0:	d089           	add.l a1,d0
    1df2:	2f01           	move.l d1,-(sp)
    1df4:	2f02           	move.l d2,-(sp)
    1df6:	2f00           	move.l d0,-(sp)
    1df8:	4eba fb7a      	jsr 1974 __str2i4_(pc)
    1dfc:	4fef 000c      	lea 12(sp),sp
    1e00:	242d fff8      	move.l -8(a5),d2
    1e04:	262d fffc      	move.l -4(a5),d3
    1e08:	4e5d           	unlk a5
    1e0a:	4e75           	rts

00001e0c __aio_inputs2:
    1e0c:	720a           	moveq #10,d1
    1e0e:	2f01           	move.l d1,-(sp)
    1e10:	2f02           	move.l d2,-(sp)
    1e12:	2f00           	move.l d0,-(sp)
    1e14:	4eba fb5e      	jsr 1974 __str2i4_(pc)
    1e18:	60e6           	bra.s 1e00 _VALLNG_+0x56
    1e1a:	1229 0001      	move.b 1(a1),d1
    1e1e:	0601 00be      	addi.b #-66,d1
    1e22:	0c01 002d      	cmpi.b #45,d1
    1e26:	6200 0098      	bhi.w 1ec0 __aio_inputu2+0x52
    1e2a:	7000           	moveq #0,d0
    1e2c:	1001           	move.b d1,d0
    1e2e:	d080           	add.l d0,d0
    1e30:	303b 0806      	move.w (1e38 __aio_inputs2+0x2c,pc,d0.l),d0
    1e34:	4efb 0002      	jmp (1e38 __aio_inputs2+0x2c,pc,d0.w)
    1e38:	007c 0088      	ori.w #136,sr
    1e3c:	0088           	.short 0x0088
    1e3e:	0088           	.short 0x0088
    1e40:	0088           	.short 0x0088
    1e42:	0088           	.short 0x0088
    1e44:	006c 0088 0088 	ori.w #136,136(a4)
    1e4a:	0088           	.short 0x0088
    1e4c:	0088           	.short 0x0088
    1e4e:	0088           	.short 0x0088
    1e50:	0088           	.short 0x0088
    1e52:	005c 0088      	ori.w #136,(a4)+
    1e56:	0088           	.short 0x0088
    1e58:	0088           	.short 0x0088
    1e5a:	0088           	.short 0x0088
    1e5c:	0088           	.short 0x0088
    1e5e:	0088           	.short 0x0088
    1e60:	0088           	.short 0x0088
    1e62:	0088           	.short 0x0088
    1e64:	0088           	.short 0x0088
    1e66:	0088           	.short 0x0088
    1e68:	0088           	.short 0x0088
    1e6a:	0088           	Address 0x0000000000001e6c is out of bounds.
.short 0x0088
    1e6c:	0088           	Address 0x0000000000001e6e is out of bounds.
.short 0x0088

00001e6e __aio_inputu2:
    1e6e:	0088           	.short 0x0088
    1e70:	0088           	.short 0x0088
    1e72:	0088           	.short 0x0088
    1e74:	0088           	.short 0x0088
    1e76:	0088           	.short 0x0088
    1e78:	007c 0088      	ori.w #136,sr
    1e7c:	0088           	.short 0x0088
    1e7e:	0088           	.short 0x0088
    1e80:	0088           	.short 0x0088
    1e82:	0088           	.short 0x0088
    1e84:	006c 0088 0088 	ori.w #136,136(a4)
    1e8a:	0088           	.short 0x0088
    1e8c:	0088           	.short 0x0088
    1e8e:	0088           	.short 0x0088
    1e90:	0088           	.short 0x0088
    1e92:	005c 307c      	ori.w #12412,(a4)+
    1e96:	0002 2008      	ori.b #8,d2
    1e9a:	7208           	moveq #8,d1
    1e9c:	9488           	sub.l a0,d2
    1e9e:	d089           	add.l a1,d0
    1ea0:	6000 ff50      	bra.w 1df2 _VALLNG_+0x48
    1ea4:	307c 0002      	movea.w #2,a0
    1ea8:	2008           	move.l a0,d0
    1eaa:	7210           	moveq #16,d1
    1eac:	9488           	sub.l a0,d2
    1eae:	d089           	add.l a1,d0
    1eb0:	6000 ff40      	bra.w 1df2 _VALLNG_+0x48
    1eb4:	7202           	moveq #2,d1
    1eb6:	2001           	move.l d1,d0
    1eb8:	9481           	sub.l d1,d2
    1eba:	d089           	add.l a1,d0
    1ebc:	6000 ff34      	bra.w 1df2 _VALLNG_+0x48
    1ec0:	307c 0001      	movea.w #1,a0
    1ec4:	2008           	move.l a0,d0
    1ec6:	7208           	moveq #8,d1
    1ec8:	9488           	sub.l a0,d2
    1eca:	d089           	add.l a1,d0
    1ecc:	6000 ff24      	bra.w 1df2 _VALLNG_+0x48

00001ed0 _VALULNG_:
    1ed0:	4e55 0000      	link.w a5,#0
    1ed4:	2f03           	move.l d3,-(sp)
    1ed6:	2f02           	move.l d2,-(sp)
    1ed8:	202d 0008      	move.l 8(a5),d0
    1edc:	6748           	beq.s 1f26 _VALULNG_+0x56
    1ede:	2040           	movea.l d0,a0
    1ee0:	2248           	movea.l a0,a1
    1ee2:	1218           	move.b (a0)+,d1
    1ee4:	0c01 0020      	cmpi.b #32,d1
    1ee8:	67f6           	beq.s 1ee0 _VALULNG_+0x10
    1eea:	0c01 0009      	cmpi.b #9,d1
    1eee:	67f0           	beq.s 1ee0 _VALULNG_+0x10
    1ef0:	1601           	move.b d1,d3
    1ef2:	7400           	moveq #0,d2
    1ef4:	4a03           	tst.b d3
    1ef6:	6706           	beq.s 1efe _VALULNG_+0x2e
    1ef8:	5282           	addq.l #1,d2
    1efa:	1618           	move.b (a0)+,d3
    1efc:	66fa           	bne.s 1ef8 _VALULNG_+0x28
    1efe:	4a82           	tst.l d2
    1f00:	6730           	beq.s 1f32 __aio_inputu4
    1f02:	7001           	moveq #1,d0
    1f04:	b082           	cmp.l d2,d0
    1f06:	6706           	beq.s 1f0e _VALULNG_+0x3e
    1f08:	0c01 0026      	cmpi.b #38,d1
    1f0c:	6732           	beq.s 1f40 __aio_inputu4+0xe
    1f0e:	91c8           	suba.l a0,a0
    1f10:	2008           	move.l a0,d0
    1f12:	720a           	moveq #10,d1
    1f14:	9488           	sub.l a0,d2
    1f16:	d089           	add.l a1,d0
    1f18:	2f01           	move.l d1,-(sp)
    1f1a:	2f02           	move.l d2,-(sp)
    1f1c:	2f00           	move.l d0,-(sp)
    1f1e:	4eba fa54      	jsr 1974 __str2i4_(pc)
    1f22:	4fef 000c      	lea 12(sp),sp
    1f26:	242d fff8      	move.l -8(a5),d2
    1f2a:	262d fffc      	move.l -4(a5),d3
    1f2e:	4e5d           	unlk a5
    1f30:	4e75           	rts

00001f32 __aio_inputu4:
    1f32:	720a           	moveq #10,d1
    1f34:	2f01           	move.l d1,-(sp)
    1f36:	2f02           	move.l d2,-(sp)
    1f38:	2f00           	move.l d0,-(sp)
    1f3a:	4eba fa38      	jsr 1974 __str2i4_(pc)
    1f3e:	60e6           	bra.s 1f26 _VALULNG_+0x56
    1f40:	1229 0001      	move.b 1(a1),d1
    1f44:	0601 00be      	addi.b #-66,d1
    1f48:	0c01 002d      	cmpi.b #45,d1
    1f4c:	6200 0098      	bhi.w 1fe6 __aio_inputf+0x52
    1f50:	7000           	moveq #0,d0
    1f52:	1001           	move.b d1,d0
    1f54:	d080           	add.l d0,d0
    1f56:	303b 0806      	move.w (1f5e __aio_inputu4+0x2c,pc,d0.l),d0
    1f5a:	4efb 0002      	jmp (1f5e __aio_inputu4+0x2c,pc,d0.w)
    1f5e:	007c 0088      	ori.w #136,sr
    1f62:	0088           	.short 0x0088
    1f64:	0088           	.short 0x0088
    1f66:	0088           	.short 0x0088
    1f68:	0088           	.short 0x0088
    1f6a:	006c 0088 0088 	ori.w #136,136(a4)
    1f70:	0088           	.short 0x0088
    1f72:	0088           	.short 0x0088
    1f74:	0088           	.short 0x0088
    1f76:	0088           	.short 0x0088
    1f78:	005c 0088      	ori.w #136,(a4)+
    1f7c:	0088           	.short 0x0088
    1f7e:	0088           	.short 0x0088
    1f80:	0088           	.short 0x0088
    1f82:	0088           	.short 0x0088
    1f84:	0088           	.short 0x0088
    1f86:	0088           	.short 0x0088
    1f88:	0088           	.short 0x0088
    1f8a:	0088           	.short 0x0088
    1f8c:	0088           	.short 0x0088
    1f8e:	0088           	.short 0x0088
    1f90:	0088           	Address 0x0000000000001f92 is out of bounds.
.short 0x0088
    1f92:	0088           	Address 0x0000000000001f94 is out of bounds.
.short 0x0088

00001f94 __aio_inputf:
    1f94:	0088           	.short 0x0088
    1f96:	0088           	.short 0x0088
    1f98:	0088           	.short 0x0088
    1f9a:	0088           	.short 0x0088
    1f9c:	0088           	.short 0x0088
    1f9e:	007c 0088      	ori.w #136,sr
    1fa2:	0088           	.short 0x0088
    1fa4:	0088           	.short 0x0088
    1fa6:	0088           	.short 0x0088
    1fa8:	0088           	.short 0x0088
    1faa:	006c 0088 0088 	ori.w #136,136(a4)
    1fb0:	0088           	.short 0x0088
    1fb2:	0088           	.short 0x0088
    1fb4:	0088           	.short 0x0088
    1fb6:	0088           	.short 0x0088
    1fb8:	005c 307c      	ori.w #12412,(a4)+
    1fbc:	0002 2008      	ori.b #8,d2
    1fc0:	7208           	moveq #8,d1
    1fc2:	9488           	sub.l a0,d2
    1fc4:	d089           	add.l a1,d0
    1fc6:	6000 ff50      	bra.w 1f18 _VALULNG_+0x48
    1fca:	307c 0002      	movea.w #2,a0
    1fce:	2008           	move.l a0,d0
    1fd0:	7210           	moveq #16,d1
    1fd2:	9488           	sub.l a0,d2
    1fd4:	d089           	add.l a1,d0
    1fd6:	6000 ff40      	bra.w 1f18 _VALULNG_+0x48
    1fda:	7202           	moveq #2,d1
    1fdc:	2001           	move.l d1,d0
    1fde:	9481           	sub.l d1,d2
    1fe0:	d089           	add.l a1,d0
    1fe2:	6000 ff34      	bra.w 1f18 _VALULNG_+0x48
    1fe6:	307c 0001      	movea.w #1,a0
    1fea:	2008           	move.l a0,d0
    1fec:	7208           	moveq #8,d1
    1fee:	9488           	sub.l a0,d2
    1ff0:	d089           	add.l a1,d0
    1ff2:	6000 ff24      	bra.w 1f18 _VALULNG_+0x48

00001ff6 __str2f_:
    1ff6:	4e55 0000      	link.w a5,#0
    1ffa:	48e7 3f3a      	movem.l d2-d7/a2-a4/a6,-(sp)
    1ffe:	246d 0008      	movea.l 8(a5),a2
    2002:	242d 000c      	move.l 12(a5),d2
    2006:	2c2d 0010      	move.l 16(a5),d6
    200a:	1012           	move.b (a2),d0
    200c:	0c00 002d      	cmpi.b #45,d0
    2010:	6700 0254      	beq.w 2266 __aio_close+0x64
    2014:	0c00 002b      	cmpi.b #43,d0
    2018:	6700 02a2      	beq.w 22bc __aio_close+0xba
    201c:	4244           	clr.w d4
    201e:	7008           	moveq #8,d0
    2020:	b086           	cmp.l d6,d0
    2022:	6700 024e      	beq.w 2272 __aio_close+0x70
    2026:	b086           	cmp.l d6,d0
    2028:	6c00 00d6      	bge.w 2100 __aio_open+0xa8
    202c:	700a           	moveq #10,d0
    202e:	b086           	cmp.l d6,d0
    2030:	6700 0084      	beq.w 20b6 __aio_open+0x5e
    2034:	7010           	moveq #16,d0
    2036:	b086           	cmp.l d6,d0
    2038:	6600 00d2      	bne.w 210c __aio_open+0xb4
    203c:	4a82           	tst.l d2
    203e:	6700 00cc      	beq.w 210c __aio_open+0xb4
    2042:	224a           	movea.l a2,a1
    2044:	7000           	moveq #0,d0
    2046:	2449           	movea.l a1,a2
    2048:	7200           	moveq #0,d1
    204a:	307c ff9f      	movea.w #-97,a0
    204e:	1219           	move.b (a1)+,d1
    2050:	d1c1           	adda.l d1,a0
    2052:	7605           	moveq #5,d3
    2054:	b688           	cmp.l a0,d3
    2056:	6500           	.short 0x6500

00002058 __aio_open:
    2058:	0334 307c      	btst d1,(124,a4,d3.w)
    205c:	ffa9           	.short 0xffa9
    205e:	e988           	lsl.l #4,d0
    2060:	d1c1           	adda.l d1,a0
    2062:	d088           	add.l a0,d0
    2064:	2449           	movea.l a1,a2
    2066:	5382           	subq.l #1,d2
    2068:	66dc           	bne.s 2046 __str2f_+0x50
    206a:	2c79 0000 0008 	movea.l 8 ___mulsi4+0x2,a6
			206c: RELOC32	.bss
    2070:	4eae ffdc      	jsr -36(a6)
    2074:	2600           	move.l d0,d3
    2076:	2006           	move.l d6,d0
    2078:	4eae ffdc      	jsr -36(a6)
    207c:	2a00           	move.l d0,d5
    207e:	1212           	move.b (a2),d1
    2080:	0c01 002e      	cmpi.b #46,d1
    2084:	6700 0148      	beq.w 21ce __aio_init+0x30
    2088:	0201 00df      	andi.b #-33,d1
    208c:	0c01 0045      	cmpi.b #69,d1
    2090:	6700 009e      	beq.w 2130 __aio_open+0xd8
    2094:	4a44           	tst.w d4
    2096:	6714           	beq.s 20ac __aio_open+0x54
    2098:	2c79 0000 0008 	movea.l 8 ___mulsi4+0x2,a6
			209a: RELOC32	.bss
    209e:	2003           	move.l d3,d0
    20a0:	2239 0000 0040 	move.l 40 __aqb_read2,d1
			20a2: RELOC32	.bss
    20a6:	4eae ffb2      	jsr -78(a6)
    20aa:	2600           	move.l d0,d3
    20ac:	2003           	move.l d3,d0
    20ae:	4cdf 5cfc      	movem.l (sp)+,d2-d7/a2-a4/a6
    20b2:	4e5d           	unlk a5
    20b4:	4e75           	rts
    20b6:	4a82           	tst.l d2
    20b8:	6752           	beq.s 210c __aio_open+0xb4
    20ba:	224a           	movea.l a2,a1
    20bc:	7000           	moveq #0,d0
    20be:	2449           	movea.l a1,a2
    20c0:	7200           	moveq #0,d1
    20c2:	307c ffd0      	movea.w #-48,a0
    20c6:	1219           	move.b (a1)+,d1
    20c8:	d1c1           	adda.l d1,a0
    20ca:	7209           	moveq #9,d1
    20cc:	b288           	cmp.l a0,d1
    20ce:	659a           	bcs.s 206a __aio_open+0x12
    20d0:	2200           	move.l d0,d1
    20d2:	e589           	lsl.l #2,d1
    20d4:	d081           	add.l d1,d0
    20d6:	d080           	add.l d0,d0
    20d8:	d088           	add.l a0,d0
    20da:	2449           	movea.l a1,a2
    20dc:	5382           	subq.l #1,d2
    20de:	66de           	bne.s 20be __aio_open+0x66
    20e0:	2c79 0000 0008 	movea.l 8 ___mulsi4+0x2,a6
			20e2: RELOC32	.bss
    20e6:	4eae ffdc      	jsr -36(a6)
    20ea:	2600           	move.l d0,d3
    20ec:	2006           	move.l d6,d0
    20ee:	4eae ffdc      	jsr -36(a6)
    20f2:	2a00           	move.l d0,d5
    20f4:	1212           	move.b (a2),d1
    20f6:	0c01 002e      	cmpi.b #46,d1
    20fa:	668c           	bne.s 2088 __aio_open+0x30
    20fc:	6000 00d0      	bra.w 21ce __aio_init+0x30
    2100:	7002           	moveq #2,d0
    2102:	b086           	cmp.l d6,d0
    2104:	6606           	bne.s 210c __aio_open+0xb4
    2106:	4a82           	tst.l d2
    2108:	6600 01ba      	bne.w 22c4 __aio_close+0xc2
    210c:	2c79 0000 0008 	movea.l 8 ___mulsi4+0x2,a6
			210e: RELOC32	.bss
    2112:	7000           	moveq #0,d0
    2114:	4eae ffdc      	jsr -36(a6)
    2118:	2600           	move.l d0,d3
    211a:	2006           	move.l d6,d0
    211c:	4eae ffdc      	jsr -36(a6)
    2120:	2a00           	move.l d0,d5
    2122:	1212           	move.b (a2),d1
    2124:	0c01 002e      	cmpi.b #46,d1
    2128:	6600 ff5e      	bne.w 2088 __aio_open+0x30
    212c:	6000 00a0      	bra.w 21ce __aio_init+0x30
    2130:	102a 0001      	move.b 1(a2),d0
    2134:	0c00 002d      	cmpi.b #45,d0
    2138:	6700 02f8      	beq.w 2432 _CSRLIN_+0x7e
    213c:	0c00 002b      	cmpi.b #43,d0
    2140:	6700 031a      	beq.w 245c _POS_+0x1e
    2144:	528a           	addq.l #1,a2
    2146:	5382           	subq.l #1,d2
    2148:	2c39 0000 0020 	move.l 20 __debug_putc,d6
			214a: RELOC32	.bss
    214e:	5382           	subq.l #1,d2
    2150:	4247           	clr.w d7
    2152:	4a82           	tst.l d2
    2154:	6d56           	blt.s 21ac __aio_init+0xe
    2156:	7000           	moveq #0,d0
    2158:	101a           	move.b (a2)+,d0
    215a:	72d0           	moveq #-48,d1
    215c:	d081           	add.l d1,d0
    215e:	7209           	moveq #9,d1
    2160:	b280           	cmp.l d0,d1

00002162 __aio_getfh:
    2162:	6530           	bcs.s 2194 __aio_getfh+0x32
    2164:	49f9 0000 0008 	lea 8 ___mulsi4+0x2,a4
			2166: RELOC32	.bss
    216a:	2c54           	movea.l (a4),a6
    216c:	4eae ffdc      	jsr -36(a6)
    2170:	2640           	movea.l d0,a3
    2172:	2c54           	movea.l (a4),a6
    2174:	2039 0000 0028 	move.l 28 __debug_putc+0x8,d0
			2176: RELOC32	.bss
    217a:	2206           	move.l d6,d1
    217c:	4eae ffb2      	jsr -78(a6)
    2180:	220b           	move.l a3,d1
    2182:	2c54           	movea.l (a4),a6
    2184:	4eae ffbe      	jsr -66(a6)
    2188:	2c00           	move.l d0,d6
    218a:	51ca ffca      	dbf d2,2156 __aio_open+0xfe
    218e:	4242           	clr.w d2
    2190:	5382           	subq.l #1,d2
    2192:	64c2           	bcc.s 2156 __aio_open+0xfe
    2194:	4a47           	tst.w d7
    2196:	6714           	beq.s 21ac __aio_init+0xe
    2198:	2c79 0000 0008 	movea.l 8 ___mulsi4+0x2,a6
			219a: RELOC32	.bss

0000219e __aio_init:
    219e:	2006           	move.l d6,d0
    21a0:	2239 0000 0040 	move.l 40 __aqb_read2,d1
			21a2: RELOC32	.bss
    21a6:	4eae ffb2      	jsr -78(a6)
    21aa:	2c00           	move.l d0,d6
    21ac:	2c79 0000 000c 	movea.l c _SCREEN,a6
			21ae: RELOC32	.bss
    21b2:	2005           	move.l d5,d0
    21b4:	2206           	move.l d6,d1
    21b6:	4eae ffa6      	jsr -90(a6)
    21ba:	2c79 0000 0008 	movea.l 8 ___mulsi4+0x2,a6
			21bc: RELOC32	.bss
    21c0:	2200           	move.l d0,d1
    21c2:	2003           	move.l d3,d0
    21c4:	4eae ffb2      	jsr -78(a6)
    21c8:	2600           	move.l d0,d3
    21ca:	6000 fec8      	bra.w 2094 __aio_open+0x3c
    21ce:	47ea 0001      	lea 1(a2),a3
    21d2:	5382           	subq.l #1,d2
    21d4:	2200           	move.l d0,d1
    21d6:	2039 0000 0024 	move.l 24 __debug_putc+0x4,d0
			21d8: RELOC32	.bss
    21dc:	4eae ffac      	jsr -84(a6)
    21e0:	2e00           	move.l d0,d7
    21e2:	7008           	moveq #8,d0
    21e4:	b086           	cmp.l d6,d0
    21e6:	6700 02da      	beq.w 24c2 _POS_+0x84
    21ea:	6c00 011c      	bge.w 2308 _LOCATE_XY+0x2
    21ee:	700a           	moveq #10,d0
    21f0:	b086           	cmp.l d6,d0
    21f2:	6700 017a      	beq.w 236e _LOCATE_XY+0x68
    21f6:	7010           	moveq #16,d0
    21f8:	b086           	cmp.l d6,d0
    21fa:	6600 017a      	bne.w 2376 _LOCATE_XY+0x70
    21fe:	284b           	movea.l a3,a4
    2200:	4a82           	tst.l d2

00002202 __aio_close:
    2202:	6700 0172      	beq.w 2376 _LOCATE_XY+0x70
    2206:	264c           	movea.l a4,a3
    2208:	121c           	move.b (a4)+,d1
    220a:	7000           	moveq #0,d0
    220c:	307c ff9f      	movea.w #-97,a0
    2210:	1001           	move.b d1,d0
    2212:	d1c0           	adda.l d0,a0
    2214:	7c05           	moveq #5,d6
    2216:	bc88           	cmp.l a0,d6
    2218:	6500 01b2      	bcs.w 23cc _CSRLIN_+0x18
    221c:	72a9           	moveq #-87,d1
    221e:	d081           	add.l d1,d0
    2220:	45f9 0000 0008 	lea 8 ___mulsi4+0x2,a2
			2222: RELOC32	.bss
    2226:	2c52           	movea.l (a2),a6
    2228:	4eae ffdc      	jsr -36(a6)
    222c:	2c52           	movea.l (a2),a6
    222e:	2200           	move.l d0,d1
    2230:	2007           	move.l d7,d0
    2232:	4eae ffb2      	jsr -78(a6)
    2236:	2203           	move.l d3,d1
    2238:	2c52           	movea.l (a2),a6
    223a:	4eae ffbe      	jsr -66(a6)
    223e:	2600           	move.l d0,d3
    2240:	2c52           	movea.l (a2),a6
    2242:	2007           	move.l d7,d0
    2244:	2205           	move.l d5,d1
    2246:	4eae ffac      	jsr -84(a6)
    224a:	2e00           	move.l d0,d7
    224c:	244c           	movea.l a4,a2
    224e:	5382           	subq.l #1,d2
    2250:	66b4           	bne.s 2206 __aio_close+0x4
    2252:	102b 0001      	move.b 1(a3),d0
    2256:	0200 00df      	andi.b #-33,d0
    225a:	0c00 0045      	cmpi.b #69,d0
    225e:	6600 fe34      	bne.w 2094 __aio_open+0x3c
    2262:	6000 fecc      	bra.w 2130 __aio_open+0xd8
    2266:	528a           	addq.l #1,a2
    2268:	7801           	moveq #1,d4
    226a:	7008           	moveq #8,d0
    226c:	b086           	cmp.l d6,d0
    226e:	6600 fdb6      	bne.w 2026 __str2f_+0x30
    2272:	4a82           	tst.l d2
    2274:	6700 fe96      	beq.w 210c __aio_open+0xb4
    2278:	224a           	movea.l a2,a1
    227a:	7000           	moveq #0,d0
    227c:	2449           	movea.l a1,a2
    227e:	7200           	moveq #0,d1
    2280:	307c ffd0      	movea.w #-48,a0
    2284:	1219           	move.b (a1)+,d1
    2286:	d1c1           	adda.l d1,a0
    2288:	7207           	moveq #7,d1
    228a:	b288           	cmp.l a0,d1
    228c:	6500 fddc      	bcs.w 206a __aio_open+0x12
    2290:	e788           	lsl.l #3,d0
    2292:	d088           	add.l a0,d0
    2294:	2449           	movea.l a1,a2
    2296:	5382           	subq.l #1,d2
    2298:	66e2           	bne.s 227c __aio_close+0x7a
    229a:	2c79 0000 0008 	movea.l 8 ___mulsi4+0x2,a6
			229c: RELOC32	.bss
    22a0:	4eae ffdc      	jsr -36(a6)
    22a4:	2600           	move.l d0,d3
    22a6:	2006           	move.l d6,d0
    22a8:	4eae ffdc      	jsr -36(a6)
    22ac:	2a00           	move.l d0,d5
    22ae:	1212           	move.b (a2),d1
    22b0:	0c01 002e      	cmpi.b #46,d1
    22b4:	6600 fdd2      	bne.w 2088 __aio_open+0x30
    22b8:	6000 ff14      	bra.w 21ce __aio_init+0x30
    22bc:	528a           	addq.l #1,a2
    22be:	4244           	clr.w d4
    22c0:	6000 fd5c      	bra.w 201e __str2f_+0x28
    22c4:	224a           	movea.l a2,a1
    22c6:	7000           	moveq #0,d0
    22c8:	2449           	movea.l a1,a2
    22ca:	7200           	moveq #0,d1
    22cc:	307c ffd0      	movea.w #-48,a0
    22d0:	1219           	move.b (a1)+,d1
    22d2:	d1c1           	adda.l d1,a0
    22d4:	7201           	moveq #1,d1
    22d6:	b288           	cmp.l a0,d1
    22d8:	6500 fd90      	bcs.w 206a __aio_open+0x12
    22dc:	d080           	add.l d0,d0
    22de:	d088           	add.l a0,d0
    22e0:	2449           	movea.l a1,a2
    22e2:	5382           	subq.l #1,d2
    22e4:	66e2           	bne.s 22c8 __aio_close+0xc6
    22e6:	2c79 0000 0008 	movea.l 8 ___mulsi4+0x2,a6
			22e8: RELOC32	.bss
    22ec:	4eae ffdc      	jsr -36(a6)
    22f0:	2600           	move.l d0,d3
    22f2:	2006           	move.l d6,d0
    22f4:	4eae ffdc      	jsr -36(a6)
    22f8:	2a00           	move.l d0,d5
    22fa:	1212           	move.b (a2),d1
    22fc:	0c01 002e      	cmpi.b #46,d1
    2300:	6600 fd86      	bne.w 2088 __aio_open+0x30
    2304:	6000           	.short 0x6000

00002306 _LOCATE_XY:
    2306:	fec8           	.short 0xfec8
    2308:	5586           	subq.l #2,d6
    230a:	666a           	bne.s 2376 _LOCATE_XY+0x70
    230c:	284b           	movea.l a3,a4
    230e:	4a82           	tst.l d2
    2310:	6764           	beq.s 2376 _LOCATE_XY+0x70
    2312:	244c           	movea.l a4,a2
    2314:	121c           	move.b (a4)+,d1
    2316:	7000           	moveq #0,d0
    2318:	307c ffd0      	movea.w #-48,a0
    231c:	1001           	move.b d1,d0
    231e:	d1c0           	adda.l d0,a0
    2320:	7c01           	moveq #1,d6
    2322:	bc88           	cmp.l a0,d6
    2324:	6500 fd62      	bcs.w 2088 __aio_open+0x30
    2328:	47f9 0000 0008 	lea 8 ___mulsi4+0x2,a3
			232a: RELOC32	.bss
    232e:	2c53           	movea.l (a3),a6
    2330:	4eae ffdc      	jsr -36(a6)
    2334:	2c53           	movea.l (a3),a6
    2336:	2200           	move.l d0,d1
    2338:	2007           	move.l d7,d0
    233a:	4eae ffb2      	jsr -78(a6)
    233e:	2203           	move.l d3,d1
    2340:	2c53           	movea.l (a3),a6
    2342:	4eae ffbe      	jsr -66(a6)
    2346:	2600           	move.l d0,d3
    2348:	2c53           	movea.l (a3),a6
    234a:	2007           	move.l d7,d0
    234c:	2205           	move.l d5,d1
    234e:	4eae ffac      	jsr -84(a6)
    2352:	2e00           	move.l d0,d7
    2354:	5382           	subq.l #1,d2
    2356:	66ba           	bne.s 2312 _LOCATE_XY+0xc
    2358:	102a 0001      	move.b 1(a2),d0
    235c:	244c           	movea.l a4,a2
    235e:	0200 00df      	andi.b #-33,d0
    2362:	0c00 0045      	cmpi.b #69,d0
    2366:	6600 fd2c      	bne.w 2094 __aio_open+0x3c
    236a:	6000 fdc4      	bra.w 2130 __aio_open+0xd8
    236e:	284b           	movea.l a3,a4
    2370:	4a82           	tst.l d2
    2372:	6600 0100      	bne.w 2474 _POS_+0x36
    2376:	102a 0001      	move.b 1(a2),d0
    237a:	244b           	movea.l a3,a2
    237c:	0200 00df      	andi.b #-33,d0
    2380:	0c00 0045      	cmpi.b #69,d0
    2384:	6600 fd0e      	bne.w 2094 __aio_open+0x3c
    2388:	6000 fda6      	bra.w 2130 __aio_open+0xd8
    238c:	307c ffbf      	movea.w #-65,a0
    2390:	d1c1           	adda.l d1,a0
    2392:	7605           	moveq #5,d3
    2394:	b688           	cmp.l a0,d3
    2396:	6516           	bcs.s 23ae _LOCATE_XY+0xa8
    2398:	307c ffc9      	movea.w #-55,a0
    239c:	e988           	lsl.l #4,d0
    239e:	d1c1           	adda.l d1,a0
    23a0:	d088           	add.l a0,d0
    23a2:	2449           	movea.l a1,a2
    23a4:	5382           	subq.l #1,d2
    23a6:	6600 fc9e      	bne.w 2046 __str2f_+0x50
    23aa:	6000 fcbe      	bra.w 206a __aio_open+0x12
    23ae:	307c ffd0      	movea.w #-48,a0
    23b2:	d1c1           	adda.l d1,a0

000023b4 _CSRLIN_:
    23b4:	7209           	moveq #9,d1
    23b6:	b288           	cmp.l a0,d1
    23b8:	6500 fcb0      	bcs.w 206a __aio_open+0x12
    23bc:	e988           	lsl.l #4,d0
    23be:	d088           	add.l a0,d0
    23c0:	2449           	movea.l a1,a2
    23c2:	5382           	subq.l #1,d2
    23c4:	6600 fc80      	bne.w 2046 __str2f_+0x50
    23c8:	6000 fca0      	bra.w 206a __aio_open+0x12
    23cc:	307c ffbf      	movea.w #-65,a0
    23d0:	d1c0           	adda.l d0,a0
    23d2:	7c05           	moveq #5,d6
    23d4:	bc88           	cmp.l a0,d6
    23d6:	653c           	bcs.s 2414 _CSRLIN_+0x60
    23d8:	72c9           	moveq #-55,d1
    23da:	45f9 0000 0008 	lea 8 ___mulsi4+0x2,a2
			23dc: RELOC32	.bss
    23e0:	2c52           	movea.l (a2),a6
    23e2:	d081           	add.l d1,d0
    23e4:	4eae ffdc      	jsr -36(a6)
    23e8:	2c52           	movea.l (a2),a6
    23ea:	2200           	move.l d0,d1
    23ec:	2007           	move.l d7,d0
    23ee:	4eae ffb2      	jsr -78(a6)
    23f2:	2203           	move.l d3,d1
    23f4:	2c52           	movea.l (a2),a6
    23f6:	4eae ffbe      	jsr -66(a6)
    23fa:	2600           	move.l d0,d3
    23fc:	2c52           	movea.l (a2),a6
    23fe:	2007           	move.l d7,d0
    2400:	2205           	move.l d5,d1
    2402:	4eae ffac      	jsr -84(a6)
    2406:	2e00           	move.l d0,d7
    2408:	244c           	movea.l a4,a2
    240a:	5382           	subq.l #1,d2
    240c:	6600 fdf8      	bne.w 2206 __aio_close+0x4
    2410:	6000 fe40      	bra.w 2252 __aio_close+0x50
    2414:	7cd0           	moveq #-48,d6
    2416:	d086           	add.l d6,d0
    2418:	7c09           	moveq #9,d6
    241a:	bc80           	cmp.l d0,d6
    241c:	6400 fe02      	bcc.w 2220 __aio_close+0x1e
    2420:	244b           	movea.l a3,a2
    2422:	0201 00df      	andi.b #-33,d1
    2426:	0c01 0045      	cmpi.b #69,d1
    242a:	6600 fc68      	bne.w 2094 __aio_open+0x3c
    242e:	6000 fd00      	bra.w 2130 __aio_open+0xd8
    2432:	548a           	addq.l #2,a2
    2434:	2c39 0000 0020 	move.l 20 __debug_putc,d6
			2436: RELOC32	.bss
    243a:	5782           	subq.l #3,d2
    243c:	7e01           	moveq #1,d7

0000243e _POS_:
    243e:	4a82           	tst.l d2
    2440:	6c00 fd14      	bge.w 2156 __aio_open+0xfe
    2444:	2c79 0000 0008 	movea.l 8 ___mulsi4+0x2,a6
			2446: RELOC32	.bss
    244a:	2006           	move.l d6,d0
    244c:	2239 0000 0040 	move.l 40 __aqb_read2,d1
			244e: RELOC32	.bss
    2452:	4eae ffb2      	jsr -78(a6)
    2456:	2c00           	move.l d0,d6
    2458:	6000 fd52      	bra.w 21ac __aio_init+0xe
    245c:	548a           	addq.l #2,a2
    245e:	5582           	subq.l #2,d2
    2460:	2c39 0000 0020 	move.l 20 __debug_putc,d6
			2462: RELOC32	.bss
    2466:	5382           	subq.l #1,d2
    2468:	4247           	clr.w d7
    246a:	4a82           	tst.l d2
    246c:	6c00 fce8      	bge.w 2156 __aio_open+0xfe
    2470:	6000 fd3a      	bra.w 21ac __aio_init+0xe
    2474:	244c           	movea.l a4,a2
    2476:	121c           	move.b (a4)+,d1
    2478:	7000           	moveq #0,d0
    247a:	1001           	move.b d1,d0
    247c:	7cd0           	moveq #-48,d6
    247e:	d086           	add.l d6,d0
    2480:	7c09           	moveq #9,d6
    2482:	bc80           	cmp.l d0,d6
    2484:	6500 fc02      	bcs.w 2088 __aio_open+0x30
    2488:	47f9 0000 0008 	lea 8 ___mulsi4+0x2,a3
			248a: RELOC32	.bss
    248e:	2c53           	movea.l (a3),a6
    2490:	4eae ffdc      	jsr -36(a6)
    2494:	2c53           	movea.l (a3),a6
    2496:	2200           	move.l d0,d1
    2498:	2007           	move.l d7,d0
    249a:	4eae ffb2      	jsr -78(a6)
    249e:	2203           	move.l d3,d1
    24a0:	2c53           	movea.l (a3),a6
    24a2:	4eae ffbe      	jsr -66(a6)
    24a6:	2600           	move.l d0,d3
    24a8:	2c53           	movea.l (a3),a6
    24aa:	2007           	move.l d7,d0
    24ac:	2205           	move.l d5,d1
    24ae:	4eae ffac      	jsr -84(a6)
    24b2:	2e00           	move.l d0,d7
    24b4:	5382           	subq.l #1,d2
    24b6:	66bc           	bne.s 2474 _POS_+0x36
    24b8:	102a 0001      	move.b 1(a2),d0
    24bc:	244c           	movea.l a4,a2
    24be:	6000 fe9e      	bra.w 235e _LOCATE_XY+0x58
    24c2:	284b           	movea.l a3,a4
    24c4:	4a82           	tst.l d2
    24c6:	6700 feae      	beq.w 2376 _LOCATE_XY+0x70
    24ca:	244c           	movea.l a4,a2
    24cc:	121c           	move.b (a4)+,d1
    24ce:	7000           	moveq #0,d0
    24d0:	307c ffd0      	movea.w #-48,a0
    24d4:	1001           	move.b d1,d0
    24d6:	d1c0           	adda.l d0,a0
    24d8:	7c07           	moveq #7,d6
    24da:	bc88           	cmp.l a0,d6
    24dc:	6500 fbaa      	bcs.w 2088 __aio_open+0x30
    24e0:	47f9 0000 0008 	lea 8 ___mulsi4+0x2,a3
			24e2: RELOC32	.bss
    24e6:	2c53           	movea.l (a3),a6
    24e8:	4eae ffdc      	jsr -36(a6)
    24ec:	2c53           	movea.l (a3),a6
    24ee:	2200           	move.l d0,d1
    24f0:	2007           	move.l d7,d0
    24f2:	4eae ffb2      	jsr -78(a6)
    24f6:	2203           	move.l d3,d1
    24f8:	2c53           	movea.l (a3),a6
    24fa:	4eae ffbe      	jsr -66(a6)
    24fe:	2600           	move.l d0,d3
    2500:	2c53           	movea.l (a3),a6
    2502:	2007           	move.l d7,d0
    2504:	2205           	move.l d5,d1
    2506:	4eae ffac      	jsr -84(a6)
    250a:	2e00           	move.l d0,d7
    250c:	5382           	subq.l #1,d2
    250e:	66ba           	bne.s 24ca _POS_+0x8c
    2510:	102a 0001      	move.b 1(a2),d0
    2514:	244c           	movea.l a4,a2
    2516:	6000 fe46      	bra.w 235e _LOCATE_XY+0x58

0000251a _VAL_:
    251a:	4e55 0000      	link.w a5,#0
    251e:	2f03           	move.l d3,-(sp)
    2520:	2f02           	move.l d2,-(sp)

00002522 _EOF_:
    2522:	262d 0008      	move.l 8(a5),d3
    2526:	6762           	beq.s 258a _EOF_+0x68
    2528:	2043           	movea.l d3,a0
    252a:	2248           	movea.l a0,a1
    252c:	1018           	move.b (a0)+,d0
    252e:	0c00 0020      	cmpi.b #32,d0
    2532:	67f6           	beq.s 252a _EOF_+0x8
    2534:	0c00 0009      	cmpi.b #9,d0
    2538:	67f0           	beq.s 252a _EOF_+0x8
    253a:	1400           	move.b d0,d2
    253c:	7200           	moveq #0,d1
    253e:	4a02           	tst.b d2
    2540:	6706           	beq.s 2548 _EOF_+0x26
    2542:	5281           	addq.l #1,d1
    2544:	1418           	move.b (a0)+,d2
    2546:	66fa           	bne.s 2542 _EOF_+0x20
    2548:	4a81           	tst.l d1
    254a:	6730           	beq.s 257c _EOF_+0x5a
    254c:	7401           	moveq #1,d2
    254e:	b481           	cmp.l d1,d2
    2550:	6706           	beq.s 2558 _EOF_+0x36
    2552:	0c00 0026      	cmpi.b #38,d0
    2556:	6740           	beq.s 2598 _EOF_+0x76
    2558:	91c8           	suba.l a0,a0
    255a:	2608           	move.l a0,d3
    255c:	700a           	moveq #10,d0
    255e:	9288           	sub.l a0,d1
    2560:	d689           	add.l a1,d3
    2562:	2f00           	move.l d0,-(sp)
    2564:	2f01           	move.l d1,-(sp)
    2566:	2f03           	move.l d3,-(sp)
    2568:	4eba fa8c      	jsr 1ff6 __str2f_(pc)
    256c:	4fef 000c      	lea 12(sp),sp
    2570:	242d fff8      	move.l -8(a5),d2
    2574:	262d fffc      	move.l -4(a5),d3
    2578:	4e5d           	unlk a5
    257a:	4e75           	rts
    257c:	700a           	moveq #10,d0
    257e:	2f00           	move.l d0,-(sp)
    2580:	2f01           	move.l d1,-(sp)
    2582:	2f03           	move.l d3,-(sp)
    2584:	4eba fa70      	jsr 1ff6 __str2f_(pc)
    2588:	60e6           	bra.s 2570 _EOF_+0x4e
    258a:	7000           	moveq #0,d0
    258c:	242d fff8      	move.l -8(a5),d2
    2590:	262d fffc      	move.l -4(a5),d3
    2594:	4e5d           	unlk a5
    2596:	4e75           	rts
    2598:	1429 0001      	move.b 1(a1),d2
    259c:	0602 00be      	addi.b #-66,d2
    25a0:	0c02 002d      	cmpi.b #45,d2
    25a4:	6200 0098      	bhi.w 263e _LOCATE+0x24
    25a8:	7000           	moveq #0,d0
    25aa:	1002           	move.b d2,d0
    25ac:	d080           	add.l d0,d0
    25ae:	303b 0806      	move.w (25b6 _EOF_+0x94,pc,d0.l),d0
    25b2:	4efb 0002      	jmp (25b6 _EOF_+0x94,pc,d0.w)
    25b6:	007c 0088      	ori.w #136,sr
    25ba:	0088           	.short 0x0088
    25bc:	0088           	.short 0x0088
    25be:	0088           	.short 0x0088
    25c0:	0088           	.short 0x0088
    25c2:	006c 0088 0088 	ori.w #136,136(a4)
    25c8:	0088           	.short 0x0088
    25ca:	0088           	.short 0x0088
    25cc:	0088           	.short 0x0088
    25ce:	0088           	.short 0x0088
    25d0:	005c 0088      	ori.w #136,(a4)+
    25d4:	0088           	.short 0x0088
    25d6:	0088           	.short 0x0088
    25d8:	0088           	Address 0x00000000000025da is out of bounds.
.short 0x0088
    25da:	0088           	Address 0x00000000000025dc is out of bounds.
.short 0x0088

000025dc _CLS:
    25dc:	0088           	.short 0x0088
    25de:	0088           	.short 0x0088
    25e0:	0088           	.short 0x0088
    25e2:	0088           	.short 0x0088
    25e4:	0088           	.short 0x0088
    25e6:	0088           	.short 0x0088
    25e8:	0088           	.short 0x0088
    25ea:	0088           	.short 0x0088
    25ec:	0088           	.short 0x0088
    25ee:	0088           	.short 0x0088
    25f0:	0088           	.short 0x0088
    25f2:	0088           	.short 0x0088
    25f4:	0088           	.short 0x0088
    25f6:	007c 0088      	ori.w #136,sr
    25fa:	0088           	.short 0x0088
    25fc:	0088           	.short 0x0088
    25fe:	0088           	.short 0x0088
    2600:	0088           	.short 0x0088
    2602:	006c 0088 0088 	ori.w #136,136(a4)
    2608:	0088           	.short 0x0088
    260a:	0088           	.short 0x0088
    260c:	0088           	.short 0x0088
    260e:	0088           	.short 0x0088
    2610:	005c 307c      	ori.w #12412,(a4)+
    2614:	0002 2608      	ori.b #8,d2
    2618:	7008           	moveq #8,d0

0000261a _LOCATE:
    261a:	9288           	sub.l a0,d1
    261c:	d689           	add.l a1,d3
    261e:	6000 ff42      	bra.w 2562 _EOF_+0x40
    2622:	307c 0002      	movea.w #2,a0
    2626:	2608           	move.l a0,d3
    2628:	7010           	moveq #16,d0
    262a:	9288           	sub.l a0,d1
    262c:	d689           	add.l a1,d3
    262e:	6000 ff32      	bra.w 2562 _EOF_+0x40
    2632:	7002           	moveq #2,d0
    2634:	2600           	move.l d0,d3
    2636:	9280           	sub.l d0,d1
    2638:	d689           	add.l a1,d3
    263a:	6000 ff26      	bra.w 2562 _EOF_+0x40
    263e:	307c 0001      	movea.w #1,a0
    2642:	2608           	move.l a0,d3
    2644:	7008           	moveq #8,d0
    2646:	9288           	sub.l a0,d1
    2648:	d689           	add.l a1,d3
    264a:	6000 ff16      	bra.w 2562 _EOF_+0x40

0000264e _MEMSET:
    264e:	4e55 0000      	link.w a5,#0
    2652:	2f02           	move.l d2,-(sp)
    2654:	202d 0010      	move.l 16(a5),d0
    2658:	4a80           	tst.l d0
    265a:	6716           	beq.s 2672 _MEMSET+0x24
    265c:	242d 0008      	move.l 8(a5),d2
    2660:	2042           	movea.l d2,a0
    2662:	2408           	move.l a0,d2
    2664:	5282           	addq.l #1,d2
    2666:	222d 000c      	move.l 12(a5),d1
    266a:	1081           	move.b d1,(a0)
    266c:	5380           	subq.l #1,d0
    266e:	4a80           	tst.l d0
    2670:	66ee           	bne.s 2660 _MEMSET+0x12
    2672:	202d 0008      	move.l 8(a5),d0
    2676:	241f           	move.l (sp)+,d2
    2678:	4e5d           	unlk a5
    267a:	4e75           	rts

0000267c __astr_init:
    267c:	2f0e           	move.l a6,-(sp)
    267e:	2f02           	move.l d2,-(sp)
    2680:	203c 0098 9680 	move.l #10000000,d0
    2686:	2c79 0000 0008 	movea.l 8 ___mulsi4+0x2,a6
			2688: RELOC32	.bss
    268c:	4eae ffdc      	jsr -36(a6)
    2690:	23c0 0000 0000 	move.l d0,0 _start
			2692: RELOC32	.bss
    2696:	203c 0001 86a0 	move.l #100000,d0
    269c:	4eae ffdc      	jsr -36(a6)
    26a0:	2400           	move.l d0,d2
    26a2:	7001           	moveq #1,d0
    26a4:	4eae ffdc      	jsr -36(a6)
    26a8:	2202           	move.l d2,d1
    26aa:	4eae ffac      	jsr -84(a6)
    26ae:	23c0 0000 0004 	move.l d0,4 _start+0x4
			26b0: RELOC32	.bss
    26b4:	7010           	moveq #16,d0
    26b6:	4eae ffdc      	jsr -36(a6)
    26ba:	2400           	move.l d0,d2
    26bc:	700a           	moveq #10,d0
    26be:	4eae ffdc      	jsr -36(a6)
    26c2:	2202           	move.l d2,d1
    26c4:	2c79 0000 000c 	movea.l c _SCREEN,a6
			26c6: RELOC32	.bss
    26ca:	4eae ffa6      	jsr -90(a6)
    26ce:	23c0 0000 0008 	move.l d0,8 ___mulsi4+0x2
			26d0: RELOC32	.bss
    26d4:	7009           	moveq #9,d0
    26d6:	2c79 0000 0008 	movea.l 8 ___mulsi4+0x2,a6
			26d8: RELOC32	.bss
    26dc:	4eae ffdc      	jsr -36(a6)
    26e0:	2400           	move.l d0,d2
    26e2:	700a           	moveq #10,d0
    26e4:	4eae ffdc      	jsr -36(a6)
    26e8:	2202           	move.l d2,d1
    26ea:	2c79 0000 000c 	movea.l c _SCREEN,a6
			26ec: RELOC32	.bss
    26f0:	4eae ffa6      	jsr -90(a6)
    26f4:	23c0 0000 001c 	move.l d0,1c __atimer_shutdown
			26f6: RELOC32	.bss
    26fa:	7008           	moveq #8,d0
    26fc:	2c79 0000 0008 	movea.l 8 ___mulsi4+0x2,a6
			26fe: RELOC32	.bss
    2702:	4eae ffdc      	jsr -36(a6)
    2706:	2400           	move.l d0,d2
    2708:	700a           	moveq #10,d0
    270a:	4eae ffdc      	jsr -36(a6)
    270e:	2202           	move.l d2,d1
    2710:	2c79 0000 000c 	movea.l c _SCREEN,a6
			2712: RELOC32	.bss
    2716:	4eae ffa6      	jsr -90(a6)
    271a:	23c0 0000 000c 	move.l d0,c _SCREEN
			271c: RELOC32	.bss

00002720 __aio_shutdown:
    2720:	7004           	moveq #4,d0
    2722:	2c79 0000 0008 	movea.l 8 ___mulsi4+0x2,a6
			2724: RELOC32	.bss
    2728:	4eae ffdc      	jsr -36(a6)
    272c:	2400           	move.l d0,d2
    272e:	700a           	moveq #10,d0
    2730:	4eae ffdc      	jsr -36(a6)
    2734:	2202           	move.l d2,d1
    2736:	2c79 0000 000c 	movea.l c _SCREEN,a6
			2738: RELOC32	.bss
    273c:	4eae ffa6      	jsr -90(a6)
    2740:	23c0 0000 0010 	move.l d0,10 __aqb_read1
			2742: RELOC32	.bss
    2746:	7002           	moveq #2,d0
    2748:	2c79 0000 0008 	movea.l 8 ___mulsi4+0x2,a6
			274a: RELOC32	.bss
    274e:	4eae ffdc      	jsr -36(a6)
    2752:	2400           	move.l d0,d2
    2754:	700a           	moveq #10,d0
    2756:	4eae ffdc      	jsr -36(a6)
    275a:	2202           	move.l d2,d1
    275c:	2c79 0000 000c 	movea.l c _SCREEN,a6
			275e: RELOC32	.bss
    2762:	4eae ffa6      	jsr -90(a6)
    2766:	23c0 0000 0014 	move.l d0,14 __aqb_read1+0x4
			2768: RELOC32	.bss
    276c:	7001           	moveq #1,d0
    276e:	2c79 0000 0008 	movea.l 8 ___mulsi4+0x2,a6
			2770: RELOC32	.bss
    2774:	4eae ffdc      	jsr -36(a6)
    2778:	2400           	move.l d0,d2
    277a:	700a           	moveq #10,d0
    277c:	4eae ffdc      	jsr -36(a6)
    2780:	2202           	move.l d2,d1
    2782:	2c79 0000 000c 	movea.l c _SCREEN,a6
			2784: RELOC32	.bss
    2788:	4eae ffa6      	jsr -90(a6)
    278c:	23c0 0000 0018 	move.l d0,18 ___DARRAY_T_REDIM
			278e: RELOC32	.bss
    2792:	700a           	moveq #10,d0
    2794:	2c79 0000 0008 	movea.l 8 ___mulsi4+0x2,a6
			2796: RELOC32	.bss
    279a:	4eae ffdc      	jsr -36(a6)
    279e:	23c0 0000 0028 	move.l d0,28 __debug_putc+0x8
			27a0: RELOC32	.bss
    27a4:	7001           	moveq #1,d0
    27a6:	4eae ffdc      	jsr -36(a6)
    27aa:	23c0 0000 0024 	move.l d0,24 __debug_putc+0x4
			27ac: RELOC32	.bss
    27b0:	7000           	moveq #0,d0
    27b2:	4eae ffdc      	jsr -36(a6)
    27b6:	23c0 0000 0020 	move.l d0,20 __debug_putc
			27b8: RELOC32	.bss
    27bc:	70ff           	moveq #-1,d0
    27be:	4eae ffdc      	jsr -36(a6)
    27c2:	23c0 0000 0040 	move.l d0,40 __aqb_read2
			27c4: RELOC32	.bss
    27c8:	70f1           	moveq #-15,d0
    27ca:	4eae ffdc      	jsr -36(a6)
    27ce:	2400           	move.l d0,d2
    27d0:	700a           	moveq #10,d0
    27d2:	4eae ffdc      	jsr -36(a6)
    27d6:	2202           	move.l d2,d1
    27d8:	2c79 0000 000c 	movea.l c _SCREEN,a6
			27da: RELOC32	.bss
    27de:	4eae ffa6      	jsr -90(a6)
    27e2:	23c0 0000 002c 	move.l d0,2c ___umodsi3+0x2
			27e4: RELOC32	.bss
    27e8:	70f9           	moveq #-7,d0
    27ea:	2c79 0000 0008 	movea.l 8 ___mulsi4+0x2,a6
			27ec: RELOC32	.bss
    27f0:	4eae ffdc      	jsr -36(a6)
    27f4:	2400           	move.l d0,d2
    27f6:	700a           	moveq #10,d0
    27f8:	4eae ffdc      	jsr -36(a6)
    27fc:	2202           	move.l d2,d1
    27fe:	2c79 0000 000c 	movea.l c _SCREEN,a6
			2800: RELOC32	.bss
    2804:	4eae ffa6      	jsr -90(a6)
    2808:	23c0           	.short 0x23c0

0000280a _PALETTE:
    280a:	0000 0030      	ori.b #48,d0
			280a: RELOC32	.bss
    280e:	70fd           	moveq #-3,d0
    2810:	2c79 0000 0008 	movea.l 8 ___mulsi4+0x2,a6
			2812: RELOC32	.bss
    2816:	4eae ffdc      	jsr -36(a6)
    281a:	2400           	move.l d0,d2
    281c:	700a           	moveq #10,d0
    281e:	4eae ffdc      	jsr -36(a6)
    2822:	2202           	move.l d2,d1
    2824:	2c79 0000 000c 	movea.l c _SCREEN,a6
			2826: RELOC32	.bss
    282a:	4eae ffa6      	jsr -90(a6)
    282e:	23c0 0000 0034 	move.l d0,34 ___umodsi4+0x4
			2830: RELOC32	.bss
    2834:	70ff           	moveq #-1,d0
    2836:	2c79 0000 0008 	movea.l 8 ___mulsi4+0x2,a6
			2838: RELOC32	.bss
    283c:	4eae ffdc      	jsr -36(a6)
    2840:	2400           	move.l d0,d2
    2842:	700a           	moveq #10,d0
    2844:	4eae ffdc      	jsr -36(a6)
    2848:	2202           	move.l d2,d1
    284a:	2c79 0000 000c 	movea.l c _SCREEN,a6
			284c: RELOC32	.bss
    2850:	4eae ffa6      	jsr -90(a6)
    2854:	23c0 0000 0038 	move.l d0,38 __aqb_clear+0x2
			2856: RELOC32	.bss
    285a:	7002           	moveq #2,d0
    285c:	2c79 0000 0008 	movea.l 8 ___mulsi4+0x2,a6
			285e: RELOC32	.bss
    2862:	4eae ffdc      	jsr -36(a6)
    2866:	2400           	move.l d0,d2
    2868:	7001           	moveq #1,d0
    286a:	4eae ffdc      	jsr -36(a6)
    286e:	2202           	move.l d2,d1
    2870:	4eae ffac      	jsr -84(a6)
    2874:	23c0 0000 003c 	move.l d0,3c ___udivsi4
			2876: RELOC32	.bss
    287a:	241f           	move.l (sp)+,d2
    287c:	2c5f           	movea.l (sp)+,a6
    287e:	4e75           	rts

Disassembly of section .text:

00000000 _start:
       0:	4cef 0003 0004 	movem.l 4(sp),d0-d1

00000006 ___mulsi4:
       6:	2f03           	move.l d3,-(sp)
       8:	2f02           	move.l d2,-(sp)
       a:	3401           	move.w d1,d2

0000000c _SCREEN:
       c:	c4c0           	mulu.w d0,d2
       e:	2601           	move.l d1,d3

00000010 __aqb_read1:
      10:	4843           	swap d3
      12:	c6c0           	mulu.w d0,d3
      14:	4843           	swap d3
      16:	4243           	clr.w d3

00000018 ___DARRAY_T_REDIM:
      18:	d483           	add.l d3,d2
      1a:	4840           	swap d0

0000001c __atimer_shutdown:
      1c:	c0c1           	mulu.w d1,d0
      1e:	4840           	swap d0

00000020 __debug_putc:
      20:	4240           	clr.w d0
      22:	d082           	add.l d2,d0
      24:	241f           	move.l (sp)+,d2
      26:	261f           	move.l (sp)+,d3
      28:	4e75           	rts

0000002a ___umodsi3:
      2a:	4cef 0003 0004 	movem.l 4(sp),d0-d1

00000030 ___umodsi4:
      30:	610a           	bsr.s 3c ___udivsi4
      32:	2001           	move.l d1,d0
      34:	4e75           	rts

00000036 __aqb_clear:
      36:	4cef 0003 0004 	movem.l 4(sp),d0-d1

0000003c ___udivsi4:
      3c:	2f03           	move.l d3,-(sp)

0000003e _foo:
      3e:	2f02           	move.l d2,-(sp)

00000040 __aqb_read2:
      40:	2601           	move.l d1,d3
      42:	4841           	swap d1
      44:	4a41           	tst.w d1
      46:	6618           	bne.s 60 __aqb_read2+0x20
      48:	3400           	move.w d0,d2
      4a:	4240           	clr.w d0
      4c:	4840           	swap d0
      4e:	80c3           	divu.w d3,d0
      50:	2200           	move.l d0,d1
      52:	4840           	swap d0
      54:	3202           	move.w d2,d1
      56:	82c3           	divu.w d3,d1
      58:	3001           	move.w d1,d0
      5a:	4241           	clr.w d1
      5c:	4841           	swap d1
      5e:	601c           	bra.s 7c __atimer_process_signals+0x4
      60:	2200           	move.l d0,d1
      62:	4840           	swap d0
      64:	4240           	clr.w d0
      66:	4241           	clr.w d1
      68:	4841           	swap d1
      6a:	740f           	moveq #15,d2
      6c:	d080           	add.l d0,d0

0000006e __aqb_read4:
      6e:	d381           	addx.l d1,d1

00000070 _DEALLOCATE:
      70:	b681           	cmp.l d1,d3

00000072 __MEMSET:
      72:	6204           	bhi.s 78 __atimer_process_signals
      74:	9283           	sub.l d3,d1
      76:	5240           	addq.w #1,d0

00000078 __atimer_process_signals:
      78:	51ca fff2      	dbf d2,6c __aqb_read2+0x2c
      7c:	241f           	move.l (sp)+,d2
      7e:	261f           	move.l (sp)+,d3
      80:	4e75           	rts

00000082 ___modsi3:
      82:	4cef           	.short 0x4cef
      84:	0003           	Address 0x0000000000000086 is out of bounds.
.short 0x0003

00000086 __autil_exit:
      86:	0004           	Address 0x0000000000000088 is out of bounds.
.short 0x0004

00000088 ___modsi4:
      88:	610a           	bsr.s 94 ___divsi4
      8a:	2001           	move.l d1,d0
      8c:	4e75           	rts

0000008e ___divsi3:
      8e:	4cef 0003 0004 	movem.l 4(sp),d0-d1

00000094 ___divsi4:
      94:	2f03           	move.l d3,-(sp)
      96:	2f02           	move.l d2,-(sp)
      98:	7400           	moveq #0,d2

0000009a _TAGITEMS_:
      9a:	4a80           	tst.l d0

0000009c __aqb_assert:
      9c:	6a04           	bpl.s a2 __aio_set_dos_cursor_visible+0x2
      9e:	4480           	neg.l d0

000000a0 __aio_set_dos_cursor_visible:
      a0:	5282           	addq.l #1,d2
      a2:	2602           	move.l d2,d3
      a4:	4a81           	tst.l d1
      a6:	6a06           	bpl.s ae _TAGS_
      a8:	4481           	neg.l d1
      aa:	0a43 0001      	eori.w #1,d3

000000ae _TAGS_:
      ae:	618c           	bsr.s 3c ___udivsi4
      b0:	4a42           	tst.w d2
      b2:	6702           	beq.s b6 _TAGS_+0x8
      b4:	4480           	neg.l d0
      b6:	4a43           	tst.w d3
      b8:	6702           	beq.s bc _SOUND+0x2

000000ba _SOUND:
      ba:	4481           	neg.l d1
      bc:	241f           	move.l (sp)+,d2
      be:	261f           	move.l (sp)+,d3
      c0:	4e75           	rts

000000c2 ___pow_s4:
      c2:	4e55 0000      	link.w a5,#0
      c6:	48e7 3820      	movem.l d2-d4/a2,-(sp)
      ca:	262d           	.short 0x262d

000000cc __debug_puts:
      cc:	0008           	.short 0x0008
      ce:	242d 000c      	move.l 12(a5),d2
      d2:	7801           	moveq #1,d4
      d4:	45fa ff2a      	lea 0 _start(pc),a2
      d8:	0802 0000      	btst #0,d2
      dc:	670a           	beq.s e8 __debug_puts+0x1c
      de:	2f03           	move.l d3,-(sp)
      e0:	2f04           	move.l d4,-(sp)
      e2:	4e92           	jsr (a2)
      e4:	508f           	addq.l #8,sp
      e6:	2800           	move.l d0,d4
      e8:	e282           	asr.l #1,d2

000000ea _ON_ERROR_CALL:
      ea:	670c           	beq.s f8 _ON_ERROR_CALL+0xe
      ec:	2f03           	move.l d3,-(sp)
      ee:	2f03           	move.l d3,-(sp)
      f0:	4e92           	jsr (a2)
      f2:	508f           	addq.l #8,sp
      f4:	2600           	move.l d0,d3
      f6:	60e0           	bra.s d8 __debug_puts+0xc
      f8:	2004           	move.l d4,d0
      fa:	4ced 041c fff0 	movem.l -16(a5),d2-d4/a2
     100:	4e5d           	unlk a5
     102:	4e75           	rts

00000104 ___pow_u4:
     104:	4e55 0000      	link.w a5,#0
     108:	48e7           	Address 0x000000000000010a is out of bounds.
.short 0x48e7

0000010a __aio_putnl:
     10a:	3820           	move.w -(a0),d4
     10c:	262d 0008      	move.l 8(a5),d3
     110:	242d 000c      	move.l 12(a5),d2
     114:	7801           	moveq #1,d4
     116:	45fa fee8      	lea 0 _start(pc),a2
     11a:	0802 0000      	btst #0,d2

0000011e _ERROR:
     11e:	670a           	beq.s 12a _ERROR+0xc
     120:	2f03           	move.l d3,-(sp)
     122:	2f04           	move.l d4,-(sp)
     124:	4e92           	jsr (a2)
     126:	508f           	addq.l #8,sp
     128:	2800           	move.l d0,d4
     12a:	e28a           	lsr.l #1,d2
     12c:	670c           	beq.s 13a _SCREEN_CLOSE+0x2
     12e:	2f03           	move.l d3,-(sp)
     130:	2f03           	move.l d3,-(sp)
     132:	4e92           	jsr (a2)
     134:	508f           	addq.l #8,sp
     136:	2600           	move.l d0,d3

00000138 _SCREEN_CLOSE:
     138:	60e0           	bra.s 11a __aio_putnl+0x10
     13a:	2004           	move.l d4,d0
     13c:	4ced           	Address 0x000000000000013e is out of bounds.
.short 0x4ced

0000013e ___aqb_init:
     13e:	041c fff0      	subi.b #-16,(a4)+

00000142 __astr_itoa:
     142:	4e5d           	unlk a5
     144:	4e75           	rts

00000146 ___pow_s2:
     146:	4e55 0000      	link.w a5,#0
     14a:	2f03           	move.l d3,-(sp)
     14c:	2f02           	move.l d2,-(sp)
     14e:	342d 000a      	move.w 10(a5),d2
     152:	322d 000e      	move.w 14(a5),d1
     156:	7001           	moveq #1,d0
     158:	3601           	move.w d1,d3
     15a:	0243 0001      	andi.w #1,d3
     15e:	6702           	beq.s 162 ___pow_s2+0x1c
     160:	c1c2           	muls.w d2,d0
     162:	e241           	asr.w #1,d1
     164:	6704           	beq.s 16a ___pow_s2+0x24
     166:	c5c2           	muls.w d2,d2
     168:	60ee           	bra.s 158 ___pow_s2+0x12
     16a:	241f           	move.l (sp)+,d2
     16c:	261f           	move.l (sp)+,d3
     16e:	4e5d           	unlk a5
     170:	4e75           	rts

00000172 ___pow_u2:
     172:	4e55 0000      	link.w a5,#0
     176:	2f03           	move.l d3,-(sp)
     178:	2f02           	move.l d2,-(sp)
     17a:	342d 000a      	move.w 10(a5),d2
     17e:	322d 000e      	move.w 14(a5),d1
     182:	7001           	moveq #1,d0
     184:	3601           	move.w d1,d3
     186:	0243 0001      	andi.w #1,d3
     18a:	6702           	beq.s 18e __debug_puts1+0x2

0000018c __debug_puts1:
     18c:	c1c2           	muls.w d2,d0
     18e:	e249           	lsr.w #1,d1
     190:	6704           	beq.s 196 __debug_puts1+0xa
     192:	c5c2           	muls.w d2,d2
     194:	60ee           	bra.s 184 ___pow_u2+0x12
     196:	241f           	move.l (sp)+,d2

00000198 _WINDOW:
     198:	261f           	move.l (sp)+,d3
     19a:	4e5d           	unlk a5
     19c:	4e75           	rts

0000019e ___pow_s1:
     19e:	4e55 0000      	link.w a5,#0
     1a2:	2f03           	move.l d3,-(sp)
     1a4:	2f02           	move.l d2,-(sp)
     1a6:	122d 000b      	move.b 11(a5),d1
     1aa:	142d 000f      	move.b 15(a5),d2
     1ae:	7001           	moveq #1,d0
     1b0:	1602           	move.b d2,d3
     1b2:	0203 0001      	andi.b #1,d3
     1b6:	6702           	beq.s 1ba _RESUME_NEXT
     1b8:	c1c1           	muls.w d1,d0

000001ba _RESUME_NEXT:
     1ba:	e202           	asr.b #1,d2

000001bc __aio_puttab:
     1bc:	6704           	beq.s 1c2 __aio_puttab+0x6
     1be:	c3c1           	muls.w d1,d1
     1c0:	60ee           	bra.s 1b0 ___pow_s1+0x12
     1c2:	241f           	move.l (sp)+,d2

000001c4 _TIMER_:
     1c4:	261f           	move.l (sp)+,d3
     1c6:	4e5d           	unlk a5
     1c8:	4e75           	rts

000001ca ___mul_s1:
     1ca:	4e55 0000      	link.w a5,#0
     1ce:	302d 000a      	move.w 10(a5),d0
     1d2:	c1ed 000e      	muls.w 14(a5),d0
     1d6:	4e5d           	unlk a5
     1d8:	4e75           	rts

000001da ___div_s1:
     1da:	4e55 0000      	link.w a5,#0
     1de:	102d 000b      	move.b 11(a5),d0
     1e2:	4880           	ext.w d0
     1e4:	122d 000f      	move.b 15(a5),d1

000001e8 ___DARRAY_T_LBOUND_:
     1e8:	4881           	ext.w d1
     1ea:	3041           	movea.w d1,a0
     1ec:	2f08           	move.l a0,-(sp)
     1ee:	3040           	movea.w d0,a0
     1f0:	2f08           	move.l a0,-(sp)
     1f2:	4eba fe9a      	jsr 8e ___divsi3(pc)
     1f6:	4e5d           	unlk a5
     1f8:	4e75           	rts

000001fa ___mod_s1:
     1fa:	4e55 0000      	link.w a5,#0
     1fe:	102d 000b      	move.b 11(a5),d0
     202:	4880           	ext.w d0
     204:	122d 000f      	move.b 15(a5),d1
     208:	4881           	ext.w d1
     20a:	3041           	movea.w d1,a0
     20c:	2f08           	move.l a0,-(sp)
     20e:	3040           	movea.w d0,a0
     210:	2f08           	move.l a0,-(sp)
     212:	4eba fe6e      	jsr 82 ___modsi3(pc)
     216:	4e5d           	unlk a5

00000218 _DATE_:
     218:	4e75           	rts

0000021a ___pow_u1:
     21a:	4e55 0000      	link.w a5,#0
     21e:	2f03           	move.l d3,-(sp)
     220:	2f02           	move.l d2,-(sp)
     222:	122d 000b      	move.b 11(a5),d1
     226:	142d 000f      	move.b 15(a5),d2

0000022a ___DARRAY_T_UBOUND_:
     22a:	7001           	moveq #1,d0
     22c:	1602           	move.b d2,d3
     22e:	0203 0001      	andi.b #1,d3
     232:	6702           	beq.s 236 ___DARRAY_T_UBOUND_+0xc
     234:	c1c1           	muls.w d1,d0
     236:	e20a           	lsr.b #1,d2
     238:	6704           	beq.s 23e ___DARRAY_T_UBOUND_+0x14
     23a:	c3c1           	muls.w d1,d1
     23c:	60ee           	bra.s 22c ___DARRAY_T_UBOUND_+0x2
     23e:	241f           	move.l (sp)+,d2
     240:	261f           	move.l (sp)+,d3
     242:	4e5d           	unlk a5
     244:	4e75           	rts

00000246 ___mul_u1:
     246:	4e55 0000      	link.w a5,#0

0000024a __astr_utoa_ext:
     24a:	302d 000a      	move.w 10(a5),d0
     24e:	c1ed 000e      	muls.w 14(a5),d0
     252:	4e5d           	unlk a5
     254:	4e75           	rts

00000256 ___div_u1:
     256:	4e55 0000      	link.w a5,#0
     25a:	4240           	clr.w d0
     25c:	102d 000b      	move.b 11(a5),d0
     260:	4241           	clr.w d1
     262:	122d 000f      	move.b 15(a5),d1
     266:	0280           	Address 0x0000000000000268 is out of bounds.
.short 0x0280
	...

0000026a __debug_puts2:
     26a:	ffff           	.short 0xffff

0000026c __aio_puts4:
     26c:	80c1           	divu.w d1,d0
     26e:	4e5d           	unlk a5
     270:	4e75           	rts

00000272 ___mod_u1:
     272:	4e55           	Address 0x0000000000000274 is out of bounds.
.short 0x4e55

00000274 ___DARRAY_T_COPY:
     274:	0000 4241      	ori.b #65,d0
     278:	122d 000b      	move.b 11(a5),d1
     27c:	4240           	clr.w d0
     27e:	102d 000f      	move.b 15(a5),d0
     282:	0281 0000 ffff 	andi.l #65535,d1
     288:	82c0           	divu.w d0,d1
     28a:	2001           	move.l d1,d0
     28c:	4840           	swap d0
     28e:	4e5d           	unlk a5
     290:	4e75           	rts

00000292 ___aqb_mod:
     292:	4e55 0000      	link.w a5,#0
     296:	48e7 3002      	movem.l d2-d3/a6,-(sp)
     29a:	262d 0008      	move.l 8(a5),d3
     29e:	242d 000c      	move.l 12(a5),d2
     2a2:	2c79 0000 0008 	movea.l 8 ___mulsi4+0x2,a6
			2a4: RELOC32	.bss
     2a8:	2039 0000 0004 	move.l 4 _start+0x4,d0
			2aa: RELOC32	.bss
     2ae:	2203           	move.l d3,d1
     2b0:	4eae ffd6      	jsr -42(a6)
     2b4:	4a80           	tst.l d0
     2b6:	6d50           	blt.s 308 ___DARRAY_T_CLEAR+0x20
     2b8:	2039 0000 0000 	move.l 0 _start,d0
			2ba: RELOC32	.bss

000002be ___DARRAY_T_ERASE:
     2be:	2203           	move.l d3,d1
     2c0:	4eae ffbe      	jsr -66(a6)
     2c4:	4eae ffe2      	jsr -30(a6)
     2c8:	2600           	move.l d0,d3
     2ca:	2039 0000 0004 	move.l 4 _start+0x4,d0
			2cc: RELOC32	.bss
     2d0:	2202           	move.l d2,d1
     2d2:	4eae ffd6      	jsr -42(a6)
     2d6:	4a80           	tst.l d0
     2d8:	6d56           	blt.s 330 __astr_utoa
     2da:	2039 0000 0000 	move.l 0 _start,d0
			2dc: RELOC32	.bss
     2e0:	2202           	move.l d2,d1
     2e2:	4eae ffbe      	jsr -66(a6)
     2e6:	4eae           	.short 0x4eae

000002e8 ___DARRAY_T_CLEAR:
     2e8:	ffe2           	.short 0xffe2
     2ea:	2f00           	move.l d0,-(sp)
     2ec:	2f03           	move.l d3,-(sp)
     2ee:	4eba fd92      	jsr 82 ___modsi3(pc)
     2f2:	2c79 0000 0008 	movea.l 8 ___mulsi4+0x2,a6
			2f4: RELOC32	.bss
     2f8:	508f           	addq.l #8,sp
     2fa:	4eae ffdc      	jsr -36(a6)
     2fe:	4ced 400c fff4 	movem.l -12(a5),d2-d3/a6
     304:	4e5d           	unlk a5
     306:	4e75           	rts
     308:	2003           	move.l d3,d0
     30a:	2239 0000 0000 	move.l 0 _start,d1
			30c: RELOC32	.bss
     310:	4eae ffb8      	jsr -72(a6)
     314:	2c79 0000 0008 	movea.l 8 ___mulsi4+0x2,a6
			316: RELOC32	.bss
     31a:	4eae ffe2      	jsr -30(a6)
     31e:	2600           	move.l d0,d3
     320:	2039           	.short 0x2039

00000322 __aio_puts2:
     322:	0000 0004      	ori.b #4,d0
			322: RELOC32	.bss
     326:	2202           	move.l d2,d1
     328:	4eae ffd6      	jsr -42(a6)
     32c:	4a80           	tst.l d0
     32e:	6caa           	bge.s 2da ___DARRAY_T_ERASE+0x1c

00000330 __astr_utoa:
     330:	2002           	move.l d2,d0
     332:	2239 0000 0000 	move.l 0 _start,d1
			334: RELOC32	.bss
     338:	4eae ffb8      	jsr -72(a6)
     33c:	4eae ffe2      	jsr -30(a6)

00000340 _ON_TIMER_CALL:
     340:	2f00           	move.l d0,-(sp)
     342:	2f03           	move.l d3,-(sp)

00000344 __debug_puts4:
     344:	4eba fd3c      	jsr 82 ___modsi3(pc)
     348:	2c79 0000 0008 	movea.l 8 ___mulsi4+0x2,a6
			34a: RELOC32	.bss
     34e:	4eae ffdc      	jsr -36(a6)
     352:	4ced 400c fff4 	movem.l -12(a5),d2-d3/a6
     358:	4e5d           	unlk a5
     35a:	4e75           	rts

0000035c _fix_:
     35c:	4e55 0000      	link.w a5,#0
     360:	2f0e           	move.l a6,-(sp)
     362:	202d           	.short 0x202d

00000364 _SLEEP_FOR:
     364:	0008           	.short 0x0008
     366:	2c79 0000 0008 	movea.l 8 ___mulsi4+0x2,a6
			368: RELOC32	.bss
     36c:	4eae ffe2      	jsr -30(a6)
     370:	2c5f           	movea.l (sp)+,a6
     372:	4e5d           	unlk a5
     374:	4e75           	rts

00000376 _int_:
     376:	4e55 0000      	link.w a5,#0
     37a:	2f0e           	move.l a6,-(sp)
     37c:	202d 0008      	move.l 8(a5),d0
     380:	2c79 0000 0008 	movea.l 8 ___mulsi4+0x2,a6
			382: RELOC32	.bss
     386:	4eae ffa6      	jsr -90(a6)
     38a:	4eae ffe2      	jsr -30(a6)
     38e:	2c5f           	movea.l (sp)+,a6
     390:	4e5d           	unlk a5
     392:	4e75           	rts

00000394 _cint_:
     394:	4e55 0000      	link.w a5,#0
     398:	2f0e           	move.l a6,-(sp)
     39a:	2f02           	move.l d2,-(sp)
     39c:	242d 0008      	move.l 8(a5),d2
     3a0:	2c79           	.short 0x2c79
	...
			3a2: RELOC32	.bss

000003a4 _SYSTEM:
     3a4:	0008           	.short 0x0008
     3a6:	2039 0000 0004 	move.l 4 _start+0x4,d0
			3a8: RELOC32	.bss
     3ac:	2202           	move.l d2,d1
     3ae:	4eae ffd6      	jsr -42(a6)
     3b2:	4a80           	tst.l d0
     3b4:	6d18           	blt.s 3ce _FRE_+0x18

000003b6 _FRE_:
     3b6:	2039 0000 0000 	move.l 0 _start,d0
			3b8: RELOC32	.bss
     3bc:	2202           	move.l d2,d1
     3be:	4eae ffbe      	jsr -66(a6)
     3c2:	4eae ffe2      	jsr -30(a6)
     3c6:	241f           	move.l (sp)+,d2
     3c8:	2c5f           	movea.l (sp)+,a6
     3ca:	4e5d           	unlk a5
     3cc:	4e75           	rts
     3ce:	2002           	move.l d2,d0
     3d0:	2239 0000 0000 	move.l 0 _start,d1
			3d2: RELOC32	.bss
     3d6:	4eae ffb8      	jsr -72(a6)

000003da __aio_puts1:
     3da:	2c79 0000 0008 	movea.l 8 ___mulsi4+0x2,a6
			3dc: RELOC32	.bss
     3e0:	4eae ffe2      	jsr -30(a6)
     3e4:	241f           	move.l (sp)+,d2
     3e6:	2c5f           	movea.l (sp)+,a6
     3e8:	4e5d           	unlk a5
     3ea:	4e75           	rts

000003ec _clng_:
     3ec:	4e55 0000      	link.w a5,#0

000003f0 _LEN_:
     3f0:	2f0e           	move.l a6,-(sp)
     3f2:	2f02           	move.l d2,-(sp)
     3f4:	242d 0008      	move.l 8(a5),d2
     3f8:	2c79 0000 0008 	movea.l 8 ___mulsi4+0x2,a6
			3fa: RELOC32	.bss
     3fe:	2039 0000 0004 	move.l 4 _start+0x4,d0
			400: RELOC32	.bss
     404:	2202           	move.l d2,d1
     406:	4eae           	.short 0x4eae

00000408 _CHR_:
     408:	ffd6           	.short 0xffd6
     40a:	4a80           	tst.l d0
     40c:	6d18           	blt.s 426 __debug_putu1+0xa

0000040e _WINDOW_CLOSE:
     40e:	2039 0000 0000 	move.l 0 _start,d0
			410: RELOC32	.bss
     414:	2202           	move.l d2,d1
     416:	4eae ffbe      	jsr -66(a6)
     41a:	4eae           	.short 0x4eae

0000041c __debug_putu1:
     41c:	ffe2           	.short 0xffe2
     41e:	241f           	move.l (sp)+,d2
     420:	2c5f           	movea.l (sp)+,a6
     422:	4e5d           	unlk a5
     424:	4e75           	rts
     426:	2002           	move.l d2,d0
     428:	2239           	.short 0x2239

0000042a _TIMER_ON:
     42a:	0000 0000      	ori.b #0,d0
			42a: RELOC32	.bss
     42e:	4eae ffb8      	jsr -72(a6)
     432:	2c79 0000 0008 	movea.l 8 ___mulsi4+0x2,a6
			434: RELOC32	.bss
     438:	4eae ffe2      	jsr -30(a6)
     43c:	241f           	move.l (sp)+,d2
     43e:	2c5f           	movea.l (sp)+,a6
     440:	4e5d           	unlk a5
     442:	4e75           	rts

00000444 ___aqb_intdiv_single:
     444:	4e55 0000      	link.w a5,#0
     448:	48e7 3002      	movem.l d2-d3/a6,-(sp)
     44c:	262d 0008      	move.l 8(a5),d3
     450:	242d 000c      	move.l 12(a5),d2
     454:	2c79 0000 0008 	movea.l 8 ___mulsi4+0x2,a6
			456: RELOC32	.bss

0000045a _ASC_:
     45a:	2039 0000 0004 	move.l 4 _start+0x4,d0
			45c: RELOC32	.bss
     460:	2203           	move.l d3,d1
     462:	4eae ffd6      	jsr -42(a6)
     466:	4a80           	tst.l d0
     468:	6d50           	blt.s 4ba _PEEK_+0x6
     46a:	2039 0000 0000 	move.l 0 _start,d0
			46c: RELOC32	.bss
     470:	2203           	move.l d3,d1
     472:	4eae ffbe      	jsr -66(a6)
     476:	4eae ffe2      	jsr -30(a6)
     47a:	2600           	move.l d0,d3
     47c:	2039 0000 0004 	move.l 4 _start+0x4,d0
			47e: RELOC32	.bss
     482:	2202           	move.l d2,d1

00000484 _POKE:
     484:	4eae ffd6      	jsr -42(a6)
     488:	4a80           	tst.l d0
     48a:	6d56           	blt.s 4e2 __autil_create_port+0x4
     48c:	2039 0000 0000 	move.l 0 _start,d0
			48e: RELOC32	.bss

00000492 _MID_:
     492:	2202           	move.l d2,d1

00000494 _POKEW:
     494:	4eae ffbe      	jsr -66(a6)
     498:	4eae ffe2      	jsr -30(a6)
     49c:	2f00           	move.l d0,-(sp)
     49e:	2f03           	move.l d3,-(sp)
     4a0:	4eba fbec      	jsr 8e ___divsi3(pc)

000004a4 _POKEL:
     4a4:	2c79 0000 0008 	movea.l 8 ___mulsi4+0x2,a6
			4a6: RELOC32	.bss
     4aa:	508f           	addq.l #8,sp
     4ac:	4eae ffdc      	jsr -36(a6)
     4b0:	4ced           	Address 0x00000000000004b2 is out of bounds.
.short 0x4ced

000004b2 __window_add_close_cb:
     4b2:	400c           	.short 0x400c

000004b4 _PEEK_:
     4b4:	fff4           	.short 0xfff4
     4b6:	4e5d           	unlk a5
     4b8:	4e75           	rts
     4ba:	2003           	move.l d3,d0
     4bc:	2239 0000 0000 	move.l 0 _start,d1
			4be: RELOC32	.bss

000004c2 _PEEKW_:
     4c2:	4eae ffb8      	jsr -72(a6)
     4c6:	2c79 0000 0008 	movea.l 8 ___mulsi4+0x2,a6
			4c8: RELOC32	.bss
     4cc:	4eae ffe2      	jsr -30(a6)

000004d0 _PEEKL_:
     4d0:	2600           	move.l d0,d3
     4d2:	2039 0000 0004 	move.l 4 _start+0x4,d0
			4d4: RELOC32	.bss
     4d8:	2202           	move.l d2,d1
     4da:	4eae ffd6      	jsr -42(a6)

000004de __autil_create_port:
     4de:	4a80           	tst.l d0
     4e0:	6caa           	bge.s 48c _POKE+0x8
     4e2:	2002           	move.l d2,d0
     4e4:	2239 0000 0000 	move.l 0 _start,d1
			4e6: RELOC32	.bss
     4ea:	4eae ffb8      	jsr -72(a6)
     4ee:	4eae ffe2      	jsr -30(a6)
     4f2:	2f00           	move.l d0,-(sp)
     4f4:	2f03           	move.l d3,-(sp)
     4f6:	4eba           	.short 0x4eba

000004f8 __debug_putu2:
     4f8:	fb96           	.short 0xfb96
     4fa:	2c79 0000 0008 	movea.l 8 ___mulsi4+0x2,a6
			4fc: RELOC32	.bss

00000500 __window_add_msg_cb:
     500:	4eae ffdc      	jsr -36(a6)
     504:	4ced 400c fff4 	movem.l -12(a5),d2-d3/a6
     50a:	4e5d           	unlk a5
     50c:	4e75           	rts

0000050e ___aqb_shl_single:
     50e:	4e55 0000      	link.w a5,#0
     512:	48e7 3002      	movem.l d2-d3/a6,-(sp)
     516:	262d 0008      	move.l 8(a5),d3
     51a:	242d 000c      	move.l 12(a5),d2
     51e:	2c79 0000 0008 	movea.l 8 ___mulsi4+0x2,a6
			520: RELOC32	.bss
     524:	2039 0000 0004 	move.l 4 _start+0x4,d0
			526: RELOC32	.bss
     52a:	2203           	move.l d3,d1
     52c:	4eae ffd6      	jsr -42(a6)
     530:	4a80           	tst.l d0
     532:	6d42           	blt.s 576 __autil_delete_port+0x4
     534:	2039 0000 0000 	move.l 0 _start,d0
			536: RELOC32	.bss
     53a:	2203           	move.l d3,d1
     53c:	4eae ffbe      	jsr -66(a6)
     540:	4eae ffe2      	jsr -30(a6)
     544:	2600           	move.l d0,d3
     546:	2039           	.short 0x2039
	...
			548: RELOC32	.bss

0000054a __aio_putu2:
     54a:	0004 2202      	ori.b #2,d4

0000054e _WINDOW_OUTPUT:
     54e:	4eae ffd6      	jsr -42(a6)
     552:	4a80           	tst.l d0
     554:	6d48           	blt.s 59e __autil_delete_port+0x2c
     556:	2039 0000 0000 	move.l 0 _start,d0
			558: RELOC32	.bss
     55c:	2202           	move.l d2,d1
     55e:	4eae ffbe      	jsr -66(a6)
     562:	4eae           	.short 0x4eae

00000564 _TIMER_OFF:
     564:	ffe2           	.short 0xffe2
     566:	e1ab           	lsl.l d0,d3
     568:	2003           	move.l d3,d0
     56a:	4eae ffdc      	jsr -36(a6)

0000056e _UCASE_:
     56e:	4cdf 400c      	movem.l (sp)+,d2-d3/a6

00000572 __autil_delete_port:
     572:	4e5d           	unlk a5
     574:	4e75           	rts
     576:	2003           	move.l d3,d0
     578:	2239 0000 0000 	move.l 0 _start,d1
			57a: RELOC32	.bss
     57e:	4eae ffb8      	jsr -72(a6)
     582:	2c79 0000 0008 	movea.l 8 ___mulsi4+0x2,a6
			584: RELOC32	.bss
     588:	4eae ffe2      	jsr -30(a6)
     58c:	2600           	move.l d0,d3
     58e:	2039 0000 0004 	move.l 4 _start+0x4,d0
			590: RELOC32	.bss
     594:	2202           	move.l d2,d1
     596:	4eae ffd6      	jsr -42(a6)
     59a:	4a80           	tst.l d0
     59c:	6cb8           	bge.s 556 _WINDOW_OUTPUT+0x8
     59e:	2002           	move.l d2,d0
     5a0:	2239 0000 0000 	move.l 0 _start,d1
			5a2: RELOC32	.bss
     5a6:	4eae ffb8      	jsr -72(a6)

000005aa __autil_create_ext_io:
     5aa:	4eae ffe2      	jsr -30(a6)
     5ae:	e1ab           	lsl.l d0,d3
     5b0:	2003           	move.l d3,d0
     5b2:	4eae ffdc      	jsr -36(a6)
     5b6:	4cdf 400c      	movem.l (sp)+,d2-d3/a6
     5ba:	4e5d           	unlk a5
     5bc:	4e75           	rts

000005be ___aqb_shr_single:
     5be:	4e55 0000      	link.w a5,#0
     5c2:	48e7 3002      	movem.l d2-d3/a6,-(sp)
     5c6:	262d 0008      	move.l 8(a5),d3
     5ca:	242d 000c      	move.l 12(a5),d2
     5ce:	2c79 0000 0008 	movea.l 8 ___mulsi4+0x2,a6
			5d0: RELOC32	.bss

000005d4 __debug_putu4:
     5d4:	2039 0000 0004 	move.l 4 _start+0x4,d0
			5d6: RELOC32	.bss
     5da:	2203           	move.l d3,d1
     5dc:	4eae ffd6      	jsr -42(a6)
     5e0:	4a80           	tst.l d0
     5e2:	6d42           	blt.s 626 _LCASE_+0xc
     5e4:	2039 0000 0000 	move.l 0 _start,d0
			5e6: RELOC32	.bss
     5ea:	2203           	move.l d3,d1
     5ec:	4eae ffbe      	jsr -66(a6)
     5f0:	4eae ffe2      	jsr -30(a6)

000005f4 __autil_create_std_io:
     5f4:	2600           	move.l d0,d3
     5f6:	2039           	.short 0x2039

000005f8 _WAVE_:
     5f8:	0000 0004      	ori.b #4,d0
			5f8: RELOC32	.bss

000005fc __awindow_shutdown:
     5fc:	2202           	move.l d2,d1
     5fe:	4eae ffd6      	jsr -42(a6)
     602:	4a80           	tst.l d0

00000604 __aio_putu1:
     604:	6d48           	blt.s 64e __autil_delete_ext_io+0x14
     606:	2039 0000 0000 	move.l 0 _start,d0
			608: RELOC32	.bss
     60c:	2202           	move.l d2,d1
     60e:	4eae ffbe      	jsr -66(a6)
     612:	4eae ffe2      	jsr -30(a6)
     616:	e0a3           	asr.l d0,d3
     618:	2003           	move.l d3,d0

0000061a _LCASE_:
     61a:	4eae ffdc      	jsr -36(a6)
     61e:	4cdf 400c      	movem.l (sp)+,d2-d3/a6
     622:	4e5d           	unlk a5
     624:	4e75           	rts
     626:	2003           	move.l d3,d0
     628:	2239 0000 0000 	move.l 0 _start,d1
			62a: RELOC32	.bss
     62e:	4eae ffb8      	jsr -72(a6)
     632:	2c79 0000 0008 	movea.l 8 ___mulsi4+0x2,a6
			634: RELOC32	.bss
     638:	4eae           	.short 0x4eae

0000063a __autil_delete_ext_io:
     63a:	ffe2           	.short 0xffe2
     63c:	2600           	move.l d0,d3
     63e:	2039 0000 0004 	move.l 4 _start+0x4,d0
			640: RELOC32	.bss
     644:	2202           	move.l d2,d1
     646:	4eae ffd6      	jsr -42(a6)
     64a:	4a80           	tst.l d0
     64c:	6cb8           	bge.s 606 __aio_putu1+0x2
     64e:	2002           	move.l d2,d0
     650:	2239 0000 0000 	move.l 0 _start,d1
			652: RELOC32	.bss
     656:	4eae ffb8      	jsr -72(a6)
     65a:	4eae ffe2      	jsr -30(a6)
     65e:	e0a3           	asr.l d0,d3
     660:	2003           	move.l d3,d0
     662:	4eae ffdc      	jsr -36(a6)
     666:	4cdf           	Address 0x0000000000000668 is out of bounds.
.short 0x4cdf

00000668 __autil_begin_io:
     668:	400c           	.short 0x400c
     66a:	4e5d           	unlk a5
     66c:	4e75           	rts

0000066e ___aqb_xor_single:
     66e:	4e55 0000      	link.w a5,#0
     672:	48e7 3002      	movem.l d2-d3/a6,-(sp)
     676:	262d 0008      	move.l 8(a5),d3
     67a:	242d 000c      	move.l 12(a5),d2
     67e:	2c79           	.short 0x2c79

00000680 __autil_init:
     680:	0000 0008      	ori.b #8,d0
			680: RELOC32	.bss
     684:	2039 0000 0004 	move.l 4 _start+0x4,d0
			686: RELOC32	.bss
     68a:	2203           	move.l d3,d1
     68c:	4eae ffd6      	jsr -42(a6)
     690:	4a80           	tst.l d0
     692:	6d40           	blt.s 6d4 _LEFT_+0xe
     694:	2039 0000 0000 	move.l 0 _start,d0
			696: RELOC32	.bss
     69a:	2203           	move.l d3,d1
     69c:	4eae ffbe      	jsr -66(a6)
     6a0:	4eae ffe2      	jsr -30(a6)

000006a4 __autil_shutdown:
     6a4:	2600           	move.l d0,d3
     6a6:	2039 0000 0004 	move.l 4 _start+0x4,d0
			6a8: RELOC32	.bss

000006ac __debug_putf:
     6ac:	2202           	move.l d2,d1
     6ae:	4eae ffd6      	jsr -42(a6)
     6b2:	4a80           	tst.l d0
     6b4:	6d46           	blt.s 6fc _WAVE_FREE+0x14
     6b6:	2039 0000 0000 	move.l 0 _start,d0
			6b8: RELOC32	.bss
     6bc:	2202           	move.l d2,d1

000006be __aio_puthex:
     6be:	4eae ffbe      	jsr -66(a6)
     6c2:	4eae ffe2      	jsr -30(a6)

000006c6 _LEFT_:
     6c6:	b780           	eor.l d3,d0
     6c8:	4eae ffdc      	jsr -36(a6)
     6cc:	4cdf 400c      	movem.l (sp)+,d2-d3/a6
     6d0:	4e5d           	unlk a5
     6d2:	4e75           	rts
     6d4:	2003           	move.l d3,d0
     6d6:	2239 0000 0000 	move.l 0 _start,d1
			6d8: RELOC32	.bss
     6dc:	4eae ffb8      	jsr -72(a6)
     6e0:	2c79 0000 0008 	movea.l 8 ___mulsi4+0x2,a6
			6e2: RELOC32	.bss
     6e6:	4eae           	.short 0x4eae

000006e8 _WAVE_FREE:
     6e8:	ffe2           	.short 0xffe2
     6ea:	2600           	move.l d0,d3
     6ec:	2039 0000 0004 	move.l 4 _start+0x4,d0
			6ee: RELOC32	.bss
     6f2:	2202           	move.l d2,d1
     6f4:	4eae ffd6      	jsr -42(a6)
     6f8:	4a80           	tst.l d0
     6fa:	6cba           	bge.s 6b6 __debug_putf+0xa
     6fc:	2002           	move.l d2,d0
     6fe:	2239 0000 0000 	move.l 0 _start,d1
			700: RELOC32	.bss
     704:	4eae ffb8      	jsr -72(a6)
     708:	4eae ffe2      	jsr -30(a6)
     70c:	b780           	eor.l d3,d0
     70e:	4eae ffdc      	jsr -36(a6)
     712:	4cdf 400c      	movem.l (sp)+,d2-d3/a6
     716:	4e5d           	unlk a5
     718:	4e75           	rts

0000071a ___aqb_eqv_single:
     71a:	4e55 0000      	link.w a5,#0
     71e:	48e7 3002      	movem.l d2-d3/a6,-(sp)
     722:	262d 0008      	move.l 8(a5),d3
     726:	242d 000c      	move.l 12(a5),d2
     72a:	2c79 0000 0008 	movea.l 8 ___mulsi4+0x2,a6
			72c: RELOC32	.bss
     730:	2039 0000 0004 	move.l 4 _start+0x4,d0
			732: RELOC32	.bss
     736:	2203           	move.l d3,d1
     738:	4eae ffd6      	jsr -42(a6)
     73c:	4a80           	tst.l d0
     73e:	6d42           	blt.s 782 _SOUND_WAIT+0x8
     740:	2039 0000 0000 	move.l 0 _start,d0
			742: RELOC32	.bss

00000746 _WAVE:
     746:	2203           	move.l d3,d1
     748:	4eae ffbe      	jsr -66(a6)
     74c:	4eae ffe2      	jsr -30(a6)
     750:	2600           	move.l d0,d3
     752:	2039 0000 0004 	move.l 4 _start+0x4,d0
			754: RELOC32	.bss
     758:	2202           	move.l d2,d1
     75a:	4eae ffd6      	jsr -42(a6)
     75e:	4a80           	tst.l d0

00000760 _RIGHT_:
     760:	6d48           	blt.s 7aa __debug_putbool+0x20
     762:	2039 0000 0000 	move.l 0 _start,d0
			764: RELOC32	.bss
     768:	2202           	move.l d2,d1
     76a:	4eae ffbe      	jsr -66(a6)
     76e:	4eae ffe2      	jsr -30(a6)
     772:	b780           	eor.l d3,d0

00000774 __aio_putbin:
     774:	4680           	not.l d0
     776:	4eae ffdc      	jsr -36(a6)

0000077a _SOUND_WAIT:
     77a:	4cdf 400c      	movem.l (sp)+,d2-d3/a6
     77e:	4e5d           	unlk a5
     780:	4e75           	rts
     782:	2003           	move.l d3,d0
     784:	2239 0000 0000 	move.l 0 _start,d1
			786: RELOC32	.bss

0000078a __debug_putbool:
     78a:	4eae ffb8      	jsr -72(a6)
     78e:	2c79 0000 0008 	movea.l 8 ___mulsi4+0x2,a6
			790: RELOC32	.bss
     794:	4eae ffe2      	jsr -30(a6)
     798:	2600           	move.l d0,d3
     79a:	2039 0000 0004 	move.l 4 _start+0x4,d0
			79c: RELOC32	.bss
     7a0:	2202           	move.l d2,d1
     7a2:	4eae ffd6      	jsr -42(a6)
     7a6:	4a80           	tst.l d0
     7a8:	6cb8           	bge.s 762 _RIGHT_+0x2
     7aa:	2002           	move.l d2,d0
     7ac:	2239 0000 0000 	move.l 0 _start,d1
			7ae: RELOC32	.bss
     7b2:	4eae ffb8      	jsr -72(a6)
     7b6:	4eae ffe2      	jsr -30(a6)
     7ba:	b780           	eor.l d3,d0
     7bc:	4680           	not.l d0
     7be:	4eae ffdc      	jsr -36(a6)
     7c2:	4cdf 400c      	movem.l (sp)+,d2-d3/a6
     7c6:	4e5d           	unlk a5
     7c8:	4e75           	rts

000007ca ___aqb_imp_single:
     7ca:	4e55 0000      	link.w a5,#0
     7ce:	48e7 3002      	movem.l d2-d3/a6,-(sp)
     7d2:	242d 0008      	move.l 8(a5),d2
     7d6:	262d 000c      	move.l 12(a5),d3
     7da:	2c79 0000 0008 	movea.l 8 ___mulsi4+0x2,a6
			7dc: RELOC32	.bss
     7e0:	2039 0000 0004 	move.l 4 _start+0x4,d0
			7e2: RELOC32	.bss
     7e6:	2202           	move.l d2,d1
     7e8:	4eae ffd6      	jsr -42(a6)
     7ec:	4a80           	tst.l d0
     7ee:	6d42           	blt.s 832 __aio_putuhex+0x8
     7f0:	2039 0000 0000 	move.l 0 _start,d0
			7f2: RELOC32	.bss
     7f6:	2202           	move.l d2,d1
     7f8:	4eae ffbe      	jsr -66(a6)
     7fc:	4eae ffe2      	jsr -30(a6)
     800:	2400           	move.l d0,d2
     802:	2039 0000 0004 	move.l 4 _start+0x4,d0
			804: RELOC32	.bss
     808:	2203           	move.l d3,d1
     80a:	4eae ffd6      	jsr -42(a6)
     80e:	4a80           	tst.l d0
     810:	6d48           	blt.s 85a __astr_strstr+0x8
     812:	2039 0000 0000 	move.l 0 _start,d0
			814: RELOC32	.bss
     818:	2203           	move.l d3,d1
     81a:	4eae ffbe      	jsr -66(a6)
     81e:	4eae ffe2      	jsr -30(a6)
     822:	4682           	not.l d2
     824:	8082           	or.l d2,d0
     826:	4eae           	.short 0x4eae

00000828 __aqb_get_output:
     828:	ffdc           	.short 0xffdc

0000082a __aio_putuhex:
     82a:	4cdf 400c      	movem.l (sp)+,d2-d3/a6
     82e:	4e5d           	unlk a5
     830:	4e75           	rts
     832:	2002           	move.l d2,d0
     834:	2239 0000 0000 	move.l 0 _start,d1
			836: RELOC32	.bss
     83a:	4eae ffb8      	jsr -72(a6)
     83e:	2c79 0000 0008 	movea.l 8 ___mulsi4+0x2,a6
			840: RELOC32	.bss
     844:	4eae ffe2      	jsr -30(a6)
     848:	2400           	move.l d0,d2
     84a:	2039 0000 0004 	move.l 4 _start+0x4,d0
			84c: RELOC32	.bss
     850:	2203           	move.l d3,d1

00000852 __astr_strstr:
     852:	4eae ffd6      	jsr -42(a6)
     856:	4a80           	tst.l d0
     858:	6cb8           	bge.s 812 ___aqb_imp_single+0x48
     85a:	2003           	move.l d3,d0
     85c:	2239 0000 0000 	move.l 0 _start,d1
			85e: RELOC32	.bss
     862:	4eae ffb8      	jsr -72(a6)

00000866 __debug_puttab:
     866:	4eae ffe2      	jsr -30(a6)
     86a:	4682           	not.l d2
     86c:	8082           	or.l d2,d0
     86e:	4eae ffdc      	jsr -36(a6)
     872:	4cdf 400c      	movem.l (sp)+,d2-d3/a6
     876:	4e5d           	unlk a5
     878:	4e75           	rts

0000087a ___aqb_not_single:
     87a:	4e55 0000      	link.w a5,#0
     87e:	2f0e           	move.l a6,-(sp)
     880:	2f02           	move.l d2,-(sp)
     882:	242d 0008      	move.l 8(a5),d2
     886:	2c79           	.short 0x2c79

00000888 _INSTR_:
     888:	0000 0008      	ori.b #8,d0
			888: RELOC32	.bss
     88c:	2039 0000 0004 	move.l 4 _start+0x4,d0
			88e: RELOC32	.bss
     892:	2202           	move.l d2,d1
     894:	4eae ffd6      	jsr -42(a6)
     898:	4a80           	tst.l d0
     89a:	6d1e           	blt.s 8ba _INSTR_+0x32
     89c:	2039 0000 0000 	move.l 0 _start,d0
			89e: RELOC32	.bss
     8a2:	2202           	move.l d2,d1
     8a4:	4eae ffbe      	jsr -66(a6)
     8a8:	4eae ffe2      	jsr -30(a6)
     8ac:	4680           	not.l d0
     8ae:	4eae ffdc      	jsr -36(a6)
     8b2:	241f           	move.l (sp)+,d2
     8b4:	2c5f           	movea.l (sp)+,a6
     8b6:	4e5d           	unlk a5
     8b8:	4e75           	rts
     8ba:	2002           	move.l d2,d0
     8bc:	2239 0000 0000 	move.l 0 _start,d1
			8be: RELOC32	.bss
     8c2:	4eae ffb8      	jsr -72(a6)
     8c6:	2c79 0000 0008 	movea.l 8 ___mulsi4+0x2,a6
			8c8: RELOC32	.bss
     8cc:	4eae ffe2      	jsr -30(a6)
     8d0:	4680           	not.l d0
     8d2:	4eae ffdc      	jsr -36(a6)
     8d6:	241f           	move.l (sp)+,d2
     8d8:	2c5f           	movea.l (sp)+,a6
     8da:	4e5d           	unlk a5
     8dc:	4e75           	rts

000008de ___aqb_and_single:
     8de:	4e55 0000      	link.w a5,#0
     8e2:	48e7 3002      	movem.l d2-d3/a6,-(sp)
     8e6:	262d 0008      	move.l 8(a5),d3
     8ea:	242d 000c      	move.l 12(a5),d2
     8ee:	2c79 0000 0008 	movea.l 8 ___mulsi4+0x2,a6
			8f0: RELOC32	.bss

000008f4 __aqb_get_win:
     8f4:	2039 0000 0004 	move.l 4 _start+0x4,d0
			8f6: RELOC32	.bss
     8fa:	2203           	move.l d3,d1
     8fc:	4eae ffd6      	jsr -42(a6)
     900:	4a80           	tst.l d0
     902:	6d40           	blt.s 944 __astr_dup+0x22
     904:	2039 0000 0000 	move.l 0 _start,d0
			906: RELOC32	.bss
     90a:	2203           	move.l d3,d1
     90c:	4eae ffbe      	jsr -66(a6)
     910:	4eae           	.short 0x4eae

00000912 __debug_putnl:
     912:	ffe2           	.short 0xffe2
     914:	2600           	move.l d0,d3
     916:	2039 0000 0004 	move.l 4 _start+0x4,d0
			918: RELOC32	.bss
     91c:	2202           	move.l d2,d1
     91e:	4eae ffd6      	jsr -42(a6)

00000922 __astr_dup:
     922:	4a80           	tst.l d0
     924:	6d46           	blt.s 96c ___astr_cmp+0x4
     926:	2039 0000 0000 	move.l 0 _start,d0
			928: RELOC32	.bss
     92c:	2202           	move.l d2,d1
     92e:	4eae ffbe      	jsr -66(a6)
     932:	4eae ffe2      	jsr -30(a6)
     936:	c083           	and.l d3,d0
     938:	4eae ffdc      	jsr -36(a6)
     93c:	4cdf 400c      	movem.l (sp)+,d2-d3/a6
     940:	4e5d           	unlk a5
     942:	4e75           	rts
     944:	2003           	move.l d3,d0
     946:	2239 0000 0000 	move.l 0 _start,d1
			948: RELOC32	.bss
     94c:	4eae ffb8      	jsr -72(a6)
     950:	2c79 0000 0008 	movea.l 8 ___mulsi4+0x2,a6
			952: RELOC32	.bss
     956:	4eae ffe2      	jsr -30(a6)
     95a:	2600           	move.l d0,d3
     95c:	2039 0000 0004 	move.l 4 _start+0x4,d0
			95e: RELOC32	.bss
     962:	2202           	move.l d2,d1
     964:	4eae ffd6      	jsr -42(a6)

00000968 ___astr_cmp:
     968:	4a80           	tst.l d0
     96a:	6cba           	bge.s 926 __astr_dup+0x4
     96c:	2002           	move.l d2,d0
     96e:	2239 0000 0000 	move.l 0 _start,d1
			970: RELOC32	.bss
     974:	4eae ffb8      	jsr -72(a6)
     978:	4eae ffe2      	jsr -30(a6)
     97c:	c083           	and.l d3,d0
     97e:	4eae ffdc      	jsr -36(a6)
     982:	4cdf 400c      	movem.l (sp)+,d2-d3/a6
     986:	4e5d           	unlk a5
     988:	4e75           	rts

0000098a ___aqb_or_single:
     98a:	4e55 0000      	link.w a5,#0
     98e:	48e7 3002      	movem.l d2-d3/a6,-(sp)
     992:	262d 0008      	move.l 8(a5),d3
     996:	242d 000c      	move.l 12(a5),d2
     99a:	2c79 0000 0008 	movea.l 8 ___mulsi4+0x2,a6
			99c: RELOC32	.bss

000009a0 ___astr_concat:
     9a0:	2039 0000 0004 	move.l 4 _start+0x4,d0
			9a2: RELOC32	.bss
     9a6:	2203           	move.l d3,d1
     9a8:	4eae ffd6      	jsr -42(a6)
     9ac:	4a80           	tst.l d0
     9ae:	6d40           	blt.s 9f0 _LINE+0x1c
     9b0:	2039 0000 0000 	move.l 0 _start,d0
			9b2: RELOC32	.bss
     9b6:	2203           	move.l d3,d1
     9b8:	4eae ffbe      	jsr -66(a6)
     9bc:	4eae           	.short 0x4eae

000009be __debug_cls:
     9be:	ffe2           	.short 0xffe2
     9c0:	2600           	move.l d0,d3
     9c2:	2039 0000 0004 	move.l 4 _start+0x4,d0
			9c4: RELOC32	.bss
     9c8:	2202           	move.l d2,d1
     9ca:	4eae ffd6      	jsr -42(a6)
     9ce:	4a80           	tst.l d0
     9d0:	6d46           	blt.s a18 __astr_ftoa_ext+0x14
     9d2:	2039           	.short 0x2039

000009d4 _LINE:
     9d4:	0000 0000      	ori.b #0,d0
			9d4: RELOC32	.bss
     9d8:	2202           	move.l d2,d1
     9da:	4eae ffbe      	jsr -66(a6)
     9de:	4eae ffe2      	jsr -30(a6)
     9e2:	8083           	or.l d3,d0
     9e4:	4eae ffdc      	jsr -36(a6)
     9e8:	4cdf 400c      	movem.l (sp)+,d2-d3/a6
     9ec:	4e5d           	unlk a5
     9ee:	4e75           	rts
     9f0:	2003           	move.l d3,d0
     9f2:	2239 0000 0000 	move.l 0 _start,d1
			9f4: RELOC32	.bss
     9f8:	4eae ffb8      	jsr -72(a6)
     9fc:	2c79 0000 0008 	movea.l 8 ___mulsi4+0x2,a6
			9fe: RELOC32	.bss
     a02:	4eae           	.short 0x4eae

00000a04 __astr_ftoa_ext:
     a04:	ffe2           	.short 0xffe2
     a06:	2600           	move.l d0,d3
     a08:	2039 0000 0004 	move.l 4 _start+0x4,d0
			a0a: RELOC32	.bss
     a0e:	2202           	move.l d2,d1
     a10:	4eae ffd6      	jsr -42(a6)
     a14:	4a80           	tst.l d0
     a16:	6cba           	bge.s 9d2 __debug_cls+0x14
     a18:	2002           	move.l d2,d0
     a1a:	2239 0000 0000 	move.l 0 _start,d1
			a1c: RELOC32	.bss
     a20:	4eae ffb8      	jsr -72(a6)
     a24:	4eae ffe2      	jsr -30(a6)
     a28:	8083           	or.l d3,d0
     a2a:	4eae           	.short 0x4eae

00000a2c __aio_putf:
     a2c:	ffdc           	.short 0xffdc
     a2e:	4cdf 400c      	movem.l (sp)+,d2-d3/a6
     a32:	4e5d           	unlk a5
     a34:	4e75           	rts

00000a36 ___floatsisf:
     a36:	4e55 0000      	link.w a5,#0
     a3a:	2f0e           	move.l a6,-(sp)
     a3c:	202d 0008      	move.l 8(a5),d0
     a40:	2c79 0000 0008 	movea.l 8 ___mulsi4+0x2,a6
			a42: RELOC32	.bss
     a46:	4eae ffdc      	jsr -36(a6)
     a4a:	2c5f           	movea.l (sp)+,a6
     a4c:	4e5d           	unlk a5
     a4e:	4e75           	rts

00000a50 ___gtsf2:
     a50:	4e55 0000      	link.w a5,#0
     a54:	2f0e           	move.l a6,-(sp)
     a56:	2c79 0000 0008 	movea.l 8 ___mulsi4+0x2,a6
			a58: RELOC32	.bss
     a5c:	202d 000c      	move.l 12(a5),d0
     a60:	222d 0008      	move.l 8(a5),d1
     a64:	4eae ffd6      	jsr -42(a6)
     a68:	2c5f           	movea.l (sp)+,a6

00000a6a __debug_break:
     a6a:	4e5d           	unlk a5
     a6c:	4e75           	rts

00000a6e ___mulsf3:
     a6e:	4e55 0000      	link.w a5,#0
     a72:	2f0e           	move.l a6,-(sp)

00000a74 _ON_EXIT_CALL:
     a74:	2c79 0000 0008 	movea.l 8 ___mulsi4+0x2,a6
			a76: RELOC32	.bss
     a7a:	202d 000c      	move.l 12(a5),d0
     a7e:	222d 0008      	move.l 8(a5),d1
     a82:	4eae ffb2      	jsr -78(a6)
     a86:	2c5f           	movea.l (sp)+,a6
     a88:	4e5d           	unlk a5
     a8a:	4e75           	rts

00000a8c ___divsf3:
     a8c:	4e55 0000      	link.w a5,#0
     a90:	2f0e           	move.l a6,-(sp)
     a92:	2c79 0000 0008 	movea.l 8 ___mulsi4+0x2,a6
			a94: RELOC32	.bss
     a98:	202d 0008      	move.l 8(a5),d0
     a9c:	222d 000c      	move.l 12(a5),d1

00000aa0 __ctrlc_break:
     aa0:	4eae ffac      	jsr -84(a6)
     aa4:	2c5f           	movea.l (sp)+,a6
     aa6:	4e5d           	unlk a5
     aa8:	4e75           	rts

00000aaa _ON_BREAK_CALL:
     aaa:	4e55 0000      	link.w a5,#0
     aae:	2f0e           	move.l a6,-(sp)
     ab0:	2c79 0000 0008 	movea.l 8 ___mulsi4+0x2,a6
			ab2: RELOC32	.bss
     ab6:	202d 0008      	move.l 8(a5),d0

00000aba ___handle_break:
     aba:	222d 000c      	move.l 12(a5),d1
     abe:	4eae ffbe      	jsr -66(a6)
     ac2:	2c5f           	movea.l (sp)+,a6
     ac4:	4e5d           	unlk a5
     ac6:	4e75           	rts

00000ac8 ___subsf3:
     ac8:	4e55 0000      	link.w a5,#0
     acc:	2f0e           	move.l a6,-(sp)
     ace:	2c79 0000 0008 	movea.l 8 ___mulsi4+0x2,a6
			ad0: RELOC32	.bss
     ad4:	202d 0008      	move.l 8(a5),d0
     ad8:	222d 000c      	move.l 12(a5),d1
     adc:	4eae ffb8      	jsr -72(a6)
     ae0:	2c5f           	movea.l (sp)+,a6
     ae2:	4e5d           	unlk a5
     ae4:	4e75           	rts

00000ae6 ___fixsfsi:
     ae6:	4e55           	Address 0x0000000000000ae8 is out of bounds.
.short 0x4e55

00000ae8 __aio_putbool:
     ae8:	0000 2f0e      	ori.b #14,d0
     aec:	202d 0008      	move.l 8(a5),d0
     af0:	2c79 0000 0008 	movea.l 8 ___mulsi4+0x2,a6
			af2: RELOC32	.bss
     af6:	4eae ffe2      	jsr -30(a6)
     afa:	2c5f           	movea.l (sp)+,a6
     afc:	4e5d           	unlk a5
     afe:	4e75           	rts

00000b00 ___ltsf2:
     b00:	4e55 0000      	link.w a5,#0
     b04:	2f0e           	move.l a6,-(sp)
     b06:	2c79 0000 0008 	movea.l 8 ___mulsi4+0x2,a6
			b08: RELOC32	.bss
     b0c:	202d 000c      	move.l 12(a5),d0
     b10:	222d 0008      	move.l 8(a5),d1
     b14:	4eae ffd6      	jsr -42(a6)
     b18:	2c5f           	movea.l (sp)+,a6
     b1a:	4e5d           	unlk a5
     b1c:	4e75           	rts

00000b1e _RND_:
     b1e:	4e55           	Address 0x0000000000000b20 is out of bounds.
.short 0x4e55

00000b20 _SOUND_STOP:
     b20:	0000 2f0e      	ori.b #14,d0
     b24:	2c79 0000 0008 	movea.l 8 ___mulsi4+0x2,a6
			b26: RELOC32	.bss
     b2a:	2039 0000 0004 	move.l 4 _start+0x4,d0
			b2c: RELOC32	.bss
     b30:	222d 0008      	move.l 8(a5),d1
     b34:	4eae ffd6      	jsr -42(a6)
     b38:	72ff           	moveq #-1,d1
     b3a:	b280           	cmp.l d0,d1
     b3c:	6700 00f8      	beq.w c36 __aio_writes4+0x98
     b40:	4a80           	tst.l d0
     b42:	660c           	bne.s b50 __c_atexit
     b44:	2039 0000 0010 	move.l 10 __aqb_read1,d0
			b46: RELOC32	.bss
     b4a:	2c5f           	movea.l (sp)+,a6
     b4c:	4e5d           	unlk a5
     b4e:	4e75           	rts

00000b50 __c_atexit:
     b50:	2239 0000 0000 	move.l 0 _start,d1
			b52: RELOC32	.data
     b56:	2001           	move.l d1,d0
     b58:	d281           	add.l d1,d1
     b5a:	4a80           	tst.l d0
     b5c:	6e06           	bgt.s b64 __c_atexit+0x14
     b5e:	0a81 1d87 2b41 	eori.l #495397697,d1
     b64:	2001           	move.l d1,d0
     b66:	d081           	add.l d1,d0
     b68:	4a81           	tst.l d1
     b6a:	6e06           	bgt.s b72 __c_atexit+0x22
     b6c:	0a80 1d87 2b41 	eori.l #495397697,d0
     b72:	2200           	move.l d0,d1
     b74:	d280           	add.l d0,d1
     b76:	4a80           	tst.l d0
     b78:	6f00 01e4      	ble.w d5e _CIRCLE+0x10
     b7c:	2001           	move.l d1,d0
     b7e:	d081           	add.l d1,d0
     b80:	4a81           	tst.l d1
     b82:	6f00 01c8      	ble.w d4c __aio_writes1+0x3c
     b86:	2200           	move.l d0,d1
     b88:	d280           	add.l d0,d1
     b8a:	4a80           	tst.l d0
     b8c:	6f00 01ac      	ble.w d3a __aio_writes1+0x2a
     b90:	2001           	move.l d1,d0
     b92:	d081           	add.l d1,d0
     b94:	4a81           	tst.l d1
     b96:	6f00 0190      	ble.w d28 __aio_writes1+0x18

00000b9a _PSET:
     b9a:	2200           	move.l d0,d1
     b9c:	d280           	add.l d0,d1

00000b9e __aio_writes4:
     b9e:	4a80           	tst.l d0
     ba0:	6f00 0174      	ble.w d16 __aio_writes1+0x6
     ba4:	2001           	move.l d1,d0
     ba6:	d081           	add.l d1,d0
     ba8:	4a81           	tst.l d1
     baa:	6f00 0158      	ble.w d04 __cshutdown+0x56
     bae:	2200           	move.l d0,d1
     bb0:	d280           	add.l d0,d1
     bb2:	4a80           	tst.l d0
     bb4:	6f00 013c      	ble.w cf2 __cshutdown+0x44
     bb8:	2001           	move.l d1,d0
     bba:	d081           	add.l d1,d0
     bbc:	4a81           	tst.l d1
     bbe:	6f00 0120      	ble.w ce0 __cshutdown+0x32
     bc2:	2200           	move.l d0,d1
     bc4:	d280           	add.l d0,d1
     bc6:	4a80           	tst.l d0
     bc8:	6f00 0104      	ble.w cce __cshutdown+0x20
     bcc:	2001           	move.l d1,d0
     bce:	d081           	add.l d1,d0
     bd0:	4a81           	tst.l d1
     bd2:	6f00 00e8      	ble.w cbc __cshutdown+0xe
     bd6:	2200           	move.l d0,d1
     bd8:	d280           	add.l d0,d1
     bda:	4a80           	tst.l d0
     bdc:	6f00 00cc      	ble.w caa _POINT_+0x14
     be0:	2001           	move.l d1,d0
     be2:	d081           	add.l d1,d0
     be4:	4a81           	tst.l d1
     be6:	6f00 00b0      	ble.w c98 _POINT_+0x2
     bea:	2200           	move.l d0,d1
     bec:	d280           	add.l d0,d1
     bee:	4a80           	tst.l d0
     bf0:	6f00 0094      	ble.w c86 _SOUND_start+0x16
     bf4:	2001           	move.l d1,d0
     bf6:	d081           	add.l d1,d0
     bf8:	4a81           	tst.l d1
     bfa:	6f4e           	ble.s c4a __aio_writes4+0xac
     bfc:	23c0 0000 0000 	move.l d0,0 _start
			bfe: RELOC32	.data
     c02:	0280 0000 ffff 	andi.l #65535,d0
     c08:	2200           	move.l d0,d1
     c0a:	4841           	swap d1
     c0c:	4241           	clr.w d1
     c0e:	9280           	sub.l d0,d1
     c10:	2001           	move.l d1,d0
     c12:	4240           	clr.w d0
     c14:	4840           	swap d0
     c16:	2c79 0000 0008 	movea.l 8 ___mulsi4+0x2,a6
			c18: RELOC32	.bss
     c1c:	4eae ffdc      	jsr -36(a6)
     c20:	2239 0000 0008 	move.l 8 ___mulsi4+0x2,d1
			c22: RELOC32	.bss
     c26:	4eae ffac      	jsr -84(a6)
     c2a:	23c0 0000 0010 	move.l d0,10 __aqb_read1
			c2c: RELOC32	.bss
     c30:	2c5f           	movea.l (sp)+,a6
     c32:	4e5d           	unlk a5
     c34:	4e75           	rts
     c36:	223c 48d2 af34 	move.l #1221766964,d1
     c3c:	2001           	move.l d1,d0
     c3e:	d280           	add.l d0,d1
     c40:	4a80           	tst.l d0
     c42:	6e00 ff38      	bgt.w b7c __c_atexit+0x2c
     c46:	6000 0116      	bra.w d5e _CIRCLE+0x10
     c4a:	0a80 1d87 2b41 	eori.l #495397697,d0
     c50:	23c0 0000 0000 	move.l d0,0 _start
			c52: RELOC32	.data

00000c56 __aio_writes2:
     c56:	0280 0000 ffff 	andi.l #65535,d0
     c5c:	2200           	move.l d0,d1
     c5e:	4841           	swap d1
     c60:	4241           	clr.w d1
     c62:	9280           	sub.l d0,d1
     c64:	2001           	move.l d1,d0
     c66:	4240           	clr.w d0
     c68:	4840           	swap d0
     c6a:	2c79 0000 0008 	movea.l 8 ___mulsi4+0x2,a6
			c6c: RELOC32	.bss

00000c70 _SOUND_start:
     c70:	4eae ffdc      	jsr -36(a6)
     c74:	2239 0000 0008 	move.l 8 ___mulsi4+0x2,d1
			c76: RELOC32	.bss
     c7a:	4eae ffac      	jsr -84(a6)
     c7e:	23c0 0000 0010 	move.l d0,10 __aqb_read1
			c80: RELOC32	.bss
     c84:	60aa           	bra.s c30 __aio_writes4+0x92
     c86:	0a81 1d87 2b41 	eori.l #495397697,d1
     c8c:	2001           	move.l d1,d0
     c8e:	d081           	add.l d1,d0
     c90:	4a81           	tst.l d1
     c92:	6e00 ff68      	bgt.w bfc __aio_writes4+0x5e

00000c96 _POINT_:
     c96:	60b2           	bra.s c4a __aio_writes4+0xac
     c98:	0a80 1d87 2b41 	eori.l #495397697,d0
     c9e:	2200           	move.l d0,d1
     ca0:	d280           	add.l d0,d1
     ca2:	4a80           	tst.l d0
     ca4:	6e00 ff4e      	bgt.w bf4 __aio_writes4+0x56
     ca8:	60dc           	bra.s c86 _SOUND_start+0x16
     caa:	0a81           	Address 0x0000000000000cac is out of bounds.
.short 0x0a81
     cac:	1d87           	.short 0x1d87

00000cae __cshutdown:
     cae:	2b41 2001      	move.l d1,8193(a5)
     cb2:	d081           	add.l d1,d0
     cb4:	4a81           	tst.l d1
     cb6:	6e00 ff32      	bgt.w bea __aio_writes4+0x4c
     cba:	60dc           	bra.s c98 _POINT_+0x2
     cbc:	0a80 1d87 2b41 	eori.l #495397697,d0
     cc2:	2200           	move.l d0,d1
     cc4:	d280           	add.l d0,d1
     cc6:	4a80           	tst.l d0
     cc8:	6e00 ff16      	bgt.w be0 __aio_writes4+0x42
     ccc:	60dc           	bra.s caa _POINT_+0x14
     cce:	0a81 1d87 2b41 	eori.l #495397697,d1
     cd4:	2001           	move.l d1,d0
     cd6:	d081           	add.l d1,d0
     cd8:	4a81           	tst.l d1
     cda:	6e00 fefa      	bgt.w bd6 __aio_writes4+0x38
     cde:	60dc           	bra.s cbc __cshutdown+0xe
     ce0:	0a80 1d87 2b41 	eori.l #495397697,d0
     ce6:	2200           	move.l d0,d1
     ce8:	d280           	add.l d0,d1
     cea:	4a80           	tst.l d0
     cec:	6e00 fede      	bgt.w bcc __aio_writes4+0x2e
     cf0:	60dc           	bra.s cce __cshutdown+0x20
     cf2:	0a81 1d87 2b41 	eori.l #495397697,d1
     cf8:	2001           	move.l d1,d0
     cfa:	d081           	add.l d1,d0
     cfc:	4a81           	tst.l d1
     cfe:	6e00 fec2      	bgt.w bc2 __aio_writes4+0x24
     d02:	60dc           	bra.s ce0 __cshutdown+0x32
     d04:	0a80 1d87 2b41 	eori.l #495397697,d0
     d0a:	2200           	move.l d0,d1
     d0c:	d280           	add.l d0,d1
     d0e:	4a80           	tst.l d0

00000d10 __aio_writes1:
     d10:	6e00 fea6      	bgt.w bb8 __aio_writes4+0x1a
     d14:	60dc           	bra.s cf2 __cshutdown+0x44
     d16:	0a81 1d87 2b41 	eori.l #495397697,d1
     d1c:	2001           	move.l d1,d0
     d1e:	d081           	add.l d1,d0
     d20:	4a81           	tst.l d1
     d22:	6e00 fe8a      	bgt.w bae __aio_writes4+0x10
     d26:	60dc           	bra.s d04 __cshutdown+0x56
     d28:	0a80 1d87 2b41 	eori.l #495397697,d0
     d2e:	2200           	move.l d0,d1
     d30:	d280           	add.l d0,d1
     d32:	4a80           	tst.l d0
     d34:	6e00 fe6e      	bgt.w ba4 __aio_writes4+0x6
     d38:	60dc           	bra.s d16 __aio_writes1+0x6
     d3a:	0a81 1d87 2b41 	eori.l #495397697,d1
     d40:	2001           	move.l d1,d0
     d42:	d081           	add.l d1,d0
     d44:	4a81           	tst.l d1
     d46:	6e00 fe52      	bgt.w b9a _PSET
     d4a:	60dc           	bra.s d28 __aio_writes1+0x18
     d4c:	0a80           	Address 0x0000000000000d4e is out of bounds.
.short 0x0a80

00000d4e _CIRCLE:
     d4e:	1d87 2b41      	move.b d7,([0,a6],0)
     d52:	2200           	move.l d0,d1
     d54:	d280           	add.l d0,d1
     d56:	4a80           	tst.l d0
     d58:	6e00 fe36      	bgt.w b90 __c_atexit+0x40
     d5c:	60dc           	bra.s d3a __aio_writes1+0x2a
     d5e:	0a81 1d87 2b41 	eori.l #495397697,d1
     d64:	2001           	move.l d1,d0
     d66:	d081           	add.l d1,d0
     d68:	4a81           	tst.l d1
     d6a:	6e00 fe1a      	bgt.w b86 __c_atexit+0x36
     d6e:	60dc           	bra.s d4c __aio_writes1+0x3c

00000d70 _RANDOMIZE:
     d70:	4e55 0000      	link.w a5,#0
     d74:	2f0e           	move.l a6,-(sp)
     d76:	2c79 0000 0008 	movea.l 8 ___mulsi4+0x2,a6
			d78: RELOC32	.bss
     d7c:	2039 0000 000c 	move.l c _SCREEN,d0
			d7e: RELOC32	.bss
     d82:	222d 0008      	move.l 8(a5),d1
     d86:	4eae ffb2      	jsr -78(a6)
     d8a:	4eae ffe2      	jsr -30(a6)
     d8e:	23c0           	.short 0x23c0

00000d90 ____breakHandler:
     d90:	0000 0000      	ori.b #0,d0
			d90: RELOC32	.data
     d94:	2c5f           	movea.l (sp)+,a6
     d96:	4e5d           	unlk a5
     d98:	4e75           	rts

00000d9a __amath_init:
     d9a:	2f0e           	move.l a6,-(sp)
     d9c:	2f02           	move.l d2,-(sp)
     d9e:	7002           	moveq #2,d0
     da0:	2c79 0000 0008 	movea.l 8 ___mulsi4+0x2,a6
			da2: RELOC32	.bss
     da6:	4eae ffdc      	jsr -36(a6)
     daa:	2400           	move.l d0,d2
     dac:	7001           	moveq #1,d0
     dae:	4eae ffdc      	jsr -36(a6)
     db2:	2202           	move.l d2,d1
     db4:	4eae ffac      	jsr -84(a6)
     db8:	23c0 0000 0000 	move.l d0,0 _start
			dba: RELOC32	.bss
     dbe:	7000           	moveq #0,d0

00000dc0 __asound_init:
     dc0:	4eae ffdc      	jsr -36(a6)
     dc4:	23c0 0000 0004 	move.l d0,4 _start+0x4
			dc6: RELOC32	.bss
     dca:	7064           	moveq #100,d0

00000dcc __aio_writeu4:
     dcc:	4eae ffdc      	jsr -36(a6)
     dd0:	23c0 0000 000c 	move.l d0,c _SCREEN
			dd2: RELOC32	.bss
     dd6:	7000           	moveq #0,d0
     dd8:	4640           	not.w d0
     dda:	4eae ffdc      	jsr -36(a6)
     dde:	23c0 0000 0008 	move.l d0,8 ___mulsi4+0x2
			de0: RELOC32	.bss
     de4:	2200           	move.l d0,d1
     de6:	2039 0000 0004 	move.l 4 _start+0x4,d0
			de8: RELOC32	.bss
     dec:	4eae ffd6      	jsr -42(a6)
     df0:	72ff           	moveq #-1,d1
     df2:	b280           	cmp.l d0,d1
     df4:	6700 0112      	beq.w f08 __asound_shutdown+0x48
     df8:	4a80           	tst.l d0
     dfa:	661c           	bne.s e18 __aio_writeu4+0x4c
     dfc:	2039 0000 0010 	move.l 10 __aqb_read1,d0
			dfe: RELOC32	.bss
     e02:	23c0 0000 0010 	move.l d0,10 __aqb_read1
			e04: RELOC32	.bss
     e08:	23fc 1234 abcd 	move.l #305441741,0 _start
     e0e:	0000 0000 
			e0e: RELOC32	.data
     e12:	241f           	move.l (sp)+,d2
     e14:	2c5f           	movea.l (sp)+,a6
     e16:	4e75           	rts
     e18:	2239 0000 0000 	move.l 0 _start,d1
			e1a: RELOC32	.data
     e1e:	2001           	move.l d1,d0
     e20:	d281           	add.l d1,d1
     e22:	4a80           	tst.l d0
     e24:	6e06           	bgt.s e2c __aio_writeu4+0x60
     e26:	0a81 1d87 2b41 	eori.l #495397697,d1
     e2c:	2001           	move.l d1,d0
     e2e:	d081           	add.l d1,d0
     e30:	4a81           	tst.l d1
     e32:	6e06           	bgt.s e3a __aio_writeu4+0x6e
     e34:	0a80 1d87 2b41 	eori.l #495397697,d0
     e3a:	2200           	move.l d0,d1
     e3c:	d280           	add.l d0,d1
     e3e:	4a80           	tst.l d0
     e40:	6f00 01e8      	ble.w 102a __aio_writef+0x2e
     e44:	2001           	move.l d1,d0
     e46:	d081           	add.l d1,d0
     e48:	4a81           	tst.l d1
     e4a:	6f00 01cc      	ble.w 1018 __aio_writef+0x1c
     e4e:	2200           	move.l d0,d1
     e50:	d280           	add.l d0,d1
     e52:	4a80           	tst.l d0
     e54:	6f00 01b0      	ble.w 1006 __aio_writef+0xa
     e58:	2001           	move.l d1,d0
     e5a:	d081           	add.l d1,d0
     e5c:	4a81           	tst.l d1
     e5e:	6f00 0194      	ble.w ff4 __cstartup+0x70
     e62:	2200           	move.l d0,d1
     e64:	d280           	add.l d0,d1
     e66:	4a80           	tst.l d0
     e68:	6f00 0178      	ble.w fe2 __cstartup+0x5e
     e6c:	2001           	move.l d1,d0
     e6e:	d081           	add.l d1,d0
     e70:	4a81           	tst.l d1
     e72:	6f00 015c      	ble.w fd0 __cstartup+0x4c
     e76:	2200           	move.l d0,d1
     e78:	d280           	add.l d0,d1
     e7a:	4a80           	tst.l d0
     e7c:	6f00 0140      	ble.w fbe __cstartup+0x3a
     e80:	2001           	move.l d1,d0
     e82:	d081           	add.l d1,d0

00000e84 __aio_writeu2:
     e84:	4a81           	tst.l d1
     e86:	6f00 0124      	ble.w fac __cstartup+0x28
     e8a:	2200           	move.l d0,d1
     e8c:	d280           	add.l d0,d1
     e8e:	4a80           	tst.l d0
     e90:	6f00 0108      	ble.w f9a __cstartup+0x16
     e94:	2001           	move.l d1,d0
     e96:	d081           	add.l d1,d0
     e98:	4a81           	tst.l d1
     e9a:	6f00 00ec      	ble.w f88 __cstartup+0x4
     e9e:	2200           	move.l d0,d1
     ea0:	d280           	add.l d0,d1
     ea2:	4a80           	tst.l d0
     ea4:	6f00 00d0      	ble.w f76 __aio_writeu1+0x36
     ea8:	2001           	move.l d1,d0
     eaa:	d081           	add.l d1,d0
     eac:	4a81           	tst.l d1
     eae:	6f00 00b4      	ble.w f64 __aio_writeu1+0x24
     eb2:	2200           	move.l d0,d1
     eb4:	d280           	add.l d0,d1
     eb6:	4a80           	tst.l d0
     eb8:	6f00 0098      	ble.w f52 __aio_writeu1+0x12
     ebc:	2001           	move.l d1,d0
     ebe:	d081           	add.l d1,d0

00000ec0 __asound_shutdown:
     ec0:	4a81           	tst.l d1
     ec2:	6f58           	ble.s f1c __asound_shutdown+0x5c
     ec4:	23c0 0000 0000 	move.l d0,0 _start
			ec6: RELOC32	.data
     eca:	0280 0000 ffff 	andi.l #65535,d0
     ed0:	2200           	move.l d0,d1
     ed2:	4841           	swap d1
     ed4:	4241           	clr.w d1
     ed6:	9280           	sub.l d0,d1
     ed8:	2001           	move.l d1,d0
     eda:	4240           	clr.w d0
     edc:	4840           	swap d0
     ede:	2c79 0000 0008 	movea.l 8 ___mulsi4+0x2,a6
			ee0: RELOC32	.bss
     ee4:	4eae ffdc      	jsr -36(a6)
     ee8:	2239 0000 0008 	move.l 8 ___mulsi4+0x2,d1
			eea: RELOC32	.bss
     eee:	4eae ffac      	jsr -84(a6)
     ef2:	23c0 0000 0010 	move.l d0,10 __aqb_read1
			ef4: RELOC32	.bss
     ef8:	23fc 1234 abcd 	move.l #305441741,0 _start
     efe:	0000 0000 
			efe: RELOC32	.data
     f02:	241f           	move.l (sp)+,d2
     f04:	2c5f           	movea.l (sp)+,a6
     f06:	4e75           	rts
     f08:	223c 48d2 af34 	move.l #1221766964,d1
     f0e:	2001           	move.l d1,d0
     f10:	d280           	add.l d0,d1
     f12:	4a80           	tst.l d0
     f14:	6e00 ff2e      	bgt.w e44 __aio_writeu4+0x78
     f18:	6000 0110      	bra.w 102a __aio_writef+0x2e
     f1c:	0a80 1d87 2b41 	eori.l #495397697,d0
     f22:	23c0 0000 0000 	move.l d0,0 _start
			f24: RELOC32	.data
     f28:	0280 0000 ffff 	andi.l #65535,d0
     f2e:	2200           	move.l d0,d1
     f30:	4841           	swap d1
     f32:	4241           	clr.w d1
     f34:	9280           	sub.l d0,d1
     f36:	2001           	move.l d1,d0
     f38:	4240           	clr.w d0
     f3a:	4840           	swap d0
     f3c:	2c79           	.short 0x2c79
	...
			f3e: RELOC32	.bss

00000f40 __aio_writeu1:
     f40:	0008           	.short 0x0008
     f42:	4eae ffdc      	jsr -36(a6)
     f46:	2239 0000 0008 	move.l 8 ___mulsi4+0x2,d1
			f48: RELOC32	.bss
     f4c:	4eae ffac      	jsr -84(a6)
     f50:	60a0           	bra.s ef2 __asound_shutdown+0x32
     f52:	0a81 1d87 2b41 	eori.l #495397697,d1
     f58:	2001           	move.l d1,d0
     f5a:	d081           	add.l d1,d0
     f5c:	4a81           	tst.l d1
     f5e:	6e00 ff64      	bgt.w ec4 __asound_shutdown+0x4
     f62:	60b8           	bra.s f1c __asound_shutdown+0x5c
     f64:	0a80 1d87 2b41 	eori.l #495397697,d0
     f6a:	2200           	move.l d0,d1
     f6c:	d280           	add.l d0,d1
     f6e:	4a80           	tst.l d0
     f70:	6e00 ff4a      	bgt.w ebc __aio_writeu2+0x38
     f74:	60dc           	bra.s f52 __aio_writeu1+0x12
     f76:	0a81 1d87 2b41 	eori.l #495397697,d1
     f7c:	2001           	move.l d1,d0
     f7e:	d081           	add.l d1,d0
     f80:	4a81           	tst.l d1
     f82:	6e00           	.short 0x6e00

00000f84 __cstartup:
     f84:	ff2e           	.short 0xff2e
     f86:	60dc           	bra.s f64 __aio_writeu1+0x24
     f88:	0a80 1d87 2b41 	eori.l #495397697,d0
     f8e:	2200           	move.l d0,d1
     f90:	d280           	add.l d0,d1
     f92:	4a80           	tst.l d0
     f94:	6e00 ff12      	bgt.w ea8 __aio_writeu2+0x24
     f98:	60dc           	bra.s f76 __aio_writeu1+0x36
     f9a:	0a81 1d87 2b41 	eori.l #495397697,d1
     fa0:	2001           	move.l d1,d0
     fa2:	d081           	add.l d1,d0
     fa4:	4a81           	tst.l d1
     fa6:	6e00 fef6      	bgt.w e9e __aio_writeu2+0x1a
     faa:	60dc           	bra.s f88 __cstartup+0x4
     fac:	0a80 1d87 2b41 	eori.l #495397697,d0
     fb2:	2200           	move.l d0,d1
     fb4:	d280           	add.l d0,d1
     fb6:	4a80           	tst.l d0
     fb8:	6e00 feda      	bgt.w e94 __aio_writeu2+0x10
     fbc:	60dc           	bra.s f9a __cstartup+0x16
     fbe:	0a81 1d87 2b41 	eori.l #495397697,d1
     fc4:	2001           	move.l d1,d0
     fc6:	d081           	add.l d1,d0
     fc8:	4a81           	tst.l d1
     fca:	6e00 febe      	bgt.w e8a __aio_writeu2+0x6
     fce:	60dc           	bra.s fac __cstartup+0x28
     fd0:	0a80 1d87 2b41 	eori.l #495397697,d0
     fd6:	2200           	move.l d0,d1
     fd8:	d280           	add.l d0,d1
     fda:	4a80           	tst.l d0
     fdc:	6e00 fea2      	bgt.w e80 __aio_writeu4+0xb4
     fe0:	60dc           	bra.s fbe __cstartup+0x3a
     fe2:	0a81 1d87 2b41 	eori.l #495397697,d1
     fe8:	2001           	move.l d1,d0
     fea:	d081           	add.l d1,d0
     fec:	4a81           	tst.l d1
     fee:	6e00 fe86      	bgt.w e76 __aio_writeu4+0xaa
     ff2:	60dc           	bra.s fd0 __cstartup+0x4c
     ff4:	0a80 1d87 2b41 	eori.l #495397697,d0
     ffa:	2200           	move.l d0,d1

00000ffc __aio_writef:
     ffc:	d280           	add.l d0,d1
     ffe:	4a80           	tst.l d0
    1000:	6e00 fe6a      	bgt.w e6c __aio_writeu4+0xa0
    1004:	60dc           	bra.s fe2 __cstartup+0x5e
    1006:	0a81 1d87 2b41 	eori.l #495397697,d1
    100c:	2001           	move.l d1,d0
    100e:	d081           	add.l d1,d0
    1010:	4a81           	tst.l d1
    1012:	6e00 fe4e      	bgt.w e62 __aio_writeu4+0x96
    1016:	60dc           	bra.s ff4 __cstartup+0x70
    1018:	0a80 1d87 2b41 	eori.l #495397697,d0
    101e:	2200           	move.l d0,d1
    1020:	d280           	add.l d0,d1
    1022:	4a80           	tst.l d0
    1024:	6e00 fe32      	bgt.w e58 __aio_writeu4+0x8c
    1028:	60dc           	bra.s 1006 __aio_writef+0xa
    102a:	0a81 1d87 2b41 	eori.l #495397697,d1
    1030:	2001           	move.l d1,d0
    1032:	d081           	add.l d1,d0
    1034:	4a81           	tst.l d1
    1036:	6e00 fe16      	bgt.w e4e __aio_writeu4+0x82
    103a:	60dc           	bra.s 1018 __aio_writef+0x1c

Disassembly of section .text:

00000000 _start:
   0:	4e55 0000      	link.w a5,#0
   4:	48e7           	Address 0x0000000000000006 is out of bounds.
.short 0x48e7

00000006 ___mulsi4:
   6:	3022           	move.w -(a2),d0
   8:	242d 0008      	move.l 8(a5),d2

0000000c _SCREEN:
   c:	2639           	.short 0x2639
	...
			e: RELOC32	.bss

00000010 __aqb_read1:
  10:	0008           	.short 0x0008
  12:	2c79 0000 0000 	movea.l 0 _start,a6
			14: RELOC32	.bss

00000018 ___DARRAY_T_REDIM:
  18:	700c           	moveq #12,d0
  1a:	7200           	moveq #0,d1

0000001c __atimer_shutdown:
  1c:	4eae ff3a      	jsr -198(a6)

00000020 __debug_putc:
  20:	2440           	movea.l d0,a2
  22:	23c0 0000 0008 	move.l d0,8 ___mulsi4+0x2
			24: RELOC32	.bss
  28:	6736           	beq.s 60 __aqb_read2+0x20

0000002a ___umodsi3:
  2a:	2002           	move.l d2,d0
  2c:	222d 000c      	move.l 12(a5),d1

00000030 ___umodsi4:
  30:	4eae ff3a      	jsr -198(a6)
  34:	2540           	.short 0x2540

00000036 __aqb_clear:
  36:	0008           	.short 0x0008
  38:	2279           	.short 0x2279
	...
			3a: RELOC32	.bss

0000003c ___udivsi4:
  3c:	0008           	Address 0x000000000000003e is out of bounds.
.short 0x0008

0000003e _foo:
  3e:	2469           	.short 0x2469

00000040 __aqb_read2:
  40:	0008           	.short 0x0008
  42:	200a           	move.l a2,d0
  44:	670e           	beq.s 54 __aqb_read2+0x14
  46:	2342 0004      	move.l d2,4(a1)
  4a:	2283           	move.l d3,(a1)
  4c:	4cdf 440c      	movem.l (sp)+,d2-d3/a2/a6
  50:	4e5d           	unlk a5
  52:	4e75           	rts
  54:	700c           	moveq #12,d0
  56:	2c79 0000 0000 	movea.l 0 _start,a6
			58: RELOC32	.bss
  5c:	4eae ff2e      	jsr -210(a6)
  60:	23c3 0000 0008 	move.l d3,8 ___mulsi4+0x2
			62: RELOC32	.bss
  66:	200a           	move.l a2,d0
  68:	4cdf 440c      	movem.l (sp)+,d2-d3/a2/a6
  6c:	4e5d           	unlk a5

0000006e __aqb_read4:
  6e:	4e75           	rts

00000070 _DEALLOCATE:
  70:	4e75           	rts

00000072 __MEMSET:
  72:	4e55 0000      	link.w a5,#0
  76:	202d           	.short 0x202d

00000078 __atimer_process_signals:
  78:	000c           	.short 0x000c
  7a:	222d 0010      	move.l 16(a5),d1
  7e:	6716           	beq.s 96 ___divsi4+0x2
  80:	2f01           	move.l d1,-(sp)

00000082 ___modsi3:
  82:	4880           	ext.w d0
  84:	3040           	movea.w d0,a0

00000086 __autil_exit:
  86:	2f08           	move.l a0,-(sp)

00000088 ___modsi4:
  88:	2f2d 0008      	move.l 8(a5),-(sp)
  8c:	4eb9           	.short 0x4eb9

0000008e ___divsi3:
  8e:	0000 264e      	ori.b #78,d0
			8e: RELOC32	.text
  92:	4fef           	.short 0x4fef

00000094 ___divsi4:
  94:	000c           	.short 0x000c
  96:	4e5d           	unlk a5
  98:	4e75           	rts

0000009a _TAGITEMS_:
  9a:	0a00           	Address 0x000000000000009c is out of bounds.
.short 0x0a00

0000009c __aqb_assert:
  9c:	4e55 0000      	link.w a5,#0

000000a0 __aio_set_dos_cursor_visible:
  a0:	2f0a           	move.l a2,-(sp)
  a2:	202d 000c      	move.l 12(a5),d0
  a6:	4a6d 000a      	tst.w 10(a5)
  aa:	6708           	beq.s b4 _TAGS_+0x6
  ac:	246d           	.short 0x246d

000000ae _TAGS_:
  ae:	fffc           	.short 0xfffc
  b0:	4e5d           	unlk a5
  b2:	4e75           	rts
  b4:	2f00           	move.l d0,-(sp)
  b6:	45f9           	.short 0x45f9
	...
			b8: RELOC32	.text

000000ba _SOUND:
  ba:	00cc           	.short 0x00cc
  bc:	4e92           	jsr (a2)
  be:	487a ffda      	pea 9a _TAGITEMS_(pc)

000000c2 ___pow_s4:
  c2:	4e92           	jsr (a2)
  c4:	0c79 0003 0000 	cmpi.w #3,18 ___DARRAY_T_REDIM
  ca:	0018 
			c8: RELOC32	.bss

000000cc __debug_puts:
  cc:	6712           	beq.s e0 __debug_puts+0x14
  ce:	7014           	moveq #20,d0
  d0:	2b40 0008      	move.l d0,8(a5)
  d4:	246d fffc      	movea.l -4(a5),a2
  d8:	4e5d           	unlk a5
  da:	4ef9 0000 0086 	jmp 86 __autil_exit
			dc: RELOC32	.text
  e0:	4e42           	trap #2
  e2:	246d fffc      	movea.l -4(a5),a2
  e6:	4e5d           	unlk a5
  e8:	4e75           	rts

000000ea _ON_ERROR_CALL:
  ea:	4e55 0000      	link.w a5,#0
  ee:	23ed 0008 0000 	move.l 8(a5),14 __aqb_read1+0x4
  f4:	0014 
			f2: RELOC32	.bss
  f6:	4e5d           	unlk a5
  f8:	4e75           	rts
  fa:	2a2a 2a20      	move.l 10784(a2),d5
  fe:	756e           	.short 0x756e
 100:	6861           	bvc.s 163 ___pow_s2+0x1d
 102:	6e64           	bgt.s 168 ___pow_s2+0x22

00000104 ___pow_u4:
 104:	6c65           	bge.s 16b ___pow_s2+0x25
 106:	6420           	bcc.s 128 _ERROR+0xa
 108:	7275           	moveq #117,d1

0000010a __aio_putnl:
 10a:	6e74           	bgt.s 180 ___pow_u2+0xe
 10c:	696d           	bvs.s 17b ___pow_u2+0x9
 10e:	6520           	bcs.s 130 _ERROR+0x12
 110:	6572           	bcs.s 184 ___pow_u2+0x12
 112:	726f           	moveq #111,d1
 114:	7220           	moveq #32,d1
 116:	636f           	bls.s 187 ___pow_u2+0x15
 118:	6465           	bcc.s 17f ___pow_u2+0xd
 11a:	3a20           	move.w -(a0),d5
	...

0000011e _ERROR:
 11e:	4e55 0000      	link.w a5,#0
 122:	2f0a           	move.l a2,-(sp)
 124:	2f02           	move.l d2,-(sp)
 126:	242d 0008      	move.l 8(a5),d2
 12a:	4279 0000 0004 	clr.w 4 _start+0x4
			12c: RELOC32	.bss
 130:	33c2 0000 0006 	move.w d2,6 ___mulsi4
			132: RELOC32	.bss
 136:	2079           	.short 0x2079

00000138 _SCREEN_CLOSE:
 138:	0000 0014      	ori.b #20,d0
			138: RELOC32	.bss
 13c:	2008           	move.l a0,d0

0000013e ___aqb_init:
 13e:	675c           	beq.s 19c _WINDOW+0x4
 140:	4e90           	jsr (a0)

00000142 __astr_itoa:
 142:	4a79           	.short 0x4a79
	...
			144: RELOC32	.bss

00000146 ___pow_s2:
 146:	0004 6620      	ori.b #32,d4
 14a:	0c79 0003 0000 	cmpi.w #3,18 ___DARRAY_T_REDIM
 150:	0018 
			14e: RELOC32	.bss
 152:	672e           	beq.s 182 ___pow_u2+0x10
 154:	3042           	movea.w d2,a0
 156:	2b48 0008      	move.l a0,8(a5)
 15a:	242d fff8      	move.l -8(a5),d2
 15e:	246d fffc      	movea.l -4(a5),a2
 162:	4e5d           	unlk a5
 164:	4ef9 0000 0086 	jmp 86 __autil_exit
			166: RELOC32	.text
 16a:	4279 0000 0006 	clr.w 6 ___mulsi4
			16c: RELOC32	.bss
 170:	4279           	.short 0x4279

00000172 ___pow_u2:
 172:	0000 0004      	ori.b #4,d0
			172: RELOC32	.bss
 176:	242d fff8      	move.l -8(a5),d2
 17a:	246d fffc      	movea.l -4(a5),a2
 17e:	4e5d           	unlk a5
 180:	4e75           	rts
 182:	3242           	movea.w d2,a1
 184:	2079 0000 0004 	movea.l 4 _start+0x4,a0
			186: RELOC32	.data
 18a:	2149           	.short 0x2149

0000018c __debug_puts1:
 18c:	0022 4e43      	ori.b #67,-(a2)
 190:	242d fff8      	move.l -8(a5),d2
 194:	246d fffc      	movea.l -4(a5),a2

00000198 _WINDOW:
 198:	4e5d           	unlk a5
 19a:	4e75           	rts
 19c:	487a           	.short 0x487a

0000019e ___pow_s1:
 19e:	ff5c           	.short 0xff5c
 1a0:	45f9 0000 00cc 	lea cc __debug_puts,a2
			1a2: RELOC32	.text
 1a6:	4e92           	jsr (a2)
 1a8:	3042           	movea.w d2,a0
 1aa:	2f08           	move.l a0,-(sp)
 1ac:	4eb9 0000 026a 	jsr 26a __debug_puts2
			1ae: RELOC32	.text
 1b2:	487a fee6      	pea 9a _TAGITEMS_(pc)
 1b6:	4e92           	jsr (a2)
 1b8:	6088           	bra.s 142 __astr_itoa

000001ba _RESUME_NEXT:
 1ba:	33fc           	.short 0x33fc

000001bc __aio_puttab:
 1bc:	0001 0000      	ori.b #0,d1
			1be: RELOC32	.bss
 1c0:	0004 4e75      	ori.b #117,d4

000001c4 _TIMER_:
 1c4:	4e55 fff4      	link.w a5,#-12
 1c8:	48e7           	Address 0x00000000000001ca is out of bounds.
.short 0x48e7

000001ca ___mul_s1:
 1ca:	3002           	move.w d2,d0
 1cc:	72f4           	moveq #-12,d1
 1ce:	d28d           	add.l a5,d1
 1d0:	2c79 0000 0004 	movea.l 4 _start+0x4,a6
			1d2: RELOC32	.bss
 1d6:	4eae ff40      	jsr -192(a6)

000001da ___div_s1:
 1da:	202d fff8      	move.l -8(a5),d0
 1de:	2c79 0000 0008 	movea.l 8 ___mulsi4+0x2,a6
			1e0: RELOC32	.bss
 1e4:	4eae ffdc      	jsr -36(a6)

000001e8 ___DARRAY_T_LBOUND_:
 1e8:	2200           	move.l d0,d1
 1ea:	2039 0000 0010 	move.l 10 __aqb_read1,d0
			1ec: RELOC32	.bss
 1f0:	4eae ffb2      	jsr -78(a6)
 1f4:	2400           	move.l d0,d2
 1f6:	202d fffc      	move.l -4(a5),d0

000001fa ___mod_s1:
 1fa:	2639 0000 000c 	move.l c _SCREEN,d3
			1fc: RELOC32	.bss
 200:	4eae ffdc      	jsr -36(a6)
 204:	2203           	move.l d3,d1
 206:	4eae ffac      	jsr -84(a6)
 20a:	2202           	move.l d2,d1
 20c:	4eae ffbe      	jsr -66(a6)
 210:	4cdf 400c      	movem.l (sp)+,d2-d3/a6
 214:	4e5d           	unlk a5
 216:	4e75           	rts

00000218 _DATE_:
 218:	4e55           	Address 0x000000000000021a is out of bounds.
.short 0x4e55

0000021a ___pow_u1:
 21a:	ffdc           	.short 0xffdc
 21c:	48e7 3032      	movem.l d2-d3/a2-a3/a6,-(sp)
 220:	72e6           	moveq #-26,d1
 222:	d28d           	add.l a5,d1
 224:	2c79 0000 0004 	movea.l 4 _start+0x4,a6
			226: RELOC32	.bss

0000022a ___DARRAY_T_UBOUND_:
 22a:	4eae ff40      	jsr -192(a6)
 22e:	222d ffe6      	move.l -26(a5),d1
 232:	2001           	move.l d1,d0
 234:	d281           	add.l d1,d1
 236:	d280           	add.l d0,d1
 238:	2001           	move.l d1,d0
 23a:	e988           	lsl.l #4,d0
 23c:	9081           	sub.l d1,d0
 23e:	2200           	move.l d0,d1
 240:	e989           	lsl.l #4,d1
 242:	9280           	sub.l d0,d1
 244:	2001           	move.l d1,d0

00000246 ___mul_u1:
 246:	ef88           	lsl.l #7,d0
 248:	242d           	.short 0x242d

0000024a __astr_utoa_ext:
 24a:	ffea           	.short 0xffea
 24c:	2202           	move.l d2,d1
 24e:	e98a           	lsl.l #4,d2
 250:	9481           	sub.l d1,d2
 252:	e58a           	lsl.l #2,d2
 254:	d480           	add.l d0,d2

00000256 ___div_u1:
 256:	45f9 0000 008e 	lea 8e ___divsi3,a2
			258: RELOC32	.text
 25c:	4878 0032      	pea 32 ___umodsi4+0x2
 260:	2f2d ffee      	move.l -18(a5),-(sp)
 264:	4e92           	jsr (a2)
 266:	508f           	addq.l #8,sp
 268:	2c79           	.short 0x2c79

0000026a __debug_puts2:
	...
			26a: RELOC32	.bss

0000026c __aio_puts4:
 26c:	0010 41ed      	ori.b #-19,(a0)
 270:	fff2           	.short 0xfff2

00000272 ___mod_u1:
 272:	d082           	add.l d2,d0

00000274 ___DARRAY_T_COPY:
 274:	4eae ff88      	jsr -120(a6)
 278:	2b7c 3030 2d30 	move.l #808463664,-36(a5)
 27e:	ffdc 
 280:	2b7c 302d 3030 	move.l #808267824,-32(a5)
 286:	ffe0 
 288:	362d fffa      	move.w -6(a5),d3
 28c:	303c cccd      	move.w #-13107,d0
 290:	3203           	move.w d3,d1

00000292 ___aqb_mod:
 292:	c2c0           	mulu.w d0,d1
 294:	4241           	clr.w d1
 296:	4841           	swap d1
 298:	3401           	move.w d1,d2
 29a:	e64a           	lsr.w #3,d2
 29c:	1202           	move.b d2,d1
 29e:	0601 0030      	addi.b #48,d1
 2a2:	1b41 ffdc      	move.b d1,-36(a5)
 2a6:	3202           	move.w d2,d1
 2a8:	d242           	add.w d2,d1
 2aa:	d241           	add.w d1,d1
 2ac:	d242           	add.w d2,d1
 2ae:	d241           	add.w d1,d1
 2b0:	9641           	sub.w d1,d3
 2b2:	0603 0030      	addi.b #48,d3
 2b6:	1b43 ffdd      	move.b d3,-35(a5)
 2ba:	342d fff8      	move.w -8(a5),d2

000002be ___DARRAY_T_ERASE:
 2be:	c0c2           	mulu.w d2,d0
 2c0:	4240           	clr.w d0
 2c2:	4840           	swap d0
 2c4:	e648           	lsr.w #3,d0
 2c6:	1200           	move.b d0,d1
 2c8:	0601 0030      	addi.b #48,d1
 2cc:	1b41 ffdf      	move.b d1,-33(a5)
 2d0:	3200           	move.w d0,d1
 2d2:	d240           	add.w d0,d1
 2d4:	d241           	add.w d1,d1
 2d6:	d041           	add.w d1,d0
 2d8:	d040           	add.w d0,d0
 2da:	9440           	sub.w d0,d2
 2dc:	0602 0030      	addi.b #48,d2
 2e0:	1b42 ffe0      	move.b d2,-32(a5)
 2e4:	7400           	moveq #0,d2
 2e6:	342d           	.short 0x342d

000002e8 ___DARRAY_T_CLEAR:
 2e8:	fffc           	.short 0xfffc
 2ea:	4878 03e8      	pea 3e8 __aio_puts1+0xe
 2ee:	2f02           	move.l d2,-(sp)
 2f0:	4e92           	jsr (a2)
 2f2:	0600 0030      	addi.b #48,d0
 2f6:	508f           	addq.l #8,sp
 2f8:	1b40 ffe2      	move.b d0,-30(a5)
 2fc:	47f9 0000 0082 	lea 82 ___modsi3,a3
			2fe: RELOC32	.text
 302:	4878 03e8      	pea 3e8 __aio_puts1+0xe
 306:	2f02           	move.l d2,-(sp)
 308:	4e93           	jsr (a3)
 30a:	508f           	addq.l #8,sp
 30c:	2400           	move.l d0,d2
 30e:	4878 0064      	pea 64 __aqb_read2+0x24
 312:	2f00           	move.l d0,-(sp)
 314:	4e92           	jsr (a2)
 316:	0600 0030      	addi.b #48,d0
 31a:	508f           	addq.l #8,sp
 31c:	1b40 ffe3      	move.b d0,-29(a5)
 320:	4878           	.short 0x4878

00000322 __aio_puts2:
 322:	0064 2f02      	ori.w #12034,-(a4)
 326:	4e93           	jsr (a3)
 328:	508f           	addq.l #8,sp
 32a:	2400           	move.l d0,d2
 32c:	4878 000a      	pea a ___mulsi4+0x4

00000330 __astr_utoa:
 330:	2f00           	move.l d0,-(sp)
 332:	4e92           	jsr (a2)
 334:	0600 0030      	addi.b #48,d0
 338:	508f           	addq.l #8,sp
 33a:	1b40 ffe4      	move.b d0,-28(a5)
 33e:	4878           	.short 0x4878

00000340 _ON_TIMER_CALL:
 340:	000a           	.short 0x000a
 342:	2f02           	move.l d2,-(sp)

00000344 __debug_puts4:
 344:	4e93           	jsr (a3)
 346:	0600 0030      	addi.b #48,d0
 34a:	508f           	addq.l #8,sp
 34c:	1b40 ffe5      	move.b d0,-27(a5)
 350:	486d ffdc      	pea -36(a5)
 354:	4eb9 0000 0922 	jsr 922 __astr_dup
			356: RELOC32	.text
 35a:	4ced           	Address 0x000000000000035c is out of bounds.
.short 0x4ced

0000035c _fix_:
 35c:	4c0c           	.short 0x4c0c
 35e:	ffc8           	.short 0xffc8
 360:	4e5d           	unlk a5
 362:	4e75           	rts

00000364 _SLEEP_FOR:
 364:	4e55 0000      	link.w a5,#0
 368:	2f0e           	move.l a6,-(sp)
 36a:	2279 0000 0000 	movea.l 0 _start,a1
			36c: RELOC32	.bss
 370:	222d 0008      	move.l 8(a5),d1
 374:	2009           	move.l a1,d0

00000376 _int_:
 376:	6706           	beq.s 37e _int_+0x8
 378:	2c5f           	movea.l (sp)+,a6
 37a:	4e5d           	unlk a5
 37c:	4ed1           	jmp (a1)
 37e:	2039 0000 000c 	move.l c _SCREEN,d0
			380: RELOC32	.bss
 384:	2c79 0000 0008 	movea.l 8 ___mulsi4+0x2,a6
			386: RELOC32	.bss
 38a:	4eae ffb2      	jsr -78(a6)
 38e:	4eae ffe2      	jsr -30(a6)
 392:	2200           	move.l d0,d1

00000394 _cint_:
 394:	2c79 0000 0004 	movea.l 4 _start+0x4,a6
			396: RELOC32	.bss
 39a:	4eae ff3a      	jsr -198(a6)
 39e:	2c5f           	movea.l (sp)+,a6
 3a0:	4e5d           	unlk a5
 3a2:	4e75           	rts

000003a4 _SYSTEM:
 3a4:	4e55 0000      	link.w a5,#0
 3a8:	42a7           	clr.l -(sp)
 3aa:	4eb9 0000 0086 	jsr 86 __autil_exit
			3ac: RELOC32	.text
 3b0:	588f           	addq.l #4,sp
 3b2:	4e5d           	unlk a5
 3b4:	4e75           	rts

000003b6 _FRE_:
 3b6:	4e55 0000      	link.w a5,#0
 3ba:	2f0e           	move.l a6,-(sp)
 3bc:	2f02           	move.l d2,-(sp)
 3be:	322d 000a      	move.w 10(a5),d1
 3c2:	5441           	addq.w #2,d1
 3c4:	7000           	moveq #0,d0
 3c6:	0c41 0005      	cmpi.w #5,d1
 3ca:	6242           	bhi.s 40e _WINDOW_CLOSE
 3cc:	3001           	move.w d1,d0
 3ce:	d080           	add.l d0,d0
 3d0:	303b 080c      	move.w (3de __aio_puts1+0x4,pc,d0.l),d0
 3d4:	2c79 0000 0000 	movea.l 0 _start,a6
			3d6: RELOC32	.bss

000003da __aio_puts1:
 3da:	4efb 0002      	jmp (3de __aio_puts1+0x4,pc,d0.w)
 3de:	000c           	.short 0x000c
 3e0:	005c 007a      	ori.w #122,(a4)+
 3e4:	0088           	.short 0x0088
 3e6:	0038 004a 93c9 	ori.b #74,ffff93c9 __awindow_init+0xffff5513

000003ec _clng_:
 3ec:	4eae feda      	jsr -294(a6)

000003f0 _LEN_:
 3f0:	2040           	movea.l d0,a0
 3f2:	0c28 000d 0008 	cmpi.b #13,8(a0)
 3f8:	667a           	bne.s 474 _ASC_+0x1a
 3fa:	4aa8 00ac      	tst.l 172(a0)
 3fe:	6774           	beq.s 474 _ASC_+0x1a
 400:	4ab9 0000 001a 	tst.l 1a ___DARRAY_T_REDIM+0x2
			402: RELOC32	.bss
 406:	666c           	bne.s 474 _ASC_+0x1a

00000408 _CHR_:
 408:	2068 00b0      	movea.l 176(a0),a0
 40c:	2010           	move.l (a0),d0

0000040e _WINDOW_CLOSE:
 40e:	241f           	move.l (sp)+,d2
 410:	2c5f           	movea.l (sp)+,a6
 412:	4e5d           	unlk a5
 414:	4e75           	rts
 416:	223c 0002 0002 	move.l #131074,d1

0000041c __debug_putu1:
 41c:	4eae ff28      	jsr -216(a6)
 420:	241f           	move.l (sp)+,d2
 422:	2c5f           	movea.l (sp)+,a6
 424:	4e5d           	unlk a5
 426:	4e75           	rts
 428:	223c           	.short 0x223c

0000042a _TIMER_ON:
 42a:	0002 0004      	ori.b #4,d2
 42e:	4eae ff28      	jsr -216(a6)
 432:	241f           	move.l (sp)+,d2
 434:	2c5f           	movea.l (sp)+,a6
 436:	4e5d           	unlk a5
 438:	4e75           	rts
 43a:	7202           	moveq #2,d1
 43c:	4eae ff28      	jsr -216(a6)
 440:	2400           	move.l d0,d2
 442:	7204           	moveq #4,d1

00000444 ___aqb_intdiv_single:
 444:	2c79 0000 0000 	movea.l 0 _start,a6
			446: RELOC32	.bss
 44a:	4eae ff28      	jsr -216(a6)
 44e:	d082           	add.l d2,d0
 450:	241f           	move.l (sp)+,d2
 452:	2c5f           	movea.l (sp)+,a6
 454:	4e5d           	unlk a5
 456:	4e75           	rts
 458:	7202           	moveq #2,d1

0000045a _ASC_:
 45a:	4eae ff28      	jsr -216(a6)
 45e:	241f           	move.l (sp)+,d2
 460:	2c5f           	movea.l (sp)+,a6
 462:	4e5d           	unlk a5
 464:	4e75           	rts
 466:	7204           	moveq #4,d1
 468:	4eae ff28      	jsr -216(a6)
 46c:	241f           	move.l (sp)+,d2
 46e:	2c5f           	movea.l (sp)+,a6
 470:	4e5d           	unlk a5
 472:	4e75           	rts
 474:	2028 003e      	move.l 62(a0),d0
 478:	90a8 003a      	sub.l 58(a0),d0
 47c:	241f           	move.l (sp)+,d2
 47e:	2c5f           	movea.l (sp)+,a6
 480:	4e5d           	unlk a5
 482:	4e75           	rts

00000484 _POKE:
 484:	4e55 0000      	link.w a5,#0
 488:	206d 0008      	movea.l 8(a5),a0
 48c:	10ad 000f      	move.b 15(a5),(a0)
 490:	4e5d           	unlk a5

00000492 _MID_:
 492:	4e75           	rts

00000494 _POKEW:
 494:	4e55 0000      	link.w a5,#0
 498:	206d 0008      	movea.l 8(a5),a0
 49c:	30ad 000e      	move.w 14(a5),(a0)
 4a0:	4e5d           	unlk a5
 4a2:	4e75           	rts

000004a4 _POKEL:
 4a4:	4e55 0000      	link.w a5,#0
 4a8:	206d 0008      	movea.l 8(a5),a0
 4ac:	20ad 000c      	move.l 12(a5),(a0)
 4b0:	4e5d           	unlk a5

000004b2 __window_add_close_cb:
 4b2:	4e75           	rts

000004b4 _PEEK_:
 4b4:	4e55 0000      	link.w a5,#0
 4b8:	206d 0008      	movea.l 8(a5),a0
 4bc:	1010           	move.b (a0),d0
 4be:	4e5d           	unlk a5
 4c0:	4e75           	rts

000004c2 _PEEKW_:
 4c2:	4e55 0000      	link.w a5,#0
 4c6:	206d 0008      	movea.l 8(a5),a0
 4ca:	3010           	move.w (a0),d0
 4cc:	4e5d           	unlk a5
 4ce:	4e75           	rts

000004d0 _PEEKL_:
 4d0:	4e55 0000      	link.w a5,#0
 4d4:	206d 0008      	movea.l 8(a5),a0
 4d8:	2010           	move.l (a0),d0
 4da:	4e5d           	unlk a5
 4dc:	4e75           	rts

000004de __autil_create_port:
 4de:	4e55 0000      	link.w a5,#0
 4e2:	48e7 3022      	movem.l d2-d3/a2/a6,-(sp)
 4e6:	307c 0004      	movea.w #4,a0
 4ea:	2608           	move.l a0,d3
 4ec:	50c0           	st d0
 4ee:	2c50           	movea.l (a0),a6
 4f0:	4eae feb6      	jsr -330(a6)
 4f4:	1400           	move.b d0,d2
 4f6:	6d70           	blt.s 568 _TIMER_OFF+0x4

000004f8 __debug_putu2:
 4f8:	7022           	moveq #34,d0
 4fa:	223c 0001 0001 	move.l #65537,d1

00000500 __window_add_msg_cb:
 500:	4eae ff3a      	jsr -198(a6)
 504:	2440           	movea.l d0,a2
 506:	4a80           	tst.l d0
 508:	6744           	beq.s 54e _WINDOW_OUTPUT
 50a:	1543 0008      	move.b d3,8(a2)

0000050e ___aqb_shl_single:
 50e:	156d 000f 0009 	move.b 15(a5),9(a2)
 514:	256d 0008 000a 	move.l 8(a5),10(a2)
 51a:	1542 000f      	move.b d2,15(a2)
 51e:	93c9           	suba.l a1,a1
 520:	4eae feda      	jsr -294(a6)
 524:	2540 0010      	move.l d0,16(a2)
 528:	41ea 0018      	lea 24(a2),a0
 52c:	2548 0014      	move.l a0,20(a2)
 530:	41ea 0014      	lea 20(a2),a0
 534:	2548 001c      	move.l a0,28(a2)
 538:	4aaa 000a      	tst.l 10(a2)
 53c:	6720           	beq.s 55e _WINDOW_OUTPUT+0x10
 53e:	224a           	movea.l a2,a1
 540:	4eae fe9e      	jsr -354(a6)
 544:	200a           	move.l a2,d0
 546:	4cdf 440c      	movem.l (sp)+,d2-d3/a2/a6

0000054a __aio_putu2:
 54a:	4e5d           	unlk a5
 54c:	4e75           	rts

0000054e _WINDOW_OUTPUT:
 54e:	1002           	move.b d2,d0
 550:	4eae feb0      	jsr -336(a6)
 554:	200a           	move.l a2,d0
 556:	4cdf 440c      	movem.l (sp)+,d2-d3/a2/a6
 55a:	4e5d           	unlk a5
 55c:	4e75           	rts
 55e:	200a           	move.l a2,d0
 560:	4cdf 440c      	movem.l (sp)+,d2-d3/a2/a6

00000564 _TIMER_OFF:
 564:	4e5d           	unlk a5
 566:	4e75           	rts
 568:	7000           	moveq #0,d0
 56a:	4cdf 440c      	movem.l (sp)+,d2-d3/a2/a6

0000056e _UCASE_:
 56e:	4e5d           	unlk a5
 570:	4e75           	rts

00000572 __autil_delete_port:
 572:	4e55 0000      	link.w a5,#0
 576:	48e7 2022      	movem.l d2/a2/a6,-(sp)
 57a:	246d 0008      	movea.l 8(a5),a2
 57e:	2438 0004      	move.l 4 _start+0x4,d2
 582:	4aaa 000a      	tst.l 10(a2)
 586:	6708           	beq.s 590 __autil_delete_port+0x1e
 588:	224a           	movea.l a2,a1
 58a:	2c42           	movea.l d2,a6
 58c:	4eae fe98      	jsr -360(a6)
 590:	102a 000f      	move.b 15(a2),d0
 594:	2c42           	movea.l d2,a6
 596:	4eae feb0      	jsr -336(a6)
 59a:	7022           	moveq #34,d0
 59c:	224a           	movea.l a2,a1
 59e:	4eae ff2e      	jsr -210(a6)
 5a2:	4cdf 4404      	movem.l (sp)+,d2/a2/a6
 5a6:	4e5d           	unlk a5
 5a8:	4e75           	rts

000005aa __autil_create_ext_io:
 5aa:	4e55 0000      	link.w a5,#0
 5ae:	48e7 3002      	movem.l d2-d3/a6,-(sp)
 5b2:	242d 0008      	move.l 8(a5),d2
 5b6:	262d 000c      	move.l 12(a5),d3
 5ba:	2c78 0004      	movea.l 4 _start+0x4,a6

000005be ___aqb_shr_single:
 5be:	4a82           	tst.l d2
 5c0:	6728           	beq.s 5ea __debug_putu4+0x16
 5c2:	2003           	move.l d3,d0
 5c4:	223c 0001 0001 	move.l #65537,d1
 5ca:	4eae ff3a      	jsr -198(a6)
 5ce:	4a80           	tst.l d0
 5d0:	6710           	beq.s 5e2 __debug_putu4+0xe
 5d2:	2040           	movea.l d0,a0

000005d4 __debug_putu4:
 5d4:	117c 0007 0008 	move.b #7,8(a0)
 5da:	2142 000e      	move.l d2,14(a0)
 5de:	3143 0012      	move.w d3,18(a0)
 5e2:	4cdf 400c      	movem.l (sp)+,d2-d3/a6
 5e6:	4e5d           	unlk a5
 5e8:	4e75           	rts
 5ea:	2002           	move.l d2,d0
 5ec:	4cdf 400c      	movem.l (sp)+,d2-d3/a6
 5f0:	4e5d           	unlk a5
 5f2:	4e75           	rts

000005f4 __autil_create_std_io:
 5f4:	4e55 0000      	link.w a5,#0

000005f8 _WAVE_:
 5f8:	2f0e           	move.l a6,-(sp)
 5fa:	2f02           	move.l d2,-(sp)

000005fc __awindow_shutdown:
 5fc:	242d 0008      	move.l 8(a5),d2
 600:	2c78 0004      	movea.l 4 _start+0x4,a6

00000604 __aio_putu1:
 604:	672a           	beq.s 630 _LCASE_+0x16
 606:	7030           	moveq #48,d0
 608:	223c 0001 0001 	move.l #65537,d1
 60e:	4eae ff3a      	jsr -198(a6)
 612:	4a80           	tst.l d0
 614:	6712           	beq.s 628 _LCASE_+0xe
 616:	2040           	movea.l d0,a0
 618:	117c           	.short 0x117c

0000061a _LCASE_:
 61a:	0007 0008      	ori.b #8,d7
 61e:	2142 000e      	move.l d2,14(a0)
 622:	317c 0030 0012 	move.w #48,18(a0)
 628:	241f           	move.l (sp)+,d2
 62a:	2c5f           	movea.l (sp)+,a6
 62c:	4e5d           	unlk a5
 62e:	4e75           	rts
 630:	2002           	move.l d2,d0
 632:	241f           	move.l (sp)+,d2
 634:	2c5f           	movea.l (sp)+,a6
 636:	4e5d           	unlk a5
 638:	4e75           	rts

0000063a __autil_delete_ext_io:
 63a:	4e55 0000      	link.w a5,#0
 63e:	2f0e           	move.l a6,-(sp)
 640:	206d 0008      	movea.l 8(a5),a0
 644:	2c78 0004      	movea.l 4 _start+0x4,a6
 648:	50e8 0008      	st 8(a0)
 64c:	70ff           	moveq #-1,d0
 64e:	2140 0014      	move.l d0,20(a0)
 652:	2140 0018      	move.l d0,24(a0)
 656:	2248           	movea.l a0,a1
 658:	7000           	moveq #0,d0
 65a:	3028 0012      	move.w 18(a0),d0
 65e:	4eae ff2e      	jsr -210(a6)
 662:	2c5f           	movea.l (sp)+,a6
 664:	4e5d           	unlk a5
 666:	4e75           	rts

00000668 __autil_begin_io:
 668:	4e55 0000      	link.w a5,#0
 66c:	2f0e           	move.l a6,-(sp)

0000066e ___aqb_xor_single:
 66e:	226d 0008      	movea.l 8(a5),a1
 672:	2c69 0014      	movea.l 20(a1),a6
 676:	4eae ffe2      	jsr -30(a6)
 67a:	2c5f           	movea.l (sp)+,a6
 67c:	4e5d           	unlk a5
 67e:	4e75           	rts

00000680 __autil_init:
 680:	2f0e           	move.l a6,-(sp)
 682:	703c           	moveq #60,d0
 684:	2c79 0000 0008 	movea.l 8 ___mulsi4+0x2,a6
			686: RELOC32	.bss
 68a:	4eae ffdc      	jsr -36(a6)
 68e:	23c0 0000 0010 	move.l d0,10 __aqb_read1
			690: RELOC32	.bss
 694:	7032           	moveq #50,d0
 696:	4eae ffdc      	jsr -36(a6)
 69a:	23c0 0000 000c 	move.l d0,c _SCREEN
			69c: RELOC32	.bss
 6a0:	2c5f           	movea.l (sp)+,a6
 6a2:	4e75           	rts

000006a4 __autil_shutdown:
 6a4:	2f0e           	move.l a6,-(sp)
 6a6:	2f02           	move.l d2,-(sp)
 6a8:	2079           	.short 0x2079
	...
			6aa: RELOC32	.bss

000006ac __debug_putf:
 6ac:	0008           	.short 0x0008
 6ae:	2008           	move.l a0,d0
 6b0:	6728           	beq.s 6da _LEFT_+0x14
 6b2:	2418           	move.l (a0)+,d2
 6b4:	2c79 0000 0000 	movea.l 0 _start,a6
			6b6: RELOC32	.bss
 6ba:	2010           	move.l (a0),d0
 6bc:	2268           	.short 0x2268

000006be __aio_puthex:
 6be:	0004 4eae      	ori.b #-82,d4
 6c2:	ff2e           	.short 0xff2e
 6c4:	700c           	moveq #12,d0

000006c6 _LEFT_:
 6c6:	2279 0000 0008 	movea.l 8 ___mulsi4+0x2,a1
			6c8: RELOC32	.bss
 6cc:	4eae ff2e      	jsr -210(a6)
 6d0:	23c2 0000 0008 	move.l d2,8 ___mulsi4+0x2
			6d2: RELOC32	.bss
 6d6:	2042           	movea.l d2,a0
 6d8:	66d8           	bne.s 6b2 __debug_putf+0x6
 6da:	241f           	move.l (sp)+,d2
 6dc:	2c5f           	movea.l (sp)+,a6
 6de:	4e75           	rts

Disassembly of section .text:

00000000 _start:
   0:	4e55 0000      	link.w a5,#0
   4:	206d           	.short 0x206d

00000006 ___mulsi4:
   6:	0008           	.short 0x0008
   8:	4298           	clr.l (a0)+
   a:	4258           	clr.w (a0)+

0000000c _SCREEN:
   c:	20ed 000c      	move.l 12(a5),(a0)+

00000010 __aqb_read1:
  10:	4298           	clr.l (a0)+
  12:	4290           	clr.l (a0)
  14:	4e5d           	unlk a5
  16:	4e75           	rts

00000018 ___DARRAY_T_REDIM:
  18:	4e55 fffc      	link.w a5,#-4

0000001c __atimer_shutdown:
  1c:	48e7 3f3a      	movem.l d2-d7/a2-a4/a6,-(sp)

00000020 __debug_putc:
  20:	2a2d 0008      	move.l 8(a5),d5
  24:	202d 0010      	move.l 16(a5),d0
  28:	3b6d           	.short 0x3b6d

0000002a ___umodsi3:
  2a:	000e           	.short 0x000e
  2c:	fffe           	.short 0xfffe
  2e:	2045           	movea.l d5,a0

00000030 ___umodsi4:
  30:	3800           	move.w d0,d4
  32:	3140 0004      	move.w d0,4(a0)

00000036 __aqb_clear:
  36:	42a7           	clr.l -(sp)
  38:	7200           	moveq #0,d1
  3a:	3200           	move.w d0,d1

0000003c ___udivsi4:
  3c:	2001           	move.l d1,d0

0000003e _foo:
  3e:	e588           	lsl.l #2,d0

00000040 __aqb_read2:
  40:	9081           	sub.l d1,d0
  42:	e588           	lsl.l #2,d0
  44:	2f00           	move.l d0,-(sp)
  46:	4eb9 0000 0000 	jsr 0 _start
			48: RELOC32	.text
  4c:	2045           	movea.l d5,a0
  4e:	2140 000e      	move.l d0,14(a0)
  52:	508f           	addq.l #8,sp
  54:	6700 00d8      	beq.w 12e _ERROR+0x10
  58:	2045           	movea.l d5,a0
  5a:	2c28 0006      	move.l 6(a0),d6
  5e:	4a44           	tst.w d4
  60:	6730           	beq.s 92 ___divsi3+0x4
  62:	47ed 0014      	lea 20(a5),a3
  66:	2468 000e      	movea.l 14(a0),a2
  6a:	4243           	clr.w d3
  6c:	49f9           	.short 0x49f9

0000006e __aqb_read4:
	...
			6e: RELOC32	.text

00000070 _DEALLOCATE:
	...

00000072 __MEMSET:
  72:	2c5b           	movea.l (a3)+,a6
  74:	241b           	move.l (a3)+,d2
  76:	2e02           	move.l d2,d7

00000078 __atimer_process_signals:
  78:	5282           	addq.l #1,d2
  7a:	948e           	sub.l a6,d2
  7c:	2f02           	move.l d2,-(sp)
  7e:	2f06           	move.l d6,-(sp)
  80:	4e94           	jsr (a4)

00000082 ___modsi3:
  82:	508f           	addq.l #8,sp
  84:	2c00           	move.l d0,d6

00000086 __autil_exit:
  86:	24ce           	move.l a6,(a2)+

00000088 ___modsi4:
  88:	24c7           	move.l d7,(a2)+
  8a:	24c2           	move.l d2,(a2)+
  8c:	5243           	addq.w #1,d3

0000008e ___divsi3:
  8e:	b644           	cmp.w d4,d3
  90:	65e0           	bcs.s 72 __MEMSET
  92:	2445           	movea.l d5,a2

00000094 ___divsi4:
  94:	2412           	move.l (a2),d2
  96:	262a 000a      	move.l 10(a2),d3

0000009a _TAGITEMS_:
  9a:	42a7           	clr.l -(sp)

0000009c __aqb_assert:
  9c:	2f06           	move.l d6,-(sp)
  9e:	4eb9           	.short 0x4eb9

000000a0 __aio_set_dos_cursor_visible:
  a0:	0000 0000      	ori.b #0,d0
			a0: RELOC32	.text
  a4:	2480           	move.l d0,(a2)
  a6:	508f           	addq.l #8,sp
  a8:	674e           	beq.s f8 _ON_ERROR_CALL+0xe
  aa:	2045           	movea.l d5,a0
  ac:	2146           	.short 0x2146

000000ae _TAGS_:
  ae:	000a           	.short 0x000a
  b0:	4a82           	tst.l d2
  b2:	675a           	beq.s 10e __aio_putnl+0x4
  b4:	4a6d fffe      	tst.w -2(a5)
  b8:	6716           	beq.s d0 __debug_puts+0x4

000000ba _SOUND:
  ba:	2003           	move.l d3,d0
  bc:	bc83           	cmp.l d3,d6
  be:	6524           	bcs.s e4 __debug_puts+0x18
  c0:	2c79           	.short 0x2c79

000000c2 ___pow_s4:
  c2:	0000 0000      	ori.b #0,d0
			c2: RELOC32	.bss
  c6:	2445           	movea.l d5,a2
  c8:	2252           	movea.l (a2),a1
  ca:	2042           	movea.l d2,a0

000000cc __debug_puts:
  cc:	4eae fd90      	jsr -624(a6)
  d0:	2f02           	move.l d2,-(sp)
  d2:	4eb9 0000 0070 	jsr 70 _DEALLOCATE
			d4: RELOC32	.text
  d8:	588f           	addq.l #4,sp
  da:	4ced 5cfc ffd4 	movem.l -44(a5),d2-d7/a2-a4/a6
  e0:	4e5d           	unlk a5
  e2:	4e75           	rts
  e4:	2006           	move.l d6,d0
  e6:	2c79           	.short 0x2c79
	...
			e8: RELOC32	.bss

000000ea _ON_ERROR_CALL:
  ea:	0000 2445      	ori.b #69,d0
  ee:	2252           	movea.l (a2),a1
  f0:	2042           	movea.l d2,a0
  f2:	4eae fd90      	jsr -624(a6)
  f6:	60d8           	bra.s d0 __debug_puts+0x4
  f8:	4878 0007      	pea 7 ___mulsi4+0x1
  fc:	4eb9 0000 011e 	jsr 11e _ERROR
			fe: RELOC32	.text
 102:	2045           	movea.l d5,a0

00000104 ___pow_u4:
 104:	588f           	addq.l #4,sp
 106:	2146 000a      	move.l d6,10(a0)

0000010a __aio_putnl:
 10a:	4a82           	tst.l d2
 10c:	66a6           	bne.s b4 _TAGS_+0x6
 10e:	2045           	movea.l d5,a0
 110:	2010           	move.l (a0),d0
 112:	67c6           	beq.s da __debug_puts+0xe
 114:	4a86           	tst.l d6
 116:	67c2           	beq.s da __debug_puts+0xe
 118:	2f06           	move.l d6,-(sp)
 11a:	2f02           	move.l d2,-(sp)
 11c:	2f00           	move.l d0,-(sp)

0000011e _ERROR:
 11e:	4eb9 0000 0072 	jsr 72 __MEMSET
			120: RELOC32	.text
 124:	4ced 5cfc ffd4 	movem.l -44(a5),d2-d7/a2-a4/a6
 12a:	4e5d           	unlk a5
 12c:	4e75           	rts
 12e:	4878 0007      	pea 7 ___mulsi4+0x1
 132:	4eb9 0000 011e 	jsr 11e _ERROR
			134: RELOC32	.text

00000138 _SCREEN_CLOSE:
 138:	588f           	addq.l #4,sp
 13a:	6000 ff1c      	bra.w 58 __aqb_read2+0x18

0000013e ___aqb_init:
 13e:	4e55 0000      	link.w a5,#0

00000142 __astr_itoa:
 142:	48e7 3f3a      	movem.l d2-d7/a2-a4/a6,-(sp)

00000146 ___pow_s2:
 146:	286d 0008      	movea.l 8(a5),a4
 14a:	342d 000e      	move.w 14(a5),d2
 14e:	4a94           	tst.l (a4)
 150:	6700 0086      	beq.w 1d8 ___mul_s1+0xe
 154:	b46c 0004      	cmp.w 4(a4),d2
 158:	670c           	beq.s 166 ___pow_s2+0x20
 15a:	4878 0009      	pea 9 ___mulsi4+0x3
 15e:	4eb9 0000 011e 	jsr 11e _ERROR
			160: RELOC32	.text
 164:	588f           	addq.l #4,sp
 166:	45ed 0010      	lea 16(a5),a2
 16a:	242c 0006      	move.l 6(a4),d2
 16e:	382c 0004      	move.w 4(a4),d4

00000172 ___pow_u2:
 172:	5344           	subq.w #1,d4
 174:	7600           	moveq #0,d3
 176:	4a44           	tst.w d4
 178:	6d50           	blt.s 1ca ___mul_s1
 17a:	47f9 0000 0000 	lea 0 _start,a3
			17c: RELOC32	.text
 180:	4df9 0000 011e 	lea 11e _ERROR,a6
			182: RELOC32	.text
 186:	3204           	move.w d4,d1
 188:	48c1           	ext.l d1
 18a:	2001           	move.l d1,d0

0000018c __debug_puts1:
 18c:	e588           	lsl.l #2,d0
 18e:	9081           	sub.l d1,d0
 190:	206c 000e      	movea.l 14(a4),a0
 194:	e588           	lsl.l #2,d0
 196:	d1c0           	adda.l d0,a0

00000198 _WINDOW:
 198:	2c18           	move.l (a0)+,d6
 19a:	2018           	move.l (a0)+,d0
 19c:	2e10           	move.l (a0),d7

0000019e ___pow_s1:
 19e:	2a1a           	move.l (a2)+,d5
 1a0:	ba86           	cmp.l d6,d5
 1a2:	6504           	bcs.s 1a8 ___pow_s1+0xa
 1a4:	ba80           	cmp.l d0,d5
 1a6:	6308           	bls.s 1b0 ___pow_s1+0x12
 1a8:	4878 0009      	pea 9 ___mulsi4+0x3
 1ac:	4e96           	jsr (a6)
 1ae:	588f           	addq.l #4,sp
 1b0:	2f02           	move.l d2,-(sp)
 1b2:	9a86           	sub.l d6,d5
 1b4:	2f05           	move.l d5,-(sp)
 1b6:	4e93           	jsr (a3)
 1b8:	508f           	addq.l #8,sp

000001ba _RESUME_NEXT:
 1ba:	d680           	add.l d0,d3

000001bc __aio_puttab:
 1bc:	2f07           	move.l d7,-(sp)
 1be:	2f02           	move.l d2,-(sp)
 1c0:	4e93           	jsr (a3)
 1c2:	508f           	addq.l #8,sp

000001c4 _TIMER_:
 1c4:	2400           	move.l d0,d2
 1c6:	51cc ffbe      	dbf d4,186 ___pow_u2+0x14

000001ca ___mul_s1:
 1ca:	2014           	move.l (a4),d0
 1cc:	d083           	add.l d3,d0
 1ce:	4ced 5cfc ffd8 	movem.l -40(a5),d2-d7/a2-a4/a6
 1d4:	4e5d           	unlk a5
 1d6:	4e75           	rts
 1d8:	4878           	.short 0x4878

000001da ___div_s1:
 1da:	0009           	.short 0x0009
 1dc:	4eb9 0000 011e 	jsr 11e _ERROR
			1de: RELOC32	.text
 1e2:	588f           	addq.l #4,sp
 1e4:	6000 ff6e      	bra.w 154 ___pow_s2+0xe

000001e8 ___DARRAY_T_LBOUND_:
 1e8:	4e55 0000      	link.w a5,#0
 1ec:	226d 0008      	movea.l 8(a5),a1
 1f0:	202d 000c      	move.l 12(a5),d0
 1f4:	4a40           	tst.w d0
 1f6:	6f2c           	ble.s 224 ___pow_u1+0xa
 1f8:	4a91           	tst.l (a1)

000001fa ___mod_s1:
 1fa:	6722           	beq.s 21e ___pow_u1+0x4
 1fc:	3040           	movea.w d0,a0
 1fe:	7000           	moveq #0,d0
 200:	3029 0004      	move.w 4(a1),d0
 204:	b088           	cmp.l a0,d0
 206:	6d16           	blt.s 21e ___pow_u1+0x4
 208:	2008           	move.l a0,d0
 20a:	e588           	lsl.l #2,d0
 20c:	9088           	sub.l a0,d0
 20e:	e588           	lsl.l #2,d0
 210:	d0a9 000e      	add.l 14(a1),d0
 214:	2040           	movea.l d0,a0
 216:	3028           	.short 0x3028

00000218 _DATE_:
 218:	fff6           	.short 0xfff6

0000021a ___pow_u1:
 21a:	4e5d           	unlk a5
 21c:	4e75           	rts
 21e:	4240           	clr.w d0
 220:	4e5d           	unlk a5
 222:	4e75           	rts
 224:	7001           	moveq #1,d0
 226:	4e5d           	unlk a5
 228:	4e75           	rts

0000022a ___DARRAY_T_UBOUND_:
 22a:	4e55 0000      	link.w a5,#0
 22e:	226d 0008      	movea.l 8(a5),a1
 232:	202d 000c      	move.l 12(a5),d0
 236:	4a40           	tst.w d0
 238:	6f2c           	ble.s 266 ___div_u1+0x10
 23a:	4a91           	tst.l (a1)
 23c:	6730           	beq.s 26e __aio_puts4+0x2
 23e:	3040           	movea.w d0,a0
 240:	7000           	moveq #0,d0
 242:	3029 0004      	move.w 4(a1),d0

00000246 ___mul_u1:
 246:	b088           	cmp.l a0,d0
 248:	6d16           	blt.s 260 ___div_u1+0xa

0000024a __astr_utoa_ext:
 24a:	2008           	move.l a0,d0
 24c:	e588           	lsl.l #2,d0
 24e:	9088           	sub.l a0,d0
 250:	e588           	lsl.l #2,d0
 252:	d0a9 000e      	add.l 14(a1),d0

00000256 ___div_u1:
 256:	2040           	movea.l d0,a0
 258:	3028 fffa      	move.w -6(a0),d0
 25c:	4e5d           	unlk a5
 25e:	4e75           	rts
 260:	4240           	clr.w d0
 262:	4e5d           	unlk a5
 264:	4e75           	rts
 266:	3029 0004      	move.w 4(a1),d0

0000026a __debug_puts2:
 26a:	4e5d           	unlk a5

0000026c __aio_puts4:
 26c:	4e75           	rts
 26e:	70ff           	moveq #-1,d0
 270:	4e5d           	unlk a5

00000272 ___mod_u1:
 272:	4e75           	rts

00000274 ___DARRAY_T_COPY:
 274:	4e55 0000      	link.w a5,#0
 278:	48e7 0032      	movem.l a2-a3/a6,-(sp)
 27c:	246d 0008      	movea.l 8(a5),a2
 280:	266d 000c      	movea.l 12(a5),a3
 284:	302a 0004      	move.w 4(a2),d0
 288:	b06b 0004      	cmp.w 4(a3),d0
 28c:	670a           	beq.s 298 ___aqb_mod+0x6
 28e:	4878 000a      	pea a ___mulsi4+0x4

00000292 ___aqb_mod:
 292:	4eb9 0000 011e 	jsr 11e _ERROR
			294: RELOC32	.text
 298:	222b 000a      	move.l 10(a3),d1
 29c:	202a 000a      	move.l 10(a2),d0
 2a0:	b280           	cmp.l d0,d1
 2a2:	6402           	bcc.s 2a6 ___aqb_mod+0x14
 2a4:	2001           	move.l d1,d0
 2a6:	2c79 0000 0000 	movea.l 0 _start,a6
			2a8: RELOC32	.bss
 2ac:	2252           	movea.l (a2),a1
 2ae:	2053           	movea.l (a3),a0
 2b0:	4eae fd90      	jsr -624(a6)
 2b4:	4ced 4c00 fff4 	movem.l -12(a5),a2-a3/a6
 2ba:	4e5d           	unlk a5
 2bc:	4e75           	rts

000002be ___DARRAY_T_ERASE:
 2be:	4e55 0000      	link.w a5,#0
 2c2:	2f0a           	move.l a2,-(sp)
 2c4:	246d 0008      	movea.l 8(a5),a2
 2c8:	2012           	move.l (a2),d0
 2ca:	6708           	beq.s 2d4 ___DARRAY_T_ERASE+0x16
 2cc:	2f00           	move.l d0,-(sp)
 2ce:	4eb9 0000 0070 	jsr 70 _DEALLOCATE
			2d0: RELOC32	.text
 2d4:	429a           	clr.l (a2)+
 2d6:	425a           	clr.w (a2)+
 2d8:	42aa 0004      	clr.l 4(a2)
 2dc:	42aa 0008      	clr.l 8(a2)
 2e0:	246d fffc      	movea.l -4(a5),a2
 2e4:	4e5d           	unlk a5
 2e6:	4e75           	rts

000002e8 ___DARRAY_T_CLEAR:
 2e8:	4e55 0000      	link.w a5,#0
 2ec:	206d 0008      	movea.l 8(a5),a0
 2f0:	2010           	move.l (a0),d0
 2f2:	6706           	beq.s 2fa ___DARRAY_T_CLEAR+0x12
 2f4:	2228 000a      	move.l 10(a0),d1
 2f8:	6604           	bne.s 2fe ___DARRAY_T_CLEAR+0x16
 2fa:	4e5d           	unlk a5
 2fc:	4e75           	rts
 2fe:	2f01           	move.l d1,-(sp)
 300:	42a7           	clr.l -(sp)
 302:	2f00           	move.l d0,-(sp)
 304:	4eb9 0000 0072 	jsr 72 __MEMSET
			306: RELOC32	.text
 30a:	4fef 000c      	lea 12(sp),sp
 30e:	4e5d           	unlk a5
 310:	4e75           	rts
	...

Disassembly of section .text:

00000000 _start:
   0:	4e55 0000      	link.w a5,#0
   4:	23ed           	.short 0x23ed

00000006 ___mulsi4:
   6:	0008           	.short 0x0008
   8:	0000 0000      	ori.b #0,d0
			8: RELOC32	.bss

0000000c _SCREEN:
   c:	4e5d           	unlk a5
   e:	4e75           	rts

00000010 __aqb_read1:
  10:	4e55 0000      	link.w a5,#0
  14:	206d 0008      	movea.l 8(a5),a0

00000018 ___DARRAY_T_REDIM:
  18:	2039           	.short 0x2039
	...
			1a: RELOC32	.bss

0000001c __atimer_shutdown:
  1c:	0000 6712      	ori.b #18,d0

00000020 __debug_putc:
  20:	2240           	movea.l d0,a1
  22:	10a9 0001      	move.b 1(a1),(a0)
  26:	5480           	addq.l #2,d0
  28:	23c0           	.short 0x23c0

0000002a ___umodsi3:
  2a:	0000 0000      	ori.b #0,d0
			2a: RELOC32	.bss
  2e:	4e5d           	unlk a5

00000030 ___umodsi4:
  30:	4e75           	rts
  32:	7004           	moveq #4,d0
  34:	2b40           	.short 0x2b40

00000036 __aqb_clear:
  36:	0008           	.short 0x0008
  38:	4e5d           	unlk a5
  3a:	4ef9           	.short 0x4ef9

0000003c ___udivsi4:
	...
			3c: RELOC32	.text

0000003e _foo:
  3e:	011e           	btst d0,(a6)+

00000040 __aqb_read2:
  40:	4e55 0000      	link.w a5,#0
  44:	206d 0008      	movea.l 8(a5),a0
  48:	2039 0000 0000 	move.l 0 _start,d0
			4a: RELOC32	.bss
  4e:	6710           	beq.s 60 __aqb_read2+0x20
  50:	2240           	movea.l d0,a1
  52:	3091           	move.w (a1),(a0)
  54:	5480           	addq.l #2,d0
  56:	23c0 0000 0000 	move.l d0,0 _start
			58: RELOC32	.bss
  5c:	4e5d           	unlk a5
  5e:	4e75           	rts
  60:	7004           	moveq #4,d0
  62:	2b40 0008      	move.l d0,8(a5)
  66:	4e5d           	unlk a5
  68:	4ef9 0000 011e 	jmp 11e _ERROR
			6a: RELOC32	.text

0000006e __aqb_read4:
  6e:	4e55           	Address 0x0000000000000070 is out of bounds.
.short 0x4e55

00000070 _DEALLOCATE:
	...

00000072 __MEMSET:
  72:	206d 0008      	movea.l 8(a5),a0
  76:	2039           	.short 0x2039

00000078 __atimer_process_signals:
  78:	0000 0000      	ori.b #0,d0
			78: RELOC32	.bss
  7c:	6710           	beq.s 8e ___divsi3
  7e:	2240           	movea.l d0,a1
  80:	2091           	move.l (a1),(a0)

00000082 ___modsi3:
  82:	5880           	addq.l #4,d0
  84:	23c0           	.short 0x23c0

00000086 __autil_exit:
	...
			86: RELOC32	.bss

00000088 ___modsi4:
  88:	0000 4e5d      	ori.b #93,d0
  8c:	4e75           	rts

0000008e ___divsi3:
  8e:	7004           	moveq #4,d0
  90:	2b40 0008      	move.l d0,8(a5)

00000094 ___divsi4:
  94:	4e5d           	unlk a5
  96:	4ef9           	.short 0x4ef9
	...
			98: RELOC32	.text

0000009a _TAGITEMS_:
  9a:	011e           	btst d0,(a6)+

0000009c __aqb_assert:
  9c:	4e55 fc00      	link.w a5,#-1024

000000a0 __aio_set_dos_cursor_visible:
  a0:	2f0a           	move.l a2,-(sp)
  a2:	2279 0000 0000 	movea.l 0 _start,a1
			a4: RELOC32	.bss
  a8:	2009           	move.l a1,d0
  aa:	673e           	beq.s ea _ON_ERROR_CALL
  ac:	220d           	move.l a5,d1

000000ae _TAGS_:
  ae:	0681 ffff fc00 	addi.l #-1024,d1
  b4:	2441           	movea.l d1,a2
  b6:	91c8           	suba.l a0,a0
  b8:	1019           	move.b (a1)+,d0

000000ba _SOUND:
  ba:	14c0           	move.b d0,(a2)+
  bc:	5288           	addq.l #1,a0
  be:	6706           	beq.s c6 ___pow_s4+0x4
  c0:	b0fc           	.short 0xb0fc

000000c2 ___pow_s4:
  c2:	03ff           	.short 0x03ff
  c4:	66f2           	bne.s b8 _TAGS_+0xa
  c6:	23c9 0000 0000 	move.l a1,0 _start
			c8: RELOC32	.bss

000000cc __debug_puts:
  cc:	d1cd           	adda.l a5,a0
  ce:	4228 fc00      	clr.b -1024(a0)
  d2:	2f01           	move.l d1,-(sp)
  d4:	4eb9 0000 0922 	jsr 922 __astr_dup
			d6: RELOC32	.text
  da:	206d 0008      	movea.l 8(a5),a0
  de:	2080           	move.l d0,(a0)
  e0:	588f           	addq.l #4,sp
  e2:	246d fbfc      	movea.l -1028(a5),a2
  e6:	4e5d           	unlk a5
  e8:	4e75           	rts

000000ea _ON_ERROR_CALL:
  ea:	4878 0004      	pea 4 _start+0x4
  ee:	4eb9 0000 011e 	jsr 11e _ERROR
			f0: RELOC32	.text
  f4:	246d fbfc      	movea.l -1028(a5),a2
  f8:	4e5d           	unlk a5
  fa:	4e75           	rts

Disassembly of section .text:

00000000 _start:
       0:	4e55 0000      	link.w a5,#0
       4:	48e7           	Address 0x0000000000000006 is out of bounds.
.short 0x48e7

00000006 ___mulsi4:
       6:	3022           	move.w -(a2),d0
       8:	202d 0008      	move.l 8(a5),d0

0000000c _SCREEN:
       c:	242d 000c      	move.l 12(a5),d2

00000010 __aqb_read1:
      10:	4a40           	tst.w d0
      12:	6740           	beq.s 54 __aqb_read2+0x14
      14:	0c40 000f      	cmpi.w #15,d0

00000018 ___DARRAY_T_REDIM:
      18:	6272           	bhi.s 8c ___modsi4+0x4
      1a:	7600           	moveq #0,d3

0000001c __atimer_shutdown:
      1c:	3600           	move.w d0,d3
      1e:	45f9           	.short 0x45f9

00000020 __debug_putc:
      20:	0000 0010      	ori.b #16,d0
			20: RELOC32	.bss
      24:	e58b           	lsl.l #2,d3
      26:	4ab2 3800      	tst.l (0,a2,d3.l)

0000002a ___umodsi3:
      2a:	6760           	beq.s 8c ___modsi4+0x4
      2c:	2f02           	move.l d2,-(sp)
      2e:	4eb9           	.short 0x4eb9

00000030 ___umodsi4:
      30:	0000 03f0      	ori.b #-16,d0
			30: RELOC32	.text
      34:	2072           	.short 0x2072

00000036 __aqb_clear:
      36:	3800           	move.w d0,d4
      38:	2c79           	.short 0x2c79
	...
			3a: RELOC32	.bss

0000003c ___udivsi4:
      3c:	0004           	Address 0x000000000000003e is out of bounds.
.short 0x0004

0000003e _foo:
      3e:	2228           	.short 0x2228

00000040 __aqb_read2:
      40:	0004 2600      	ori.b #0,d4
      44:	4eae ffd0      	jsr -48(a6)
      48:	588f           	addq.l #4,sp
      4a:	4ced 440c fff0 	movem.l -16(a5),d2-d3/a2/a6
      50:	4e5d           	unlk a5
      52:	4e75           	rts
      54:	2079 0000 0000 	movea.l 0 _start,a0
			56: RELOC32	.bss
      5a:	2008           	move.l a0,d0
      5c:	670a           	beq.s 68 __aqb_read2+0x28
      5e:	2f02           	move.l d2,-(sp)
      60:	4e90           	jsr (a0)
      62:	588f           	addq.l #4,sp
      64:	4a40           	tst.w d0
      66:	66e2           	bne.s 4a __aqb_read2+0xa
      68:	2f02           	move.l d2,-(sp)
      6a:	4eb9           	.short 0x4eb9
	...
			6c: RELOC32	.text

0000006e __aqb_read4:
      6e:	03f0           	.short 0x03f0

00000070 _DEALLOCATE:
      70:	2c79           	.short 0x2c79

00000072 __MEMSET:
      72:	0000 0004      	ori.b #4,d0
			72: RELOC32	.bss
      76:	2239           	.short 0x2239

00000078 __atimer_process_signals:
      78:	0000 0050      	ori.b #80,d0
			78: RELOC32	.bss
      7c:	2600           	move.l d0,d3
      7e:	4eae ffd0      	jsr -48(a6)

00000082 ___modsi3:
      82:	4ced           	.short 0x4ced
      84:	440c           	.short 0x440c

00000086 __autil_exit:
      86:	fff0           	.short 0xfff0

00000088 ___modsi4:
      88:	4e5d           	unlk a5
      8a:	4e75           	rts
      8c:	7034           	moveq #52,d0

0000008e ___divsi3:
      8e:	2b40 0008      	move.l d0,8(a5)
      92:	4ced           	Address 0x0000000000000094 is out of bounds.
.short 0x4ced

00000094 ___divsi4:
      94:	440c           	.short 0x440c
      96:	fff0           	.short 0xfff0
      98:	4e5d           	unlk a5

0000009a _TAGITEMS_:
      9a:	4ef9           	.short 0x4ef9

0000009c __aqb_assert:
      9c:	0000 011e      	ori.b #30,d0
			9c: RELOC32	.text

000000a0 __aio_set_dos_cursor_visible:
      a0:	4e55 0000      	link.w a5,#0
      a4:	48e7 3002      	movem.l d2-d3/a6,-(sp)
      a8:	4a6d 000a      	tst.w 10(a5)
      ac:	662e           	bne.s dc __debug_puts+0x10

000000ae _TAGS_:
      ae:	243c 0000 0005 	move.l #5,d2
			b0: RELOC32	.data
      b4:	2639 0000 0050 	move.l 50 __aqb_read2+0x10,d3
			b6: RELOC32	.bss

000000ba _SOUND:
      ba:	2f02           	move.l d2,-(sp)
      bc:	4eb9 0000 03f0 	jsr 3f0 _LEN_
			be: RELOC32	.text

000000c2 ___pow_s4:
      c2:	2c79 0000 0004 	movea.l 4 _start+0x4,a6
			c4: RELOC32	.bss
      c8:	2203           	move.l d3,d1
      ca:	2600           	move.l d0,d3

000000cc __debug_puts:
      cc:	4eae ffd0      	jsr -48(a6)
      d0:	588f           	addq.l #4,sp
      d2:	4ced 400c fff4 	movem.l -12(a5),d2-d3/a6
      d8:	4e5d           	unlk a5
      da:	4e75           	rts
      dc:	243c 0000 0000 	move.l #0,d2
			de: RELOC32	.data
      e2:	2639 0000 0050 	move.l 50 __aqb_read2+0x10,d3
			e4: RELOC32	.bss
      e8:	2f02           	move.l d2,-(sp)

000000ea _ON_ERROR_CALL:
      ea:	4eb9 0000 03f0 	jsr 3f0 _LEN_
			ec: RELOC32	.text
      f0:	2c79 0000 0004 	movea.l 4 _start+0x4,a6
			f2: RELOC32	.bss
      f6:	2203           	move.l d3,d1
      f8:	2600           	move.l d0,d3
      fa:	4eae ffd0      	jsr -48(a6)
      fe:	4ced 400c fff4 	movem.l -12(a5),d2-d3/a6

00000104 ___pow_u4:
     104:	4e5d           	unlk a5
     106:	4e75           	rts
     108:	0a00           	Address 0x000000000000010a is out of bounds.
.short 0x0a00

0000010a __aio_putnl:
     10a:	4e55 0000      	link.w a5,#0
     10e:	48e7 3022      	movem.l d2-d3/a2/a6,-(sp)
     112:	202d 0008      	move.l 8(a5),d0
     116:	4a40           	tst.w d0
     118:	674a           	beq.s 164 ___pow_s2+0x1e
     11a:	0c40 000f      	cmpi.w #15,d0

0000011e _ERROR:
     11e:	6200 0086      	bhi.w 1a6 ___pow_s1+0x8
     122:	7400           	moveq #0,d2
     124:	3400           	move.w d0,d2
     126:	45f9 0000 0010 	lea 10 __aqb_read1,a2
			128: RELOC32	.bss
     12c:	e58a           	lsl.l #2,d2
     12e:	4ab2 2800      	tst.l (0,a2,d2.l)
     132:	6772           	beq.s 1a6 ___pow_s1+0x8
     134:	487a ffd2      	pea 108 ___pow_u4+0x4(pc)

00000138 _SCREEN_CLOSE:
     138:	4eb9 0000 03f0 	jsr 3f0 _LEN_
			13a: RELOC32	.text

0000013e ___aqb_init:
     13e:	2072 2800      	movea.l (0,a2,d2.l),a0

00000142 __astr_itoa:
     142:	2c79           	.short 0x2c79
	...
			144: RELOC32	.bss

00000146 ___pow_s2:
     146:	0004 2228      	ori.b #40,d4
     14a:	0004 243c      	ori.b #60,d4
     14e:	0000 0108      	ori.b #8,d0
			14e: RELOC32	.text
     152:	2600           	move.l d0,d3
     154:	4eae ffd0      	jsr -48(a6)
     158:	588f           	addq.l #4,sp
     15a:	4ced 440c fff0 	movem.l -16(a5),d2-d3/a2/a6
     160:	4e5d           	unlk a5
     162:	4e75           	rts
     164:	2079 0000 0000 	movea.l 0 _start,a0
			166: RELOC32	.bss
     16a:	2008           	move.l a0,d0
     16c:	670c           	beq.s 17a ___pow_u2+0x8
     16e:	487a ff98      	pea 108 ___pow_u4+0x4(pc)

00000172 ___pow_u2:
     172:	4e90           	jsr (a0)
     174:	588f           	addq.l #4,sp
     176:	4a40           	tst.w d0
     178:	66e0           	bne.s 15a ___pow_s2+0x14
     17a:	487a ff8c      	pea 108 ___pow_u4+0x4(pc)
     17e:	4eb9 0000 03f0 	jsr 3f0 _LEN_
			180: RELOC32	.text
     184:	2c79 0000 0004 	movea.l 4 _start+0x4,a6
			186: RELOC32	.bss
     18a:	2239           	.short 0x2239

0000018c __debug_puts1:
     18c:	0000 0050      	ori.b #80,d0
			18c: RELOC32	.bss
     190:	243c 0000 0108 	move.l #264,d2
			192: RELOC32	.text
     196:	2600           	move.l d0,d3

00000198 _WINDOW:
     198:	4eae ffd0      	jsr -48(a6)
     19c:	4ced           	Address 0x000000000000019e is out of bounds.
.short 0x4ced

0000019e ___pow_s1:
     19e:	440c           	.short 0x440c
     1a0:	fff0           	.short 0xfff0
     1a2:	4e5d           	unlk a5
     1a4:	4e75           	rts
     1a6:	7034           	moveq #52,d0
     1a8:	2b40 0008      	move.l d0,8(a5)
     1ac:	4ced 440c fff0 	movem.l -16(a5),d2-d3/a2/a6
     1b2:	4e5d           	unlk a5
     1b4:	4ef9 0000 011e 	jmp 11e _ERROR
			1b6: RELOC32	.text

000001ba _RESUME_NEXT:
     1ba:	0900           	btst d4,d0

000001bc __aio_puttab:
     1bc:	4e55 0000      	link.w a5,#0
     1c0:	48e7 3022      	movem.l d2-d3/a2/a6,-(sp)

000001c4 _TIMER_:
     1c4:	202d 0008      	move.l 8(a5),d0
     1c8:	4a40           	tst.w d0

000001ca ___mul_s1:
     1ca:	674a           	beq.s 216 ___mod_s1+0x1c
     1cc:	0c40 000f      	cmpi.w #15,d0
     1d0:	6200 0086      	bhi.w 258 ___div_u1+0x2
     1d4:	7400           	moveq #0,d2
     1d6:	3400           	move.w d0,d2
     1d8:	45f9           	.short 0x45f9

000001da ___div_s1:
     1da:	0000 0010      	ori.b #16,d0
			1da: RELOC32	.bss
     1de:	e58a           	lsl.l #2,d2
     1e0:	4ab2 2800      	tst.l (0,a2,d2.l)
     1e4:	6772           	beq.s 258 ___div_u1+0x2
     1e6:	487a           	.short 0x487a

000001e8 ___DARRAY_T_LBOUND_:
     1e8:	ffd2           	.short 0xffd2
     1ea:	4eb9 0000 03f0 	jsr 3f0 _LEN_
			1ec: RELOC32	.text
     1f0:	2072 2800      	movea.l (0,a2,d2.l),a0
     1f4:	2c79 0000 0004 	movea.l 4 _start+0x4,a6
			1f6: RELOC32	.bss

000001fa ___mod_s1:
     1fa:	2228 0004      	move.l 4(a0),d1
     1fe:	243c 0000 01ba 	move.l #442,d2
			200: RELOC32	.text
     204:	2600           	move.l d0,d3
     206:	4eae ffd0      	jsr -48(a6)
     20a:	588f           	addq.l #4,sp
     20c:	4ced 440c fff0 	movem.l -16(a5),d2-d3/a2/a6
     212:	4e5d           	unlk a5
     214:	4e75           	rts
     216:	2079           	.short 0x2079

00000218 _DATE_:
	...
			218: RELOC32	.bss

0000021a ___pow_u1:
     21a:	0000 2008      	ori.b #8,d0
     21e:	670c           	beq.s 22c ___DARRAY_T_UBOUND_+0x2
     220:	487a ff98      	pea 1ba _RESUME_NEXT(pc)
     224:	4e90           	jsr (a0)
     226:	588f           	addq.l #4,sp
     228:	4a40           	tst.w d0

0000022a ___DARRAY_T_UBOUND_:
     22a:	66e0           	bne.s 20c ___mod_s1+0x12
     22c:	487a ff8c      	pea 1ba _RESUME_NEXT(pc)
     230:	4eb9 0000 03f0 	jsr 3f0 _LEN_
			232: RELOC32	.text
     236:	2c79 0000 0004 	movea.l 4 _start+0x4,a6
			238: RELOC32	.bss
     23c:	2239 0000 0050 	move.l 50 __aqb_read2+0x10,d1
			23e: RELOC32	.bss
     242:	243c           	.short 0x243c
	...
			244: RELOC32	.text

00000246 ___mul_u1:
     246:	01ba           	.short 0x01ba
     248:	2600           	move.l d0,d3

0000024a __astr_utoa_ext:
     24a:	4eae ffd0      	jsr -48(a6)
     24e:	4ced 440c fff0 	movem.l -16(a5),d2-d3/a2/a6
     254:	4e5d           	unlk a5

00000256 ___div_u1:
     256:	4e75           	rts
     258:	7034           	moveq #52,d0
     25a:	2b40 0008      	move.l d0,8(a5)
     25e:	4ced 440c fff0 	movem.l -16(a5),d2-d3/a2/a6
     264:	4e5d           	unlk a5
     266:	4ef9           	.short 0x4ef9
	...
			268: RELOC32	.text

0000026a __debug_puts2:
     26a:	011e           	btst d0,(a6)+

0000026c __aio_puts4:
     26c:	4e55 ffd8      	link.w a5,#-40
     270:	48e7           	Address 0x0000000000000272 is out of bounds.
.short 0x48e7

00000272 ___mod_u1:
     272:	3822           	move.w -(a2),d4

00000274 ___DARRAY_T_COPY:
     274:	282d 0008      	move.l 8(a5),d4
     278:	4878 000a      	pea a ___mulsi4+0x4
     27c:	74d8           	moveq #-40,d2
     27e:	d48d           	add.l a5,d2
     280:	2f02           	move.l d2,-(sp)
     282:	2f2d 000c      	move.l 12(a5),-(sp)
     286:	4eb9 0000 0142 	jsr 142 __astr_itoa
			288: RELOC32	.text
     28c:	4fef 000c      	lea 12(sp),sp
     290:	4a44           	tst.w d4

00000292 ___aqb_mod:
     292:	6740           	beq.s 2d4 ___DARRAY_T_ERASE+0x16
     294:	0c44 000f      	cmpi.w #15,d4
     298:	6274           	bhi.s 30e ___DARRAY_T_CLEAR+0x26
     29a:	7600           	moveq #0,d3
     29c:	3604           	move.w d4,d3
     29e:	45f9 0000 0010 	lea 10 __aqb_read1,a2
			2a0: RELOC32	.bss
     2a4:	e58b           	lsl.l #2,d3
     2a6:	4ab2 3800      	tst.l (0,a2,d3.l)
     2aa:	6762           	beq.s 30e ___DARRAY_T_CLEAR+0x26
     2ac:	2f02           	move.l d2,-(sp)
     2ae:	4eb9 0000 03f0 	jsr 3f0 _LEN_
			2b0: RELOC32	.text
     2b4:	2072 3800      	movea.l (0,a2,d3.l),a0
     2b8:	2c79 0000 0004 	movea.l 4 _start+0x4,a6
			2ba: RELOC32	.bss

000002be ___DARRAY_T_ERASE:
     2be:	2228 0004      	move.l 4(a0),d1
     2c2:	2600           	move.l d0,d3
     2c4:	4eae ffd0      	jsr -48(a6)
     2c8:	588f           	addq.l #4,sp
     2ca:	4ced 441c ffc4 	movem.l -60(a5),d2-d4/a2/a6
     2d0:	4e5d           	unlk a5
     2d2:	4e75           	rts
     2d4:	2079 0000 0000 	movea.l 0 _start,a0
			2d6: RELOC32	.bss
     2da:	2008           	move.l a0,d0
     2dc:	670a           	beq.s 2e8 ___DARRAY_T_CLEAR
     2de:	2f02           	move.l d2,-(sp)
     2e0:	4e90           	jsr (a0)
     2e2:	588f           	addq.l #4,sp
     2e4:	4a40           	tst.w d0
     2e6:	66e2           	bne.s 2ca ___DARRAY_T_ERASE+0xc

000002e8 ___DARRAY_T_CLEAR:
     2e8:	2f02           	move.l d2,-(sp)
     2ea:	4eb9 0000 03f0 	jsr 3f0 _LEN_
			2ec: RELOC32	.text
     2f0:	2c79 0000 0004 	movea.l 4 _start+0x4,a6
			2f2: RELOC32	.bss
     2f6:	2239 0000 0050 	move.l 50 __aqb_read2+0x10,d1
			2f8: RELOC32	.bss
     2fc:	2600           	move.l d0,d3
     2fe:	4eae ffd0      	jsr -48(a6)
     302:	588f           	addq.l #4,sp
     304:	4ced 441c ffc4 	movem.l -60(a5),d2-d4/a2/a6
     30a:	4e5d           	unlk a5
     30c:	4e75           	rts
     30e:	4878 0034      	pea 34 ___umodsi4+0x4
     312:	4eb9 0000 011e 	jsr 11e _ERROR
			314: RELOC32	.text
     318:	4ced 441c ffc4 	movem.l -60(a5),d2-d4/a2/a6
     31e:	4e5d           	unlk a5
     320:	4e75           	rts

00000322 __aio_puts2:
     322:	4e55 ffd8      	link.w a5,#-40
     326:	48e7 3822      	movem.l d2-d4/a2/a6,-(sp)
     32a:	282d 0008      	move.l 8(a5),d4
     32e:	4878           	.short 0x4878

00000330 __astr_utoa:
     330:	000a           	.short 0x000a
     332:	74d8           	moveq #-40,d2
     334:	d48d           	add.l a5,d2
     336:	2f02           	move.l d2,-(sp)
     338:	306d 000e      	movea.w 14(a5),a0
     33c:	2f08           	move.l a0,-(sp)
     33e:	4eb9           	.short 0x4eb9

00000340 _ON_TIMER_CALL:
     340:	0000 0142      	ori.b #66,d0
			340: RELOC32	.text

00000344 __debug_puts4:
     344:	4fef 000c      	lea 12(sp),sp
     348:	4a44           	tst.w d4
     34a:	6740           	beq.s 38c _int_+0x16
     34c:	0c44 000f      	cmpi.w #15,d4
     350:	6274           	bhi.s 3c6 _FRE_+0x10
     352:	7600           	moveq #0,d3
     354:	3604           	move.w d4,d3
     356:	45f9 0000 0010 	lea 10 __aqb_read1,a2
			358: RELOC32	.bss

0000035c _fix_:
     35c:	e58b           	lsl.l #2,d3
     35e:	4ab2 3800      	tst.l (0,a2,d3.l)
     362:	6762           	beq.s 3c6 _FRE_+0x10

00000364 _SLEEP_FOR:
     364:	2f02           	move.l d2,-(sp)
     366:	4eb9 0000 03f0 	jsr 3f0 _LEN_
			368: RELOC32	.text
     36c:	2072 3800      	movea.l (0,a2,d3.l),a0
     370:	2c79 0000 0004 	movea.l 4 _start+0x4,a6
			372: RELOC32	.bss

00000376 _int_:
     376:	2228 0004      	move.l 4(a0),d1
     37a:	2600           	move.l d0,d3
     37c:	4eae ffd0      	jsr -48(a6)
     380:	588f           	addq.l #4,sp
     382:	4ced 441c ffc4 	movem.l -60(a5),d2-d4/a2/a6
     388:	4e5d           	unlk a5
     38a:	4e75           	rts
     38c:	2079 0000 0000 	movea.l 0 _start,a0
			38e: RELOC32	.bss
     392:	2008           	move.l a0,d0

00000394 _cint_:
     394:	670a           	beq.s 3a0 _cint_+0xc
     396:	2f02           	move.l d2,-(sp)
     398:	4e90           	jsr (a0)
     39a:	588f           	addq.l #4,sp
     39c:	4a40           	tst.w d0
     39e:	66e2           	bne.s 382 _int_+0xc
     3a0:	2f02           	move.l d2,-(sp)
     3a2:	4eb9           	.short 0x4eb9

000003a4 _SYSTEM:
     3a4:	0000 03f0      	ori.b #-16,d0
			3a4: RELOC32	.text
     3a8:	2c79 0000 0004 	movea.l 4 _start+0x4,a6
			3aa: RELOC32	.bss
     3ae:	2239 0000 0050 	move.l 50 __aqb_read2+0x10,d1
			3b0: RELOC32	.bss
     3b4:	2600           	move.l d0,d3

000003b6 _FRE_:
     3b6:	4eae ffd0      	jsr -48(a6)
     3ba:	588f           	addq.l #4,sp
     3bc:	4ced 441c ffc4 	movem.l -60(a5),d2-d4/a2/a6
     3c2:	4e5d           	unlk a5
     3c4:	4e75           	rts
     3c6:	4878 0034      	pea 34 ___umodsi4+0x4
     3ca:	4eb9 0000 011e 	jsr 11e _ERROR
			3cc: RELOC32	.text
     3d0:	4ced 441c ffc4 	movem.l -60(a5),d2-d4/a2/a6
     3d6:	4e5d           	unlk a5
     3d8:	4e75           	rts

000003da __aio_puts1:
     3da:	4e55 ffd8      	link.w a5,#-40
     3de:	48e7 3822      	movem.l d2-d4/a2/a6,-(sp)
     3e2:	282d 0008      	move.l 8(a5),d4
     3e6:	4878 000a      	pea a ___mulsi4+0x4
     3ea:	74d8           	moveq #-40,d2

000003ec _clng_:
     3ec:	d48d           	add.l a5,d2
     3ee:	2f02           	move.l d2,-(sp)

000003f0 _LEN_:
     3f0:	7000           	moveq #0,d0
     3f2:	102d 000f      	move.b 15(a5),d0
     3f6:	2f00           	move.l d0,-(sp)
     3f8:	4eb9 0000 0142 	jsr 142 __astr_itoa
			3fa: RELOC32	.text
     3fe:	4fef 000c      	lea 12(sp),sp
     402:	4a44           	tst.w d4
     404:	6740           	beq.s 446 ___aqb_intdiv_single+0x2
     406:	0c44           	Address 0x0000000000000408 is out of bounds.
.short 0x0c44

00000408 _CHR_:
     408:	000f           	.short 0x000f
     40a:	6274           	bhi.s 480 _ASC_+0x26
     40c:	7600           	moveq #0,d3

0000040e _WINDOW_CLOSE:
     40e:	3604           	move.w d4,d3
     410:	45f9 0000 0010 	lea 10 __aqb_read1,a2
			412: RELOC32	.bss
     416:	e58b           	lsl.l #2,d3
     418:	4ab2 3800      	tst.l (0,a2,d3.l)

0000041c __debug_putu1:
     41c:	6762           	beq.s 480 _ASC_+0x26
     41e:	2f02           	move.l d2,-(sp)
     420:	4eb9 0000 03f0 	jsr 3f0 _LEN_
			422: RELOC32	.text
     426:	2072 3800      	movea.l (0,a2,d3.l),a0

0000042a _TIMER_ON:
     42a:	2c79 0000 0004 	movea.l 4 _start+0x4,a6
			42c: RELOC32	.bss
     430:	2228 0004      	move.l 4(a0),d1
     434:	2600           	move.l d0,d3
     436:	4eae ffd0      	jsr -48(a6)
     43a:	588f           	addq.l #4,sp
     43c:	4ced 441c ffc4 	movem.l -60(a5),d2-d4/a2/a6
     442:	4e5d           	unlk a5

00000444 ___aqb_intdiv_single:
     444:	4e75           	rts
     446:	2079 0000 0000 	movea.l 0 _start,a0
			448: RELOC32	.bss
     44c:	2008           	move.l a0,d0
     44e:	670a           	beq.s 45a _ASC_
     450:	2f02           	move.l d2,-(sp)
     452:	4e90           	jsr (a0)
     454:	588f           	addq.l #4,sp
     456:	4a40           	tst.w d0
     458:	66e2           	bne.s 43c _TIMER_ON+0x12

0000045a _ASC_:
     45a:	2f02           	move.l d2,-(sp)
     45c:	4eb9 0000 03f0 	jsr 3f0 _LEN_
			45e: RELOC32	.text
     462:	2c79 0000 0004 	movea.l 4 _start+0x4,a6
			464: RELOC32	.bss
     468:	2239 0000 0050 	move.l 50 __aqb_read2+0x10,d1
			46a: RELOC32	.bss
     46e:	2600           	move.l d0,d3
     470:	4eae ffd0      	jsr -48(a6)
     474:	588f           	addq.l #4,sp
     476:	4ced 441c ffc4 	movem.l -60(a5),d2-d4/a2/a6
     47c:	4e5d           	unlk a5
     47e:	4e75           	rts
     480:	4878 0034      	pea 34 ___umodsi4+0x4

00000484 _POKE:
     484:	4eb9 0000 011e 	jsr 11e _ERROR
			486: RELOC32	.text
     48a:	4ced 441c ffc4 	movem.l -60(a5),d2-d4/a2/a6
     490:	4e5d           	unlk a5

00000492 _MID_:
     492:	4e75           	rts

00000494 _POKEW:
     494:	4e55 ffd8      	link.w a5,#-40
     498:	48e7 3822      	movem.l d2-d4/a2/a6,-(sp)
     49c:	282d 0008      	move.l 8(a5),d4
     4a0:	4878 000a      	pea a ___mulsi4+0x4

000004a4 _POKEL:
     4a4:	74d8           	moveq #-40,d2
     4a6:	d48d           	add.l a5,d2
     4a8:	2f02           	move.l d2,-(sp)
     4aa:	2f2d 000c      	move.l 12(a5),-(sp)
     4ae:	4eb9           	.short 0x4eb9
	...
			4b0: RELOC32	.text

000004b2 __window_add_close_cb:
     4b2:	0330           	.short 0x0330

000004b4 _PEEK_:
     4b4:	4fef 000c      	lea 12(sp),sp
     4b8:	4a44           	tst.w d4
     4ba:	6740           	beq.s 4fc __debug_putu2+0x4
     4bc:	0c44 000f      	cmpi.w #15,d4
     4c0:	6274           	bhi.s 536 ___aqb_shl_single+0x28

000004c2 _PEEKW_:
     4c2:	7600           	moveq #0,d3
     4c4:	3604           	move.w d4,d3
     4c6:	45f9 0000 0010 	lea 10 __aqb_read1,a2
			4c8: RELOC32	.bss
     4cc:	e58b           	lsl.l #2,d3
     4ce:	4ab2           	.short 0x4ab2

000004d0 _PEEKL_:
     4d0:	3800           	move.w d0,d4
     4d2:	6762           	beq.s 536 ___aqb_shl_single+0x28
     4d4:	2f02           	move.l d2,-(sp)
     4d6:	4eb9 0000 03f0 	jsr 3f0 _LEN_
			4d8: RELOC32	.text
     4dc:	2072           	.short 0x2072

000004de __autil_create_port:
     4de:	3800           	move.w d0,d4
     4e0:	2c79 0000 0004 	movea.l 4 _start+0x4,a6
			4e2: RELOC32	.bss
     4e6:	2228 0004      	move.l 4(a0),d1
     4ea:	2600           	move.l d0,d3
     4ec:	4eae ffd0      	jsr -48(a6)
     4f0:	588f           	addq.l #4,sp
     4f2:	4ced 441c ffc4 	movem.l -60(a5),d2-d4/a2/a6

000004f8 __debug_putu2:
     4f8:	4e5d           	unlk a5
     4fa:	4e75           	rts
     4fc:	2079           	.short 0x2079
	...
			4fe: RELOC32	.bss

00000500 __window_add_msg_cb:
     500:	0000 2008      	ori.b #8,d0
     504:	670a           	beq.s 510 ___aqb_shl_single+0x2
     506:	2f02           	move.l d2,-(sp)
     508:	4e90           	jsr (a0)
     50a:	588f           	addq.l #4,sp
     50c:	4a40           	tst.w d0

0000050e ___aqb_shl_single:
     50e:	66e2           	bne.s 4f2 __autil_create_port+0x14
     510:	2f02           	move.l d2,-(sp)
     512:	4eb9 0000 03f0 	jsr 3f0 _LEN_
			514: RELOC32	.text
     518:	2c79 0000 0004 	movea.l 4 _start+0x4,a6
			51a: RELOC32	.bss
     51e:	2239 0000 0050 	move.l 50 __aqb_read2+0x10,d1
			520: RELOC32	.bss
     524:	2600           	move.l d0,d3
     526:	4eae ffd0      	jsr -48(a6)
     52a:	588f           	addq.l #4,sp
     52c:	4ced 441c ffc4 	movem.l -60(a5),d2-d4/a2/a6
     532:	4e5d           	unlk a5
     534:	4e75           	rts
     536:	4878 0034      	pea 34 ___umodsi4+0x4
     53a:	4eb9 0000 011e 	jsr 11e _ERROR
			53c: RELOC32	.text
     540:	4ced 441c ffc4 	movem.l -60(a5),d2-d4/a2/a6
     546:	4e5d           	unlk a5
     548:	4e75           	rts

0000054a __aio_putu2:
     54a:	4e55 ffd8      	link.w a5,#-40

0000054e _WINDOW_OUTPUT:
     54e:	48e7 3822      	movem.l d2-d4/a2/a6,-(sp)
     552:	282d 0008      	move.l 8(a5),d4
     556:	4878 000a      	pea a ___mulsi4+0x4
     55a:	74d8           	moveq #-40,d2
     55c:	d48d           	add.l a5,d2
     55e:	2f02           	move.l d2,-(sp)
     560:	7000           	moveq #0,d0
     562:	302d           	.short 0x302d

00000564 _TIMER_OFF:
     564:	000e           	.short 0x000e
     566:	2f00           	move.l d0,-(sp)
     568:	4eb9 0000 0330 	jsr 330 __astr_utoa
			56a: RELOC32	.text

0000056e _UCASE_:
     56e:	4fef 000c      	lea 12(sp),sp

00000572 __autil_delete_port:
     572:	4a44           	tst.w d4
     574:	6740           	beq.s 5b6 __autil_create_ext_io+0xc
     576:	0c44 000f      	cmpi.w #15,d4
     57a:	6274           	bhi.s 5f0 __debug_putu4+0x1c
     57c:	7600           	moveq #0,d3
     57e:	3604           	move.w d4,d3
     580:	45f9 0000 0010 	lea 10 __aqb_read1,a2
			582: RELOC32	.bss
     586:	e58b           	lsl.l #2,d3
     588:	4ab2 3800      	tst.l (0,a2,d3.l)
     58c:	6762           	beq.s 5f0 __debug_putu4+0x1c
     58e:	2f02           	move.l d2,-(sp)
     590:	4eb9 0000 03f0 	jsr 3f0 _LEN_
			592: RELOC32	.text
     596:	2072 3800      	movea.l (0,a2,d3.l),a0
     59a:	2c79 0000 0004 	movea.l 4 _start+0x4,a6
			59c: RELOC32	.bss
     5a0:	2228 0004      	move.l 4(a0),d1
     5a4:	2600           	move.l d0,d3
     5a6:	4eae ffd0      	jsr -48(a6)

000005aa __autil_create_ext_io:
     5aa:	588f           	addq.l #4,sp
     5ac:	4ced 441c ffc4 	movem.l -60(a5),d2-d4/a2/a6
     5b2:	4e5d           	unlk a5
     5b4:	4e75           	rts
     5b6:	2079 0000 0000 	movea.l 0 _start,a0
			5b8: RELOC32	.bss
     5bc:	2008           	move.l a0,d0

000005be ___aqb_shr_single:
     5be:	670a           	beq.s 5ca ___aqb_shr_single+0xc
     5c0:	2f02           	move.l d2,-(sp)
     5c2:	4e90           	jsr (a0)
     5c4:	588f           	addq.l #4,sp
     5c6:	4a40           	tst.w d0
     5c8:	66e2           	bne.s 5ac __autil_create_ext_io+0x2
     5ca:	2f02           	move.l d2,-(sp)
     5cc:	4eb9 0000 03f0 	jsr 3f0 _LEN_
			5ce: RELOC32	.text
     5d2:	2c79           	.short 0x2c79

000005d4 __debug_putu4:
     5d4:	0000 0004      	ori.b #4,d0
			5d4: RELOC32	.bss
     5d8:	2239 0000 0050 	move.l 50 __aqb_read2+0x10,d1
			5da: RELOC32	.bss
     5de:	2600           	move.l d0,d3
     5e0:	4eae ffd0      	jsr -48(a6)
     5e4:	588f           	addq.l #4,sp
     5e6:	4ced 441c ffc4 	movem.l -60(a5),d2-d4/a2/a6
     5ec:	4e5d           	unlk a5
     5ee:	4e75           	rts
     5f0:	4878 0034      	pea 34 ___umodsi4+0x4

000005f4 __autil_create_std_io:
     5f4:	4eb9           	.short 0x4eb9
	...
			5f6: RELOC32	.text

000005f8 _WAVE_:
     5f8:	011e           	btst d0,(a6)+
     5fa:	4ced           	Address 0x00000000000005fc is out of bounds.
.short 0x4ced

000005fc __awindow_shutdown:
     5fc:	441c           	neg.b (a4)+
     5fe:	ffc4           	.short 0xffc4
     600:	4e5d           	unlk a5
     602:	4e75           	rts

00000604 __aio_putu1:
     604:	4e55 ffd8      	link.w a5,#-40
     608:	48e7 3822      	movem.l d2-d4/a2/a6,-(sp)
     60c:	282d 0008      	move.l 8(a5),d4
     610:	4878 000a      	pea a ___mulsi4+0x4
     614:	74d8           	moveq #-40,d2
     616:	d48d           	add.l a5,d2
     618:	2f02           	move.l d2,-(sp)

0000061a _LCASE_:
     61a:	7000           	moveq #0,d0
     61c:	102d 000f      	move.b 15(a5),d0
     620:	2f00           	move.l d0,-(sp)
     622:	4eb9 0000 0330 	jsr 330 __astr_utoa
			624: RELOC32	.text
     628:	4fef 000c      	lea 12(sp),sp
     62c:	4a44           	tst.w d4
     62e:	6740           	beq.s 670 ___aqb_xor_single+0x2
     630:	0c44 000f      	cmpi.w #15,d4
     634:	6274           	bhi.s 6aa __autil_shutdown+0x6
     636:	7600           	moveq #0,d3
     638:	3604           	move.w d4,d3

0000063a __autil_delete_ext_io:
     63a:	45f9 0000 0010 	lea 10 __aqb_read1,a2
			63c: RELOC32	.bss
     640:	e58b           	lsl.l #2,d3
     642:	4ab2 3800      	tst.l (0,a2,d3.l)
     646:	6762           	beq.s 6aa __autil_shutdown+0x6
     648:	2f02           	move.l d2,-(sp)
     64a:	4eb9 0000 03f0 	jsr 3f0 _LEN_
			64c: RELOC32	.text
     650:	2072 3800      	movea.l (0,a2,d3.l),a0
     654:	2c79 0000 0004 	movea.l 4 _start+0x4,a6
			656: RELOC32	.bss
     65a:	2228 0004      	move.l 4(a0),d1
     65e:	2600           	move.l d0,d3
     660:	4eae ffd0      	jsr -48(a6)
     664:	588f           	addq.l #4,sp
     666:	4ced           	Address 0x0000000000000668 is out of bounds.
.short 0x4ced

00000668 __autil_begin_io:
     668:	441c           	neg.b (a4)+
     66a:	ffc4           	.short 0xffc4
     66c:	4e5d           	unlk a5

0000066e ___aqb_xor_single:
     66e:	4e75           	rts
     670:	2079 0000 0000 	movea.l 0 _start,a0
			672: RELOC32	.bss
     676:	2008           	move.l a0,d0
     678:	670a           	beq.s 684 __autil_init+0x4
     67a:	2f02           	move.l d2,-(sp)
     67c:	4e90           	jsr (a0)
     67e:	588f           	addq.l #4,sp

00000680 __autil_init:
     680:	4a40           	tst.w d0
     682:	66e2           	bne.s 666 __autil_delete_ext_io+0x2c
     684:	2f02           	move.l d2,-(sp)
     686:	4eb9 0000 03f0 	jsr 3f0 _LEN_
			688: RELOC32	.text
     68c:	2c79 0000 0004 	movea.l 4 _start+0x4,a6
			68e: RELOC32	.bss
     692:	2239 0000 0050 	move.l 50 __aqb_read2+0x10,d1
			694: RELOC32	.bss
     698:	2600           	move.l d0,d3
     69a:	4eae ffd0      	jsr -48(a6)
     69e:	588f           	addq.l #4,sp
     6a0:	4ced           	.short 0x4ced
     6a2:	441c           	neg.b (a4)+

000006a4 __autil_shutdown:
     6a4:	ffc4           	.short 0xffc4
     6a6:	4e5d           	unlk a5
     6a8:	4e75           	rts
     6aa:	4878           	.short 0x4878

000006ac __debug_putf:
     6ac:	0034 4eb9 0000 	ori.b #-71,(0,a4,d0.w)
			6b0: RELOC32	.text
     6b2:	011e           	btst d0,(a6)+
     6b4:	4ced 441c ffc4 	movem.l -60(a5),d2-d4/a2/a6
     6ba:	4e5d           	unlk a5
     6bc:	4e75           	rts

000006be __aio_puthex:
     6be:	4e55 ffd8      	link.w a5,#-40
     6c2:	48e7 3822      	movem.l d2-d4/a2/a6,-(sp)

000006c6 _LEFT_:
     6c6:	282d 0008      	move.l 8(a5),d4
     6ca:	4878 0010      	pea 10 __aqb_read1
     6ce:	74d8           	moveq #-40,d2
     6d0:	d48d           	add.l a5,d2
     6d2:	2f02           	move.l d2,-(sp)
     6d4:	2f2d 000c      	move.l 12(a5),-(sp)
     6d8:	4eb9 0000 0142 	jsr 142 __astr_itoa
			6da: RELOC32	.text
     6de:	4fef 000c      	lea 12(sp),sp
     6e2:	4a44           	tst.w d4
     6e4:	6740           	beq.s 726 ___aqb_eqv_single+0xc
     6e6:	0c44           	Address 0x00000000000006e8 is out of bounds.
.short 0x0c44

000006e8 _WAVE_FREE:
     6e8:	000f           	.short 0x000f
     6ea:	6274           	bhi.s 760 _RIGHT_
     6ec:	7600           	moveq #0,d3
     6ee:	3604           	move.w d4,d3
     6f0:	45f9 0000 0010 	lea 10 __aqb_read1,a2
			6f2: RELOC32	.bss
     6f6:	e58b           	lsl.l #2,d3
     6f8:	4ab2 3800      	tst.l (0,a2,d3.l)
     6fc:	6762           	beq.s 760 _RIGHT_
     6fe:	2f02           	move.l d2,-(sp)
     700:	4eb9 0000 03f0 	jsr 3f0 _LEN_
			702: RELOC32	.text
     706:	2072 3800      	movea.l (0,a2,d3.l),a0
     70a:	2c79 0000 0004 	movea.l 4 _start+0x4,a6
			70c: RELOC32	.bss
     710:	2228 0004      	move.l 4(a0),d1
     714:	2600           	move.l d0,d3
     716:	4eae ffd0      	jsr -48(a6)

0000071a ___aqb_eqv_single:
     71a:	588f           	addq.l #4,sp
     71c:	4ced 441c ffc4 	movem.l -60(a5),d2-d4/a2/a6
     722:	4e5d           	unlk a5
     724:	4e75           	rts
     726:	2079 0000 0000 	movea.l 0 _start,a0
			728: RELOC32	.bss
     72c:	2008           	move.l a0,d0
     72e:	670a           	beq.s 73a ___aqb_eqv_single+0x20
     730:	2f02           	move.l d2,-(sp)
     732:	4e90           	jsr (a0)
     734:	588f           	addq.l #4,sp
     736:	4a40           	tst.w d0
     738:	66e2           	bne.s 71c ___aqb_eqv_single+0x2
     73a:	2f02           	move.l d2,-(sp)
     73c:	4eb9 0000 03f0 	jsr 3f0 _LEN_
			73e: RELOC32	.text
     742:	2c79           	.short 0x2c79
	...
			744: RELOC32	.bss

00000746 _WAVE:
     746:	0004 2239      	ori.b #57,d4
     74a:	0000 0050      	ori.b #80,d0
			74a: RELOC32	.bss
     74e:	2600           	move.l d0,d3
     750:	4eae ffd0      	jsr -48(a6)
     754:	588f           	addq.l #4,sp
     756:	4ced 441c ffc4 	movem.l -60(a5),d2-d4/a2/a6
     75c:	4e5d           	unlk a5
     75e:	4e75           	rts

00000760 _RIGHT_:
     760:	4878 0034      	pea 34 ___umodsi4+0x4
     764:	4eb9 0000 011e 	jsr 11e _ERROR
			766: RELOC32	.text
     76a:	4ced 441c ffc4 	movem.l -60(a5),d2-d4/a2/a6
     770:	4e5d           	unlk a5
     772:	4e75           	rts

00000774 __aio_putbin:
     774:	4e55 ffd8      	link.w a5,#-40
     778:	48e7           	Address 0x000000000000077a is out of bounds.
.short 0x48e7

0000077a _SOUND_WAIT:
     77a:	3822           	move.w -(a2),d4
     77c:	282d 0008      	move.l 8(a5),d4
     780:	4878 0002      	pea 2 _start+0x2
     784:	74d8           	moveq #-40,d2
     786:	d48d           	add.l a5,d2
     788:	2f02           	move.l d2,-(sp)

0000078a __debug_putbool:
     78a:	2f2d 000c      	move.l 12(a5),-(sp)
     78e:	4eb9 0000 0142 	jsr 142 __astr_itoa
			790: RELOC32	.text
     794:	4fef 000c      	lea 12(sp),sp
     798:	4a44           	tst.w d4
     79a:	6740           	beq.s 7dc ___aqb_imp_single+0x12
     79c:	0c44 000f      	cmpi.w #15,d4
     7a0:	6274           	bhi.s 816 ___aqb_imp_single+0x4c
     7a2:	7600           	moveq #0,d3
     7a4:	3604           	move.w d4,d3
     7a6:	45f9 0000 0010 	lea 10 __aqb_read1,a2
			7a8: RELOC32	.bss
     7ac:	e58b           	lsl.l #2,d3
     7ae:	4ab2 3800      	tst.l (0,a2,d3.l)
     7b2:	6762           	beq.s 816 ___aqb_imp_single+0x4c
     7b4:	2f02           	move.l d2,-(sp)
     7b6:	4eb9 0000 03f0 	jsr 3f0 _LEN_
			7b8: RELOC32	.text
     7bc:	2072 3800      	movea.l (0,a2,d3.l),a0
     7c0:	2c79 0000 0004 	movea.l 4 _start+0x4,a6
			7c2: RELOC32	.bss
     7c6:	2228 0004      	move.l 4(a0),d1

000007ca ___aqb_imp_single:
     7ca:	2600           	move.l d0,d3
     7cc:	4eae ffd0      	jsr -48(a6)
     7d0:	588f           	addq.l #4,sp
     7d2:	4ced 441c ffc4 	movem.l -60(a5),d2-d4/a2/a6
     7d8:	4e5d           	unlk a5
     7da:	4e75           	rts
     7dc:	2079 0000 0000 	movea.l 0 _start,a0
			7de: RELOC32	.bss
     7e2:	2008           	move.l a0,d0
     7e4:	670a           	beq.s 7f0 ___aqb_imp_single+0x26
     7e6:	2f02           	move.l d2,-(sp)
     7e8:	4e90           	jsr (a0)
     7ea:	588f           	addq.l #4,sp
     7ec:	4a40           	tst.w d0
     7ee:	66e2           	bne.s 7d2 ___aqb_imp_single+0x8
     7f0:	2f02           	move.l d2,-(sp)
     7f2:	4eb9 0000 03f0 	jsr 3f0 _LEN_
			7f4: RELOC32	.text
     7f8:	2c79 0000 0004 	movea.l 4 _start+0x4,a6
			7fa: RELOC32	.bss
     7fe:	2239 0000 0050 	move.l 50 __aqb_read2+0x10,d1
			800: RELOC32	.bss
     804:	2600           	move.l d0,d3
     806:	4eae ffd0      	jsr -48(a6)
     80a:	588f           	addq.l #4,sp
     80c:	4ced 441c ffc4 	movem.l -60(a5),d2-d4/a2/a6
     812:	4e5d           	unlk a5
     814:	4e75           	rts
     816:	4878 0034      	pea 34 ___umodsi4+0x4
     81a:	4eb9 0000 011e 	jsr 11e _ERROR
			81c: RELOC32	.text
     820:	4ced 441c ffc4 	movem.l -60(a5),d2-d4/a2/a6
     826:	4e5d           	unlk a5

00000828 __aqb_get_output:
     828:	4e75           	rts

0000082a __aio_putuhex:
     82a:	4e55 ffd8      	link.w a5,#-40
     82e:	48e7 3022      	movem.l d2-d3/a2/a6,-(sp)
     832:	206d 0008      	movea.l 8(a5),a0
     836:	202d 000c      	move.l 12(a5),d0
     83a:	3408           	move.w a0,d2
     83c:	2200           	move.l d0,d1
     83e:	761c           	moveq #28,d3
     840:	e6a9           	lsr.l d3,d1
     842:	7609           	moveq #9,d3
     844:	b681           	cmp.l d1,d3
     846:	6400 01c4      	bcc.w a0c __astr_ftoa_ext+0x8
     84a:	0601 0057      	addi.b #87,d1
     84e:	1b41 ffd8      	move.b d1,-40(a5)

00000852 __astr_strstr:
     852:	2200           	move.l d0,d1
     854:	4241           	clr.w d1
     856:	4841           	swap d1
     858:	e049           	lsr.w #8,d1
     85a:	760f           	moveq #15,d3
     85c:	c283           	and.l d3,d1
     85e:	7609           	moveq #9,d3
     860:	b681           	cmp.l d1,d3
     862:	6400 019c      	bcc.w a00 _LINE+0x2c

00000866 __debug_puttab:
     866:	0601 0057      	addi.b #87,d1
     86a:	1b41 ffd9      	move.b d1,-39(a5)
     86e:	2200           	move.l d0,d1
     870:	4241           	clr.w d1
     872:	4841           	swap d1
     874:	e849           	lsr.w #4,d1
     876:	760f           	moveq #15,d3
     878:	c283           	and.l d3,d1

0000087a ___aqb_not_single:
     87a:	7609           	moveq #9,d3
     87c:	b681           	cmp.l d1,d3
     87e:	6400 0174      	bcc.w 9f4 _LINE+0x20
     882:	0601 0057      	addi.b #87,d1
     886:	1b41           	.short 0x1b41

00000888 _INSTR_:
     888:	ffda           	.short 0xffda
     88a:	2200           	move.l d0,d1
     88c:	4241           	clr.w d1
     88e:	4841           	swap d1
     890:	760f           	moveq #15,d3
     892:	c283           	and.l d3,d1
     894:	7609           	moveq #9,d3
     896:	b681           	cmp.l d1,d3
     898:	6400 0104      	bcc.w 99e ___aqb_or_single+0x14
     89c:	0601 0057      	addi.b #87,d1
     8a0:	1b41 ffdb      	move.b d1,-37(a5)
     8a4:	2200           	move.l d0,d1
     8a6:	760c           	moveq #12,d3
     8a8:	e6a9           	lsr.l d3,d1
     8aa:	760f           	moveq #15,d3
     8ac:	c283           	and.l d3,d1
     8ae:	7609           	moveq #9,d3
     8b0:	b681           	cmp.l d1,d3
     8b2:	6400 0104      	bcc.w 9b8 ___astr_concat+0x18
     8b6:	0601 0057      	addi.b #87,d1
     8ba:	1b41 ffdc      	move.b d1,-36(a5)
     8be:	2200           	move.l d0,d1
     8c0:	e089           	lsr.l #8,d1
     8c2:	760f           	moveq #15,d3
     8c4:	c283           	and.l d3,d1
     8c6:	7609           	moveq #9,d3
     8c8:	b681           	cmp.l d1,d3
     8ca:	6400 0104      	bcc.w 9d0 __debug_cls+0x12
     8ce:	0601 0057      	addi.b #87,d1
     8d2:	1b41 ffdd      	move.b d1,-35(a5)
     8d6:	2200           	move.l d0,d1
     8d8:	e889           	lsr.l #4,d1
     8da:	760f           	moveq #15,d3
     8dc:	c283           	and.l d3,d1

000008de ___aqb_and_single:
     8de:	7609           	moveq #9,d3
     8e0:	b681           	cmp.l d1,d3
     8e2:	6400 0104      	bcc.w 9e8 _LINE+0x14
     8e6:	0601 0057      	addi.b #87,d1
     8ea:	1b41 ffde      	move.b d1,-34(a5)
     8ee:	720f           	moveq #15,d1
     8f0:	c081           	and.l d1,d0
     8f2:	7209           	moveq #9,d1

000008f4 __aqb_get_win:
     8f4:	b280           	cmp.l d0,d1
     8f6:	6558           	bcs.s 950 __astr_dup+0x2e
     8f8:	0600 0030      	addi.b #48,d0
     8fc:	1b40 ffdf      	move.b d0,-33(a5)
     900:	422d ffe0      	clr.b -32(a5)
     904:	4a42           	tst.w d2
     906:	6758           	beq.s 960 __astr_dup+0x3e
     908:	0c42 000f      	cmpi.w #15,d2
     90c:	6200 010a      	bhi.w a18 __astr_ftoa_ext+0x14
     910:	7600           	moveq #0,d3

00000912 __debug_putnl:
     912:	3608           	move.w a0,d3
     914:	45f9 0000 0010 	lea 10 __aqb_read1,a2
			916: RELOC32	.bss
     91a:	e58b           	lsl.l #2,d3
     91c:	4ab2 3800      	tst.l (0,a2,d3.l)
     920:	6700           	.short 0x6700

00000922 __astr_dup:
     922:	00f6           	.short 0x00f6
     924:	74d8           	moveq #-40,d2
     926:	d48d           	add.l a5,d2
     928:	2f02           	move.l d2,-(sp)
     92a:	4eb9 0000 03f0 	jsr 3f0 _LEN_
			92c: RELOC32	.text
     930:	2072 3800      	movea.l (0,a2,d3.l),a0
     934:	2c79 0000 0004 	movea.l 4 _start+0x4,a6
			936: RELOC32	.bss
     93a:	2228 0004      	move.l 4(a0),d1
     93e:	2600           	move.l d0,d3
     940:	4eae ffd0      	jsr -48(a6)
     944:	588f           	addq.l #4,sp
     946:	4ced 440c ffc8 	movem.l -56(a5),d2-d3/a2/a6
     94c:	4e5d           	unlk a5
     94e:	4e75           	rts
     950:	0600 0057      	addi.b #87,d0
     954:	1b40 ffdf      	move.b d0,-33(a5)
     958:	422d ffe0      	clr.b -32(a5)
     95c:	4a42           	tst.w d2
     95e:	66a8           	bne.s 908 __aqb_get_win+0x14
     960:	74d8           	moveq #-40,d2
     962:	2079 0000 0000 	movea.l 0 _start,a0
			964: RELOC32	.bss

00000968 ___astr_cmp:
     968:	d48d           	add.l a5,d2
     96a:	2008           	move.l a0,d0
     96c:	670a           	beq.s 978 ___astr_cmp+0x10
     96e:	2f02           	move.l d2,-(sp)
     970:	4e90           	jsr (a0)
     972:	588f           	addq.l #4,sp
     974:	4a40           	tst.w d0
     976:	66ce           	bne.s 946 __astr_dup+0x24
     978:	2f02           	move.l d2,-(sp)
     97a:	4eb9 0000 03f0 	jsr 3f0 _LEN_
			97c: RELOC32	.text
     980:	2c79 0000 0004 	movea.l 4 _start+0x4,a6
			982: RELOC32	.bss
     986:	2239           	.short 0x2239
	...
			988: RELOC32	.bss

0000098a ___aqb_or_single:
     98a:	0050 2600      	ori.w #9728,(a0)
     98e:	4eae ffd0      	jsr -48(a6)
     992:	588f           	addq.l #4,sp
     994:	4ced 440c ffc8 	movem.l -56(a5),d2-d3/a2/a6
     99a:	4e5d           	unlk a5
     99c:	4e75           	rts
     99e:	0601           	Address 0x00000000000009a0 is out of bounds.
.short 0x0601

000009a0 ___astr_concat:
     9a0:	0030 1b41 ffdb 	ori.b #65,([0],570455564)
     9a6:	2200 760c 
     9aa:	e6a9           	lsr.l d3,d1
     9ac:	760f           	moveq #15,d3
     9ae:	c283           	and.l d3,d1
     9b0:	7609           	moveq #9,d3
     9b2:	b681           	cmp.l d1,d3
     9b4:	6500 ff00      	bcs.w 8b6 _INSTR_+0x2e
     9b8:	0601 0030      	addi.b #48,d1
     9bc:	1b41           	.short 0x1b41

000009be __debug_cls:
     9be:	ffdc           	.short 0xffdc
     9c0:	2200           	move.l d0,d1
     9c2:	e089           	lsr.l #8,d1
     9c4:	760f           	moveq #15,d3
     9c6:	c283           	and.l d3,d1
     9c8:	7609           	moveq #9,d3
     9ca:	b681           	cmp.l d1,d3
     9cc:	6500 ff00      	bcs.w 8ce _INSTR_+0x46
     9d0:	0601 0030      	addi.b #48,d1

000009d4 _LINE:
     9d4:	1b41 ffdd      	move.b d1,-35(a5)
     9d8:	2200           	move.l d0,d1
     9da:	e889           	lsr.l #4,d1
     9dc:	760f           	moveq #15,d3
     9de:	c283           	and.l d3,d1
     9e0:	7609           	moveq #9,d3
     9e2:	b681           	cmp.l d1,d3
     9e4:	6500 ff00      	bcs.w 8e6 ___aqb_and_single+0x8
     9e8:	0601 0030      	addi.b #48,d1
     9ec:	1b41 ffde      	move.b d1,-34(a5)
     9f0:	6000 fefc      	bra.w 8ee ___aqb_and_single+0x10
     9f4:	0601 0030      	addi.b #48,d1
     9f8:	1b41 ffda      	move.b d1,-38(a5)
     9fc:	6000 fe8c      	bra.w 88a _INSTR_+0x2
     a00:	0601 0030      	addi.b #48,d1

00000a04 __astr_ftoa_ext:
     a04:	1b41 ffd9      	move.b d1,-39(a5)
     a08:	6000 fe64      	bra.w 86e __debug_puttab+0x8
     a0c:	0601 0030      	addi.b #48,d1
     a10:	1b41 ffd8      	move.b d1,-40(a5)
     a14:	6000 fe3c      	bra.w 852 __astr_strstr
     a18:	4878 0034      	pea 34 ___umodsi4+0x4
     a1c:	4eb9 0000 011e 	jsr 11e _ERROR
			a1e: RELOC32	.text
     a22:	4ced 440c ffc8 	movem.l -56(a5),d2-d3/a2/a6
     a28:	4e5d           	unlk a5
     a2a:	4e75           	rts

00000a2c __aio_putf:
     a2c:	4e55 ffd8      	link.w a5,#-40
     a30:	48e7 3822      	movem.l d2-d4/a2/a6,-(sp)
     a34:	282d           	.short 0x282d

00000a36 ___floatsisf:
     a36:	0008           	.short 0x0008
     a38:	74d8           	moveq #-40,d2
     a3a:	d48d           	add.l a5,d2
     a3c:	2f02           	move.l d2,-(sp)
     a3e:	2f2d 000c      	move.l 12(a5),-(sp)
     a42:	4eb9 0000 12a8 	jsr 12a8 __astr_ftoa
			a44: RELOC32	.text
     a48:	508f           	addq.l #8,sp
     a4a:	4a44           	tst.w d4
     a4c:	6740           	beq.s a8e ___divsf3+0x2
     a4e:	0c44           	Address 0x0000000000000a50 is out of bounds.
.short 0x0c44

00000a50 ___gtsf2:
     a50:	000f           	.short 0x000f
     a52:	6274           	bhi.s ac8 ___subsf3
     a54:	7600           	moveq #0,d3
     a56:	3604           	move.w d4,d3
     a58:	45f9 0000 0010 	lea 10 __aqb_read1,a2
			a5a: RELOC32	.bss
     a5e:	e58b           	lsl.l #2,d3
     a60:	4ab2 3800      	tst.l (0,a2,d3.l)
     a64:	6762           	beq.s ac8 ___subsf3
     a66:	2f02           	move.l d2,-(sp)
     a68:	4eb9           	.short 0x4eb9

00000a6a __debug_break:
     a6a:	0000 03f0      	ori.b #-16,d0
			a6a: RELOC32	.text

00000a6e ___mulsf3:
     a6e:	2072 3800      	movea.l (0,a2,d3.l),a0
     a72:	2c79           	.short 0x2c79

00000a74 _ON_EXIT_CALL:
     a74:	0000 0004      	ori.b #4,d0
			a74: RELOC32	.bss
     a78:	2228 0004      	move.l 4(a0),d1
     a7c:	2600           	move.l d0,d3
     a7e:	4eae ffd0      	jsr -48(a6)
     a82:	588f           	addq.l #4,sp
     a84:	4ced 441c ffc4 	movem.l -60(a5),d2-d4/a2/a6
     a8a:	4e5d           	unlk a5

00000a8c ___divsf3:
     a8c:	4e75           	rts
     a8e:	2079 0000 0000 	movea.l 0 _start,a0
			a90: RELOC32	.bss
     a94:	2008           	move.l a0,d0
     a96:	670a           	beq.s aa2 __ctrlc_break+0x2
     a98:	2f02           	move.l d2,-(sp)
     a9a:	4e90           	jsr (a0)
     a9c:	588f           	addq.l #4,sp
     a9e:	4a40           	tst.w d0

00000aa0 __ctrlc_break:
     aa0:	66e2           	bne.s a84 _ON_EXIT_CALL+0x10
     aa2:	2f02           	move.l d2,-(sp)
     aa4:	4eb9 0000 03f0 	jsr 3f0 _LEN_
			aa6: RELOC32	.text

00000aaa _ON_BREAK_CALL:
     aaa:	2c79 0000 0004 	movea.l 4 _start+0x4,a6
			aac: RELOC32	.bss
     ab0:	2239 0000 0050 	move.l 50 __aqb_read2+0x10,d1
			ab2: RELOC32	.bss
     ab6:	2600           	move.l d0,d3
     ab8:	4eae           	.short 0x4eae

00000aba ___handle_break:
     aba:	ffd0           	.short 0xffd0
     abc:	588f           	addq.l #4,sp
     abe:	4ced 441c ffc4 	movem.l -60(a5),d2-d4/a2/a6
     ac4:	4e5d           	unlk a5
     ac6:	4e75           	rts

00000ac8 ___subsf3:
     ac8:	4878 0034      	pea 34 ___umodsi4+0x4
     acc:	4eb9 0000 011e 	jsr 11e _ERROR
			ace: RELOC32	.text
     ad2:	4ced 441c ffc4 	movem.l -60(a5),d2-d4/a2/a6
     ad8:	4e5d           	unlk a5
     ada:	4e75           	rts
     adc:	5452           	addq.w #2,(a2)
     ade:	5545           	subq.w #2,d5
     ae0:	0046 414c      	ori.w #16716,d6
     ae4:	5345           	subq.w #1,d5

00000ae6 ___fixsfsi:
	...

00000ae8 __aio_putbool:
     ae8:	4e55 0000      	link.w a5,#0
     aec:	48e7 3022      	movem.l d2-d3/a2/a6,-(sp)
     af0:	222d 0008      	move.l 8(a5),d1
     af4:	3001           	move.w d1,d0
     af6:	4a6d 000e      	tst.w 14(a5)
     afa:	6600 0098      	bne.w b94 __c_atexit+0x44
     afe:	243c           	.short 0x243c

00000b00 ___ltsf2:
     b00:	0000 0ae1      	ori.b #-31,d0
			b00: RELOC32	.text
     b04:	4a40           	tst.w d0
     b06:	6740           	beq.s b48 _SOUND_STOP+0x28
     b08:	0c40 000f      	cmpi.w #15,d0
     b0c:	6272           	bhi.s b80 __c_atexit+0x30
     b0e:	7600           	moveq #0,d3
     b10:	3601           	move.w d1,d3
     b12:	45f9 0000 0010 	lea 10 __aqb_read1,a2
			b14: RELOC32	.bss
     b18:	e58b           	lsl.l #2,d3
     b1a:	4ab2 3800      	tst.l (0,a2,d3.l)

00000b1e _RND_:
     b1e:	6760           	beq.s b80 __c_atexit+0x30

00000b20 _SOUND_STOP:
     b20:	2f02           	move.l d2,-(sp)
     b22:	4eb9 0000 03f0 	jsr 3f0 _LEN_
			b24: RELOC32	.text
     b28:	2072 3800      	movea.l (0,a2,d3.l),a0
     b2c:	2c79 0000 0004 	movea.l 4 _start+0x4,a6
			b2e: RELOC32	.bss
     b32:	2228 0004      	move.l 4(a0),d1
     b36:	2600           	move.l d0,d3
     b38:	4eae ffd0      	jsr -48(a6)
     b3c:	588f           	addq.l #4,sp
     b3e:	4ced 440c fff0 	movem.l -16(a5),d2-d3/a2/a6
     b44:	4e5d           	unlk a5
     b46:	4e75           	rts
     b48:	2079 0000 0000 	movea.l 0 _start,a0
			b4a: RELOC32	.bss
     b4e:	2008           	move.l a0,d0

00000b50 __c_atexit:
     b50:	670a           	beq.s b5c __c_atexit+0xc
     b52:	2f02           	move.l d2,-(sp)
     b54:	4e90           	jsr (a0)
     b56:	588f           	addq.l #4,sp
     b58:	4a40           	tst.w d0
     b5a:	66e2           	bne.s b3e _SOUND_STOP+0x1e
     b5c:	2f02           	move.l d2,-(sp)
     b5e:	4eb9 0000 03f0 	jsr 3f0 _LEN_
			b60: RELOC32	.text
     b64:	2c79 0000 0004 	movea.l 4 _start+0x4,a6
			b66: RELOC32	.bss
     b6a:	2239 0000 0050 	move.l 50 __aqb_read2+0x10,d1
			b6c: RELOC32	.bss
     b70:	2600           	move.l d0,d3
     b72:	4eae ffd0      	jsr -48(a6)
     b76:	4ced 440c fff0 	movem.l -16(a5),d2-d3/a2/a6
     b7c:	4e5d           	unlk a5
     b7e:	4e75           	rts
     b80:	7034           	moveq #52,d0
     b82:	2b40 0008      	move.l d0,8(a5)
     b86:	4ced 440c fff0 	movem.l -16(a5),d2-d3/a2/a6
     b8c:	4e5d           	unlk a5
     b8e:	4ef9 0000 011e 	jmp 11e _ERROR
			b90: RELOC32	.text
     b94:	243c 0000 0adc 	move.l #2780,d2
			b96: RELOC32	.text

00000b9a _PSET:
     b9a:	6000 ff68      	bra.w b04 ___ltsf2+0x4

00000b9e __aio_writes4:
     b9e:	4e55 ffd8      	link.w a5,#-40
     ba2:	48e7 3822      	movem.l d2-d4/a2/a6,-(sp)
     ba6:	282d 0008      	move.l 8(a5),d4
     baa:	42a7           	clr.l -(sp)
     bac:	4878 000a      	pea a ___mulsi4+0x4
     bb0:	74d8           	moveq #-40,d2
     bb2:	d48d           	add.l a5,d2
     bb4:	2f02           	move.l d2,-(sp)
     bb6:	2f2d 000c      	move.l 12(a5),-(sp)
     bba:	4eb9 0000 0000 	jsr 0 _start
			bbc: RELOC32	.text
     bc0:	4fef 0010      	lea 16(sp),sp
     bc4:	4a44           	tst.w d4
     bc6:	6740           	beq.s c08 __aio_writes4+0x6a
     bc8:	0c44 000f      	cmpi.w #15,d4
     bcc:	6274           	bhi.s c42 __aio_writes4+0xa4
     bce:	7600           	moveq #0,d3
     bd0:	3604           	move.w d4,d3
     bd2:	45f9 0000 0010 	lea 10 __aqb_read1,a2
			bd4: RELOC32	.bss
     bd8:	e58b           	lsl.l #2,d3
     bda:	4ab2 3800      	tst.l (0,a2,d3.l)
     bde:	6762           	beq.s c42 __aio_writes4+0xa4
     be0:	2f02           	move.l d2,-(sp)
     be2:	4eb9 0000 03f0 	jsr 3f0 _LEN_
			be4: RELOC32	.text
     be8:	2072 3800      	movea.l (0,a2,d3.l),a0
     bec:	2c79 0000 0004 	movea.l 4 _start+0x4,a6
			bee: RELOC32	.bss
     bf2:	2228 0004      	move.l 4(a0),d1
     bf6:	2600           	move.l d0,d3
     bf8:	4eae ffd0      	jsr -48(a6)
     bfc:	588f           	addq.l #4,sp
     bfe:	4ced 441c ffc4 	movem.l -60(a5),d2-d4/a2/a6
     c04:	4e5d           	unlk a5
     c06:	4e75           	rts
     c08:	2079 0000 0000 	movea.l 0 _start,a0
			c0a: RELOC32	.bss
     c0e:	2008           	move.l a0,d0
     c10:	670a           	beq.s c1c __aio_writes4+0x7e
     c12:	2f02           	move.l d2,-(sp)
     c14:	4e90           	jsr (a0)
     c16:	588f           	addq.l #4,sp
     c18:	4a40           	tst.w d0
     c1a:	66e2           	bne.s bfe __aio_writes4+0x60
     c1c:	2f02           	move.l d2,-(sp)
     c1e:	4eb9 0000 03f0 	jsr 3f0 _LEN_
			c20: RELOC32	.text
     c24:	2c79 0000 0004 	movea.l 4 _start+0x4,a6
			c26: RELOC32	.bss
     c2a:	2239 0000 0050 	move.l 50 __aqb_read2+0x10,d1
			c2c: RELOC32	.bss
     c30:	2600           	move.l d0,d3
     c32:	4eae ffd0      	jsr -48(a6)
     c36:	588f           	addq.l #4,sp
     c38:	4ced 441c ffc4 	movem.l -60(a5),d2-d4/a2/a6
     c3e:	4e5d           	unlk a5
     c40:	4e75           	rts
     c42:	4878 0034      	pea 34 ___umodsi4+0x4
     c46:	4eb9 0000 011e 	jsr 11e _ERROR
			c48: RELOC32	.text
     c4c:	4ced 441c ffc4 	movem.l -60(a5),d2-d4/a2/a6
     c52:	4e5d           	unlk a5
     c54:	4e75           	rts

00000c56 __aio_writes2:
     c56:	4e55 ffd8      	link.w a5,#-40
     c5a:	48e7 3822      	movem.l d2-d4/a2/a6,-(sp)
     c5e:	282d 0008      	move.l 8(a5),d4
     c62:	42a7           	clr.l -(sp)
     c64:	4878 000a      	pea a ___mulsi4+0x4
     c68:	74d8           	moveq #-40,d2
     c6a:	d48d           	add.l a5,d2
     c6c:	2f02           	move.l d2,-(sp)
     c6e:	306d           	.short 0x306d

00000c70 _SOUND_start:
     c70:	000e           	.short 0x000e
     c72:	2f08           	move.l a0,-(sp)
     c74:	4eb9 0000 0000 	jsr 0 _start
			c76: RELOC32	.text
     c7a:	4fef 0010      	lea 16(sp),sp
     c7e:	4a44           	tst.w d4
     c80:	6740           	beq.s cc2 __cshutdown+0x14
     c82:	0c44 000f      	cmpi.w #15,d4
     c86:	6274           	bhi.s cfc __cshutdown+0x4e
     c88:	7600           	moveq #0,d3
     c8a:	3604           	move.w d4,d3
     c8c:	45f9 0000 0010 	lea 10 __aqb_read1,a2
			c8e: RELOC32	.bss
     c92:	e58b           	lsl.l #2,d3
     c94:	4ab2           	.short 0x4ab2

00000c96 _POINT_:
     c96:	3800           	move.w d0,d4
     c98:	6762           	beq.s cfc __cshutdown+0x4e
     c9a:	2f02           	move.l d2,-(sp)
     c9c:	4eb9 0000 03f0 	jsr 3f0 _LEN_
			c9e: RELOC32	.text
     ca2:	2072 3800      	movea.l (0,a2,d3.l),a0
     ca6:	2c79 0000 0004 	movea.l 4 _start+0x4,a6
			ca8: RELOC32	.bss
     cac:	2228           	.short 0x2228

00000cae __cshutdown:
     cae:	0004 2600      	ori.b #0,d4
     cb2:	4eae ffd0      	jsr -48(a6)
     cb6:	588f           	addq.l #4,sp
     cb8:	4ced 441c ffc4 	movem.l -60(a5),d2-d4/a2/a6
     cbe:	4e5d           	unlk a5
     cc0:	4e75           	rts
     cc2:	2079 0000 0000 	movea.l 0 _start,a0
			cc4: RELOC32	.bss
     cc8:	2008           	move.l a0,d0
     cca:	670a           	beq.s cd6 __cshutdown+0x28
     ccc:	2f02           	move.l d2,-(sp)
     cce:	4e90           	jsr (a0)
     cd0:	588f           	addq.l #4,sp
     cd2:	4a40           	tst.w d0
     cd4:	66e2           	bne.s cb8 __cshutdown+0xa
     cd6:	2f02           	move.l d2,-(sp)
     cd8:	4eb9 0000 03f0 	jsr 3f0 _LEN_
			cda: RELOC32	.text
     cde:	2c79 0000 0004 	movea.l 4 _start+0x4,a6
			ce0: RELOC32	.bss
     ce4:	2239 0000 0050 	move.l 50 __aqb_read2+0x10,d1
			ce6: RELOC32	.bss
     cea:	2600           	move.l d0,d3
     cec:	4eae ffd0      	jsr -48(a6)
     cf0:	588f           	addq.l #4,sp
     cf2:	4ced 441c ffc4 	movem.l -60(a5),d2-d4/a2/a6
     cf8:	4e5d           	unlk a5
     cfa:	4e75           	rts
     cfc:	4878 0034      	pea 34 ___umodsi4+0x4
     d00:	4eb9 0000 011e 	jsr 11e _ERROR
			d02: RELOC32	.text
     d06:	4ced 441c ffc4 	movem.l -60(a5),d2-d4/a2/a6
     d0c:	4e5d           	unlk a5
     d0e:	4e75           	rts

00000d10 __aio_writes1:
     d10:	4e55 ffd8      	link.w a5,#-40
     d14:	48e7 3822      	movem.l d2-d4/a2/a6,-(sp)
     d18:	282d 0008      	move.l 8(a5),d4
     d1c:	42a7           	clr.l -(sp)
     d1e:	4878 000a      	pea a ___mulsi4+0x4
     d22:	74d8           	moveq #-40,d2
     d24:	d48d           	add.l a5,d2
     d26:	2f02           	move.l d2,-(sp)
     d28:	7000           	moveq #0,d0
     d2a:	102d 000f      	move.b 15(a5),d0
     d2e:	2f00           	move.l d0,-(sp)
     d30:	4eb9 0000 0000 	jsr 0 _start
			d32: RELOC32	.text
     d36:	4fef 0010      	lea 16(sp),sp
     d3a:	4a44           	tst.w d4
     d3c:	6740           	beq.s d7e _RANDOMIZE+0xe
     d3e:	0c44 000f      	cmpi.w #15,d4
     d42:	6274           	bhi.s db8 __amath_init+0x1e
     d44:	7600           	moveq #0,d3
     d46:	3604           	move.w d4,d3
     d48:	45f9 0000 0010 	lea 10 __aqb_read1,a2
			d4a: RELOC32	.bss

00000d4e _CIRCLE:
     d4e:	e58b           	lsl.l #2,d3
     d50:	4ab2 3800      	tst.l (0,a2,d3.l)
     d54:	6762           	beq.s db8 __amath_init+0x1e
     d56:	2f02           	move.l d2,-(sp)
     d58:	4eb9 0000 03f0 	jsr 3f0 _LEN_
			d5a: RELOC32	.text
     d5e:	2072 3800      	movea.l (0,a2,d3.l),a0
     d62:	2c79 0000 0004 	movea.l 4 _start+0x4,a6
			d64: RELOC32	.bss
     d68:	2228 0004      	move.l 4(a0),d1
     d6c:	2600           	move.l d0,d3
     d6e:	4eae           	.short 0x4eae

00000d70 _RANDOMIZE:
     d70:	ffd0           	.short 0xffd0
     d72:	588f           	addq.l #4,sp
     d74:	4ced 441c ffc4 	movem.l -60(a5),d2-d4/a2/a6
     d7a:	4e5d           	unlk a5
     d7c:	4e75           	rts
     d7e:	2079 0000 0000 	movea.l 0 _start,a0
			d80: RELOC32	.bss
     d84:	2008           	move.l a0,d0
     d86:	670a           	beq.s d92 ____breakHandler+0x2
     d88:	2f02           	move.l d2,-(sp)
     d8a:	4e90           	jsr (a0)
     d8c:	588f           	addq.l #4,sp
     d8e:	4a40           	tst.w d0

00000d90 ____breakHandler:
     d90:	66e2           	bne.s d74 _RANDOMIZE+0x4
     d92:	2f02           	move.l d2,-(sp)
     d94:	4eb9 0000 03f0 	jsr 3f0 _LEN_
			d96: RELOC32	.text

00000d9a __amath_init:
     d9a:	2c79 0000 0004 	movea.l 4 _start+0x4,a6
			d9c: RELOC32	.bss
     da0:	2239 0000 0050 	move.l 50 __aqb_read2+0x10,d1
			da2: RELOC32	.bss
     da6:	2600           	move.l d0,d3
     da8:	4eae ffd0      	jsr -48(a6)
     dac:	588f           	addq.l #4,sp
     dae:	4ced 441c ffc4 	movem.l -60(a5),d2-d4/a2/a6
     db4:	4e5d           	unlk a5
     db6:	4e75           	rts
     db8:	4878 0034      	pea 34 ___umodsi4+0x4
     dbc:	4eb9           	.short 0x4eb9
	...
			dbe: RELOC32	.text

00000dc0 __asound_init:
     dc0:	011e           	btst d0,(a6)+
     dc2:	4ced 441c ffc4 	movem.l -60(a5),d2-d4/a2/a6
     dc8:	4e5d           	unlk a5
     dca:	4e75           	rts

00000dcc __aio_writeu4:
     dcc:	4e55 ffd8      	link.w a5,#-40
     dd0:	48e7 3822      	movem.l d2-d4/a2/a6,-(sp)
     dd4:	282d 0008      	move.l 8(a5),d4
     dd8:	42a7           	clr.l -(sp)
     dda:	4878 000a      	pea a ___mulsi4+0x4
     dde:	74d8           	moveq #-40,d2
     de0:	d48d           	add.l a5,d2
     de2:	2f02           	move.l d2,-(sp)
     de4:	2f2d 000c      	move.l 12(a5),-(sp)
     de8:	4eb9 0000 024a 	jsr 24a __astr_utoa_ext
			dea: RELOC32	.text
     dee:	4fef 0010      	lea 16(sp),sp
     df2:	4a44           	tst.w d4
     df4:	6740           	beq.s e36 __aio_writeu4+0x6a
     df6:	0c44 000f      	cmpi.w #15,d4
     dfa:	6274           	bhi.s e70 __aio_writeu4+0xa4
     dfc:	7600           	moveq #0,d3
     dfe:	3604           	move.w d4,d3
     e00:	45f9 0000 0010 	lea 10 __aqb_read1,a2
			e02: RELOC32	.bss
     e06:	e58b           	lsl.l #2,d3
     e08:	4ab2 3800      	tst.l (0,a2,d3.l)
     e0c:	6762           	beq.s e70 __aio_writeu4+0xa4
     e0e:	2f02           	move.l d2,-(sp)
     e10:	4eb9 0000 03f0 	jsr 3f0 _LEN_
			e12: RELOC32	.text
     e16:	2072 3800      	movea.l (0,a2,d3.l),a0
     e1a:	2c79 0000 0004 	movea.l 4 _start+0x4,a6
			e1c: RELOC32	.bss
     e20:	2228 0004      	move.l 4(a0),d1
     e24:	2600           	move.l d0,d3
     e26:	4eae ffd0      	jsr -48(a6)
     e2a:	588f           	addq.l #4,sp
     e2c:	4ced 441c ffc4 	movem.l -60(a5),d2-d4/a2/a6
     e32:	4e5d           	unlk a5
     e34:	4e75           	rts
     e36:	2079 0000 0000 	movea.l 0 _start,a0
			e38: RELOC32	.bss
     e3c:	2008           	move.l a0,d0
     e3e:	670a           	beq.s e4a __aio_writeu4+0x7e
     e40:	2f02           	move.l d2,-(sp)
     e42:	4e90           	jsr (a0)
     e44:	588f           	addq.l #4,sp
     e46:	4a40           	tst.w d0
     e48:	66e2           	bne.s e2c __aio_writeu4+0x60
     e4a:	2f02           	move.l d2,-(sp)
     e4c:	4eb9 0000 03f0 	jsr 3f0 _LEN_
			e4e: RELOC32	.text
     e52:	2c79 0000 0004 	movea.l 4 _start+0x4,a6
			e54: RELOC32	.bss
     e58:	2239 0000 0050 	move.l 50 __aqb_read2+0x10,d1
			e5a: RELOC32	.bss
     e5e:	2600           	move.l d0,d3
     e60:	4eae ffd0      	jsr -48(a6)
     e64:	588f           	addq.l #4,sp
     e66:	4ced 441c ffc4 	movem.l -60(a5),d2-d4/a2/a6
     e6c:	4e5d           	unlk a5
     e6e:	4e75           	rts
     e70:	4878 0034      	pea 34 ___umodsi4+0x4
     e74:	4eb9 0000 011e 	jsr 11e _ERROR
			e76: RELOC32	.text
     e7a:	4ced 441c ffc4 	movem.l -60(a5),d2-d4/a2/a6
     e80:	4e5d           	unlk a5
     e82:	4e75           	rts

00000e84 __aio_writeu2:
     e84:	4e55 ffd8      	link.w a5,#-40
     e88:	48e7 3822      	movem.l d2-d4/a2/a6,-(sp)
     e8c:	282d 0008      	move.l 8(a5),d4
     e90:	42a7           	clr.l -(sp)
     e92:	4878 000a      	pea a ___mulsi4+0x4
     e96:	74d8           	moveq #-40,d2
     e98:	d48d           	add.l a5,d2
     e9a:	2f02           	move.l d2,-(sp)
     e9c:	7000           	moveq #0,d0
     e9e:	302d 000e      	move.w 14(a5),d0
     ea2:	2f00           	move.l d0,-(sp)
     ea4:	4eb9 0000 024a 	jsr 24a __astr_utoa_ext
			ea6: RELOC32	.text
     eaa:	4fef 0010      	lea 16(sp),sp
     eae:	4a44           	tst.w d4
     eb0:	6740           	beq.s ef2 __asound_shutdown+0x32
     eb2:	0c44 000f      	cmpi.w #15,d4
     eb6:	6274           	bhi.s f2c __asound_shutdown+0x6c
     eb8:	7600           	moveq #0,d3
     eba:	3604           	move.w d4,d3
     ebc:	45f9           	.short 0x45f9
	...
			ebe: RELOC32	.bss

00000ec0 __asound_shutdown:
     ec0:	0010 e58b      	ori.b #-117,(a0)
     ec4:	4ab2 3800      	tst.l (0,a2,d3.l)
     ec8:	6762           	beq.s f2c __asound_shutdown+0x6c
     eca:	2f02           	move.l d2,-(sp)
     ecc:	4eb9 0000 03f0 	jsr 3f0 _LEN_
			ece: RELOC32	.text
     ed2:	2072 3800      	movea.l (0,a2,d3.l),a0
     ed6:	2c79 0000 0004 	movea.l 4 _start+0x4,a6
			ed8: RELOC32	.bss
     edc:	2228 0004      	move.l 4(a0),d1
     ee0:	2600           	move.l d0,d3
     ee2:	4eae ffd0      	jsr -48(a6)
     ee6:	588f           	addq.l #4,sp
     ee8:	4ced 441c ffc4 	movem.l -60(a5),d2-d4/a2/a6
     eee:	4e5d           	unlk a5
     ef0:	4e75           	rts
     ef2:	2079 0000 0000 	movea.l 0 _start,a0
			ef4: RELOC32	.bss
     ef8:	2008           	move.l a0,d0
     efa:	670a           	beq.s f06 __asound_shutdown+0x46
     efc:	2f02           	move.l d2,-(sp)
     efe:	4e90           	jsr (a0)
     f00:	588f           	addq.l #4,sp
     f02:	4a40           	tst.w d0
     f04:	66e2           	bne.s ee8 __asound_shutdown+0x28
     f06:	2f02           	move.l d2,-(sp)
     f08:	4eb9 0000 03f0 	jsr 3f0 _LEN_
			f0a: RELOC32	.text
     f0e:	2c79 0000 0004 	movea.l 4 _start+0x4,a6
			f10: RELOC32	.bss
     f14:	2239 0000 0050 	move.l 50 __aqb_read2+0x10,d1
			f16: RELOC32	.bss
     f1a:	2600           	move.l d0,d3
     f1c:	4eae ffd0      	jsr -48(a6)
     f20:	588f           	addq.l #4,sp
     f22:	4ced 441c ffc4 	movem.l -60(a5),d2-d4/a2/a6
     f28:	4e5d           	unlk a5
     f2a:	4e75           	rts
     f2c:	4878 0034      	pea 34 ___umodsi4+0x4
     f30:	4eb9 0000 011e 	jsr 11e _ERROR
			f32: RELOC32	.text
     f36:	4ced 441c ffc4 	movem.l -60(a5),d2-d4/a2/a6
     f3c:	4e5d           	unlk a5
     f3e:	4e75           	rts

00000f40 __aio_writeu1:
     f40:	4e55 ffd8      	link.w a5,#-40
     f44:	48e7 3822      	movem.l d2-d4/a2/a6,-(sp)
     f48:	282d 0008      	move.l 8(a5),d4
     f4c:	42a7           	clr.l -(sp)
     f4e:	4878 000a      	pea a ___mulsi4+0x4
     f52:	74d8           	moveq #-40,d2
     f54:	d48d           	add.l a5,d2
     f56:	2f02           	move.l d2,-(sp)
     f58:	7000           	moveq #0,d0
     f5a:	102d 000f      	move.b 15(a5),d0
     f5e:	2f00           	move.l d0,-(sp)
     f60:	4eb9 0000 024a 	jsr 24a __astr_utoa_ext
			f62: RELOC32	.text
     f66:	4fef 0010      	lea 16(sp),sp
     f6a:	4a44           	tst.w d4
     f6c:	6740           	beq.s fae __cstartup+0x2a
     f6e:	0c44 000f      	cmpi.w #15,d4
     f72:	6274           	bhi.s fe8 __cstartup+0x64
     f74:	7600           	moveq #0,d3
     f76:	3604           	move.w d4,d3
     f78:	45f9 0000 0010 	lea 10 __aqb_read1,a2
			f7a: RELOC32	.bss
     f7e:	e58b           	lsl.l #2,d3
     f80:	4ab2 3800      	tst.l (0,a2,d3.l)

00000f84 __cstartup:
     f84:	6762           	beq.s fe8 __cstartup+0x64
     f86:	2f02           	move.l d2,-(sp)
     f88:	4eb9 0000 03f0 	jsr 3f0 _LEN_
			f8a: RELOC32	.text
     f8e:	2072 3800      	movea.l (0,a2,d3.l),a0
     f92:	2c79 0000 0004 	movea.l 4 _start+0x4,a6
			f94: RELOC32	.bss
     f98:	2228 0004      	move.l 4(a0),d1
     f9c:	2600           	move.l d0,d3
     f9e:	4eae ffd0      	jsr -48(a6)
     fa2:	588f           	addq.l #4,sp
     fa4:	4ced 441c ffc4 	movem.l -60(a5),d2-d4/a2/a6
     faa:	4e5d           	unlk a5
     fac:	4e75           	rts
     fae:	2079 0000 0000 	movea.l 0 _start,a0
			fb0: RELOC32	.bss
     fb4:	2008           	move.l a0,d0
     fb6:	670a           	beq.s fc2 __cstartup+0x3e
     fb8:	2f02           	move.l d2,-(sp)
     fba:	4e90           	jsr (a0)
     fbc:	588f           	addq.l #4,sp
     fbe:	4a40           	tst.w d0
     fc0:	66e2           	bne.s fa4 __cstartup+0x20
     fc2:	2f02           	move.l d2,-(sp)
     fc4:	4eb9 0000 03f0 	jsr 3f0 _LEN_
			fc6: RELOC32	.text
     fca:	2c79 0000 0004 	movea.l 4 _start+0x4,a6
			fcc: RELOC32	.bss
     fd0:	2239 0000 0050 	move.l 50 __aqb_read2+0x10,d1
			fd2: RELOC32	.bss
     fd6:	2600           	move.l d0,d3
     fd8:	4eae ffd0      	jsr -48(a6)
     fdc:	588f           	addq.l #4,sp
     fde:	4ced 441c ffc4 	movem.l -60(a5),d2-d4/a2/a6
     fe4:	4e5d           	unlk a5
     fe6:	4e75           	rts
     fe8:	4878 0034      	pea 34 ___umodsi4+0x4
     fec:	4eb9 0000 011e 	jsr 11e _ERROR
			fee: RELOC32	.text
     ff2:	4ced 441c ffc4 	movem.l -60(a5),d2-d4/a2/a6
     ff8:	4e5d           	unlk a5
     ffa:	4e75           	rts

00000ffc __aio_writef:
     ffc:	4e55 ffd8      	link.w a5,#-40
    1000:	48e7 3822      	movem.l d2-d4/a2/a6,-(sp)
    1004:	282d 0008      	move.l 8(a5),d4
    1008:	42a7           	clr.l -(sp)
    100a:	74d8           	moveq #-40,d2
    100c:	d48d           	add.l a5,d2
    100e:	2f02           	move.l d2,-(sp)
    1010:	2f2d 000c      	move.l 12(a5),-(sp)
    1014:	4eb9 0000 0a04 	jsr a04 __astr_ftoa_ext
			1016: RELOC32	.text
    101a:	4fef 000c      	lea 12(sp),sp
    101e:	4a44           	tst.w d4
    1020:	6740           	beq.s 1062 __aio_writef+0x66
    1022:	0c44 000f      	cmpi.w #15,d4
    1026:	6274           	bhi.s 109c __aio_writef+0xa0
    1028:	7600           	moveq #0,d3
    102a:	3604           	move.w d4,d3
    102c:	45f9 0000 0010 	lea 10 __aqb_read1,a2
			102e: RELOC32	.bss
    1032:	e58b           	lsl.l #2,d3
    1034:	4ab2 3800      	tst.l (0,a2,d3.l)
    1038:	6762           	beq.s 109c __aio_writef+0xa0
    103a:	2f02           	move.l d2,-(sp)
    103c:	4eb9 0000 03f0 	jsr 3f0 _LEN_
			103e: RELOC32	.text
    1042:	2072 3800      	movea.l (0,a2,d3.l),a0
    1046:	2c79 0000 0004 	movea.l 4 _start+0x4,a6
			1048: RELOC32	.bss
    104c:	2228 0004      	move.l 4(a0),d1
    1050:	2600           	move.l d0,d3
    1052:	4eae ffd0      	jsr -48(a6)
    1056:	588f           	addq.l #4,sp
    1058:	4ced 441c ffc4 	movem.l -60(a5),d2-d4/a2/a6
    105e:	4e5d           	unlk a5
    1060:	4e75           	rts
    1062:	2079 0000 0000 	movea.l 0 _start,a0
			1064: RELOC32	.bss
    1068:	2008           	move.l a0,d0
    106a:	670a           	beq.s 1076 __aio_writef+0x7a
    106c:	2f02           	move.l d2,-(sp)
    106e:	4e90           	jsr (a0)
    1070:	588f           	addq.l #4,sp
    1072:	4a40           	tst.w d0
    1074:	66e2           	bne.s 1058 __aio_writef+0x5c
    1076:	2f02           	move.l d2,-(sp)
    1078:	4eb9 0000 03f0 	jsr 3f0 _LEN_
			107a: RELOC32	.text
    107e:	2c79 0000 0004 	movea.l 4 _start+0x4,a6
			1080: RELOC32	.bss
    1084:	2239 0000 0050 	move.l 50 __aqb_read2+0x10,d1
			1086: RELOC32	.bss
    108a:	2600           	move.l d0,d3
    108c:	4eae ffd0      	jsr -48(a6)
    1090:	588f           	addq.l #4,sp
    1092:	4ced 441c ffc4 	movem.l -60(a5),d2-d4/a2/a6
    1098:	4e5d           	unlk a5
    109a:	4e75           	rts
    109c:	4878 0034      	pea 34 ___umodsi4+0x4
    10a0:	4eb9 0000 011e 	jsr 11e _ERROR
			10a2: RELOC32	.text
    10a6:	4ced 441c ffc4 	movem.l -60(a5),d2-d4/a2/a6
    10ac:	4e5d           	unlk a5
    10ae:	4e75           	rts

000010b0 __aio_writebool:
    10b0:	4e55 0000      	link.w a5,#0
    10b4:	48e7 3022      	movem.l d2-d3/a2/a6,-(sp)
    10b8:	222d 0008      	move.l 8(a5),d1
    10bc:	3001           	move.w d1,d0
    10be:	4a6d 000e      	tst.w 14(a5)
    10c2:	6600 0098      	bne.w 115c _deadKeyConvert+0xa
    10c6:	243c 0000 0ae1 	move.l #2785,d2
			10c8: RELOC32	.text
    10cc:	4a40           	tst.w d0
    10ce:	6740           	beq.s 1110 __aio_writebool+0x60
    10d0:	0c40 000f      	cmpi.w #15,d0
    10d4:	6272           	bhi.s 1148 __aio_writebool+0x98
    10d6:	7600           	moveq #0,d3
    10d8:	3601           	move.w d1,d3
    10da:	45f9 0000 0010 	lea 10 __aqb_read1,a2
			10dc: RELOC32	.bss
    10e0:	e58b           	lsl.l #2,d3
    10e2:	4ab2 3800      	tst.l (0,a2,d3.l)
    10e6:	6760           	beq.s 1148 __aio_writebool+0x98
    10e8:	2f02           	move.l d2,-(sp)
    10ea:	4eb9 0000 03f0 	jsr 3f0 _LEN_
			10ec: RELOC32	.text
    10f0:	2072 3800      	movea.l (0,a2,d3.l),a0
    10f4:	2c79 0000 0004 	movea.l 4 _start+0x4,a6
			10f6: RELOC32	.bss
    10fa:	2228 0004      	move.l 4(a0),d1
    10fe:	2600           	move.l d0,d3
    1100:	4eae ffd0      	jsr -48(a6)
    1104:	588f           	addq.l #4,sp
    1106:	4ced 440c fff0 	movem.l -16(a5),d2-d3/a2/a6
    110c:	4e5d           	unlk a5
    110e:	4e75           	rts
    1110:	2079 0000 0000 	movea.l 0 _start,a0
			1112: RELOC32	.bss
    1116:	2008           	move.l a0,d0
    1118:	670a           	beq.s 1124 __aio_writebool+0x74
    111a:	2f02           	move.l d2,-(sp)
    111c:	4e90           	jsr (a0)
    111e:	588f           	addq.l #4,sp
    1120:	4a40           	tst.w d0
    1122:	66e2           	bne.s 1106 __aio_writebool+0x56
    1124:	2f02           	move.l d2,-(sp)
    1126:	4eb9 0000 03f0 	jsr 3f0 _LEN_
			1128: RELOC32	.text
    112c:	2c79 0000 0004 	movea.l 4 _start+0x4,a6
			112e: RELOC32	.bss
    1132:	2239 0000 0050 	move.l 50 __aqb_read2+0x10,d1
			1134: RELOC32	.bss
    1138:	2600           	move.l d0,d3
    113a:	4eae ffd0      	jsr -48(a6)
    113e:	4ced 440c fff0 	movem.l -16(a5),d2-d3/a2/a6
    1144:	4e5d           	unlk a5
    1146:	4e75           	rts
    1148:	7034           	moveq #52,d0
    114a:	2b40 0008      	move.l d0,8(a5)
    114e:	4ced           	.short 0x4ced
    1150:	440c           	.short 0x440c

00001152 _deadKeyConvert:
    1152:	fff0           	.short 0xfff0
    1154:	4e5d           	unlk a5
    1156:	4ef9 0000 011e 	jmp 11e _ERROR
			1158: RELOC32	.text
    115c:	243c 0000 0adc 	move.l #2780,d2
			115e: RELOC32	.text
    1162:	6000 ff68      	bra.w 10cc __aio_writebool+0x1c
    1166:	2200           	move.l d0,d1

00001168 __aio_writes:
    1168:	4e55 0000      	link.w a5,#0
    116c:	48e7 3c32      	movem.l d2-d5/a2-a3/a6,-(sp)
    1170:	202d 0008      	move.l 8(a5),d0
    1174:	2a2d 000c      	move.l 12(a5),d5
    1178:	4a40           	tst.w d0
    117a:	6700 00a2      	beq.w 121e __aio_writes+0xb6
    117e:	7800           	moveq #0,d4
    1180:	3800           	move.w d0,d4
    1182:	0c40 000f      	cmpi.w #15,d0
    1186:	6200 0148      	bhi.w 12d0 __astr_strchr+0xc
    118a:	45f9 0000 0010 	lea 10 __aqb_read1,a2
			118c: RELOC32	.bss
    1190:	e58c           	lsl.l #2,d4
    1192:	4ab2 4800      	tst.l (0,a2,d4.l)
    1196:	6700 016e      	beq.w 1306 __s1toa_+0x1e
    119a:	487a ffca      	pea 1166 _deadKeyConvert+0x14(pc)
    119e:	47f9 0000 03f0 	lea 3f0 _LEN_,a3
			11a0: RELOC32	.text
    11a4:	4e93           	jsr (a3)
    11a6:	2072 4800      	movea.l (0,a2,d4.l),a0
    11aa:	2c79 0000 0004 	movea.l 4 _start+0x4,a6
			11ac: RELOC32	.bss
    11b0:	2228 0004      	move.l 4(a0),d1
    11b4:	243c 0000 1166 	move.l #4454,d2
			11b6: RELOC32	.text
    11ba:	2600           	move.l d0,d3
    11bc:	4eae ffd0      	jsr -48(a6)
    11c0:	588f           	addq.l #4,sp
    11c2:	4ab2 4800      	tst.l (0,a2,d4.l)
    11c6:	6700 012e      	beq.w 12f6 __s1toa_+0xe
    11ca:	2f05           	move.l d5,-(sp)
    11cc:	4e93           	jsr (a3)
    11ce:	2072 4800      	movea.l (0,a2,d4.l),a0
    11d2:	2c79 0000 0004 	movea.l 4 _start+0x4,a6
			11d4: RELOC32	.bss
    11d8:	2228 0004      	move.l 4(a0),d1
    11dc:	2405           	move.l d5,d2
    11de:	2600           	move.l d0,d3
    11e0:	4eae ffd0      	jsr -48(a6)
    11e4:	588f           	addq.l #4,sp
    11e6:	4ab2 4800      	tst.l (0,a2,d4.l)
    11ea:	6700 00f6      	beq.w 12e2 __astr_strchr+0x1e
    11ee:	487a ff76      	pea 1166 _deadKeyConvert+0x14(pc)
    11f2:	4eb9 0000 03f0 	jsr 3f0 _LEN_
			11f4: RELOC32	.text
    11f8:	2072 4800      	movea.l (0,a2,d4.l),a0
    11fc:	2c79 0000 0004 	movea.l 4 _start+0x4,a6
			11fe: RELOC32	.bss
    1202:	2228 0004      	move.l 4(a0),d1
    1206:	243c 0000 1166 	move.l #4454,d2
			1208: RELOC32	.text
    120c:	2600           	move.l d0,d3
    120e:	4eae ffd0      	jsr -48(a6)
    1212:	588f           	addq.l #4,sp
    1214:	4ced 4c3c ffe4 	movem.l -28(a5),d2-d5/a2-a3/a6
    121a:	4e5d           	unlk a5
    121c:	4e75           	rts
    121e:	2079 0000 0000 	movea.l 0 _start,a0
			1220: RELOC32	.bss
    1224:	2008           	move.l a0,d0
    1226:	670c           	beq.s 1234 __aio_writes+0xcc
    1228:	487a ff3c      	pea 1166 _deadKeyConvert+0x14(pc)
    122c:	4e90           	jsr (a0)
    122e:	588f           	addq.l #4,sp
    1230:	4a40           	tst.w d0
    1232:	6624           	bne.s 1258 __aio_writes+0xf0
    1234:	487a ff30      	pea 1166 _deadKeyConvert+0x14(pc)
    1238:	4eb9 0000 03f0 	jsr 3f0 _LEN_
			123a: RELOC32	.text
    123e:	2c79 0000 0004 	movea.l 4 _start+0x4,a6
			1240: RELOC32	.bss
    1244:	2239 0000 0050 	move.l 50 __aqb_read2+0x10,d1
			1246: RELOC32	.bss
    124a:	243c 0000 1166 	move.l #4454,d2
			124c: RELOC32	.text
    1250:	2600           	move.l d0,d3
    1252:	4eae ffd0      	jsr -48(a6)
    1256:	588f           	addq.l #4,sp
    1258:	2079 0000 0000 	movea.l 0 _start,a0
			125a: RELOC32	.bss
    125e:	2008           	move.l a0,d0
    1260:	670a           	beq.s 126c __aio_writes+0x104
    1262:	2f05           	move.l d5,-(sp)
    1264:	4e90           	jsr (a0)
    1266:	588f           	addq.l #4,sp
    1268:	4a40           	tst.w d0
    126a:	661e           	bne.s 128a __aio_writes+0x122
    126c:	2f05           	move.l d5,-(sp)
    126e:	4eb9 0000 03f0 	jsr 3f0 _LEN_
			1270: RELOC32	.text
    1274:	2c79 0000 0004 	movea.l 4 _start+0x4,a6
			1276: RELOC32	.bss
    127a:	2239 0000 0050 	move.l 50 __aqb_read2+0x10,d1
			127c: RELOC32	.bss
    1280:	2405           	move.l d5,d2
    1282:	2600           	move.l d0,d3
    1284:	4eae ffd0      	jsr -48(a6)
    1288:	588f           	addq.l #4,sp
    128a:	2079 0000 0000 	movea.l 0 _start,a0
			128c: RELOC32	.bss
    1290:	2008           	move.l a0,d0
    1292:	670e           	beq.s 12a2 __aio_writes+0x13a
    1294:	487a fed0      	pea 1166 _deadKeyConvert+0x14(pc)
    1298:	4e90           	jsr (a0)
    129a:	588f           	addq.l #4,sp
    129c:	4a40           	tst.w d0
    129e:	6600 ff74      	bne.w 1214 __aio_writes+0xac
    12a2:	487a fec2      	pea 1166 _deadKeyConvert+0x14(pc)
    12a6:	4eb9           	.short 0x4eb9

000012a8 __astr_ftoa:
    12a8:	0000 03f0      	ori.b #-16,d0
			12a8: RELOC32	.text
    12ac:	2c79 0000 0004 	movea.l 4 _start+0x4,a6
			12ae: RELOC32	.bss
    12b2:	2239 0000 0050 	move.l 50 __aqb_read2+0x10,d1
			12b4: RELOC32	.bss
    12b8:	243c 0000 1166 	move.l #4454,d2
			12ba: RELOC32	.text
    12be:	2600           	move.l d0,d3
    12c0:	4eae ffd0      	jsr -48(a6)

000012c4 __astr_strchr:
    12c4:	588f           	addq.l #4,sp
    12c6:	4ced 4c3c ffe4 	movem.l -28(a5),d2-d5/a2-a3/a6
    12cc:	4e5d           	unlk a5
    12ce:	4e75           	rts
    12d0:	4878 0034      	pea 34 ___umodsi4+0x4
    12d4:	45f9 0000 011e 	lea 11e _ERROR,a2
			12d6: RELOC32	.text
    12da:	4e92           	jsr (a2)
    12dc:	4878 0034      	pea 34 ___umodsi4+0x4
    12e0:	4e92           	jsr (a2)
    12e2:	7034           	moveq #52,d0
    12e4:	2b40 0008      	move.l d0,8(a5)

000012e8 __s1toa_:
    12e8:	4ced 4c3c ffe4 	movem.l -28(a5),d2-d5/a2-a3/a6
    12ee:	4e5d           	unlk a5
    12f0:	4ef9 0000 011e 	jmp 11e _ERROR
			12f2: RELOC32	.text
    12f6:	4878 0034      	pea 34 ___umodsi4+0x4
    12fa:	4eb9 0000 011e 	jsr 11e _ERROR
			12fc: RELOC32	.text
    1300:	588f           	addq.l #4,sp
    1302:	6000 fee2      	bra.w 11e6 __aio_writes+0x7e
    1306:	4878 0034      	pea 34 ___umodsi4+0x4
    130a:	47f9 0000 011e 	lea 11e _ERROR,a3
			130c: RELOC32	.text
    1310:	4e93           	jsr (a3)
    1312:	588f           	addq.l #4,sp
    1314:	4ab2 4800      	tst.l (0,a2,d4.l)
    1318:	6726           	beq.s 1340 __s1toa_+0x58
    131a:	47f9 0000 03f0 	lea 3f0 _LEN_,a3
			131c: RELOC32	.text
    1320:	2f05           	move.l d5,-(sp)
    1322:	4e93           	jsr (a3)
    1324:	2072 4800      	movea.l (0,a2,d4.l),a0
    1328:	2c79 0000 0004 	movea.l 4 _start+0x4,a6
			132a: RELOC32	.bss
    132e:	2228 0004      	move.l 4(a0),d1
    1332:	2405           	move.l d5,d2
    1334:	2600           	move.l d0,d3
    1336:	4eae ffd0      	jsr -48(a6)
    133a:	588f           	addq.l #4,sp
    133c:	6000 fea8      	bra.w 11e6 __aio_writes+0x7e
    1340:	4878 0034      	pea 34 ___umodsi4+0x4
    1344:	4e93           	jsr (a3)
    1346:	588f           	addq.l #4,sp
    1348:	6000 fe9c      	bra.w 11e6 __aio_writes+0x7e
    134c:	2c00           	move.l d0,d6

0000134e __aio_writecomma:
    134e:	4e55 0000      	link.w a5,#0
    1352:	48e7 3022      	movem.l d2-d3/a2/a6,-(sp)
    1356:	202d 0008      	move.l 8(a5),d0
    135a:	4a40           	tst.w d0
    135c:	674a           	beq.s 13a8 __aio_writecomma+0x5a
    135e:	0c40 000f      	cmpi.w #15,d0
    1362:	6200 0086      	bhi.w 13ea __aio_writecomma+0x9c
    1366:	7400           	moveq #0,d2
    1368:	3400           	move.w d0,d2
    136a:	45f9 0000 0010 	lea 10 __aqb_read1,a2
			136c: RELOC32	.bss
    1370:	e58a           	lsl.l #2,d2
    1372:	4ab2 2800      	tst.l (0,a2,d2.l)
    1376:	6772           	beq.s 13ea __aio_writecomma+0x9c
    1378:	487a ffd2      	pea 134c __s1toa_+0x64(pc)
    137c:	4eb9 0000 03f0 	jsr 3f0 _LEN_
			137e: RELOC32	.text
    1382:	2072 2800      	movea.l (0,a2,d2.l),a0
    1386:	2c79 0000 0004 	movea.l 4 _start+0x4,a6
			1388: RELOC32	.bss
    138c:	2228 0004      	move.l 4(a0),d1
    1390:	243c 0000 134c 	move.l #4940,d2
			1392: RELOC32	.text
    1396:	2600           	move.l d0,d3
    1398:	4eae ffd0      	jsr -48(a6)
    139c:	588f           	addq.l #4,sp
    139e:	4ced 440c fff0 	movem.l -16(a5),d2-d3/a2/a6
    13a4:	4e5d           	unlk a5
    13a6:	4e75           	rts
    13a8:	2079 0000 0000 	movea.l 0 _start,a0
			13aa: RELOC32	.bss
    13ae:	2008           	move.l a0,d0
    13b0:	670c           	beq.s 13be __aio_writecomma+0x70
    13b2:	487a ff98      	pea 134c __s1toa_+0x64(pc)
    13b6:	4e90           	jsr (a0)
    13b8:	588f           	addq.l #4,sp
    13ba:	4a40           	tst.w d0
    13bc:	66e0           	bne.s 139e __aio_writecomma+0x50
    13be:	487a ff8c      	pea 134c __s1toa_+0x64(pc)
    13c2:	4eb9 0000 03f0 	jsr 3f0 _LEN_
			13c4: RELOC32	.text
    13c8:	2c79 0000 0004 	movea.l 4 _start+0x4,a6
			13ca: RELOC32	.bss
    13ce:	2239 0000 0050 	move.l 50 __aqb_read2+0x10,d1
			13d0: RELOC32	.bss
    13d4:	243c 0000 134c 	move.l #4940,d2
			13d6: RELOC32	.text
    13da:	2600           	move.l d0,d3
    13dc:	4eae ffd0      	jsr -48(a6)
    13e0:	4ced 440c fff0 	movem.l -16(a5),d2-d3/a2/a6
    13e6:	4e5d           	unlk a5
    13e8:	4e75           	rts
    13ea:	7034           	moveq #52,d0
    13ec:	2b40 0008      	move.l d0,8(a5)
    13f0:	4ced 440c fff0 	movem.l -16(a5),d2-d3/a2/a6
    13f6:	4e5d           	unlk a5
    13f8:	4ef9 0000 011e 	jmp 11e _ERROR
			13fa: RELOC32	.text
    13fe:	4e55 0000      	link.w a5,#0
    1402:	48e7 3822      	movem.l d2-d4/a2/a6,-(sp)
    1406:	242d 0008      	move.l 8(a5),d2
    140a:	7200           	moveq #0,d1

0000140c __s2toa_:
    140c:	3202           	move.w d2,d1
    140e:	41f9 0000 0010 	lea 10 __aqb_read1,a0
			1410: RELOC32	.bss
    1414:	e589           	lsl.l #2,d1
    1416:	2470 1800      	movea.l (0,a0,d1.l),a2
    141a:	4a42           	tst.w d2
    141c:	6632           	bne.s 1450 ___brt_init+0x28
    141e:	222a 0408      	move.l 1032(a2),d1
    1422:	b2aa 040c      	cmp.l 1036(a2),d1
    1426:	6d0c           	blt.s 1434 ___brt_init+0xc

00001428 ___brt_init:
    1428:	3002           	move.w d2,d0
    142a:	4ced 441c ffec 	movem.l -20(a5),d2-d4/a2/a6
    1430:	4e5d           	unlk a5
    1432:	4e75           	rts
    1434:	7001           	moveq #1,d0
    1436:	d081           	add.l d1,d0
    1438:	2540 0408      	move.l d0,1032(a2)
    143c:	1572 1808 0414 	move.b (8,a2,d1.l),1044(a2)
    1442:	7201           	moveq #1,d1
    1444:	3001           	move.w d1,d0
    1446:	4ced 441c ffec 	movem.l -20(a5),d2-d4/a2/a6
    144c:	4e5d           	unlk a5
    144e:	4e75           	rts
    1450:	202a 0408      	move.l 1032(a2),d0
    1454:	b0aa 040c      	cmp.l 1036(a2),d0
    1458:	6d3e           	blt.s 1498 ___brt_init+0x70
    145a:	382a 0410      	move.w 1040(a2),d4
    145e:	6654           	bne.s 14b4 ___brt_init+0x8c
    1460:	2c79 0000 0004 	movea.l 4 _start+0x4,a6
			1462: RELOC32	.bss
    1466:	222a 0004      	move.l 4(a2),d1
    146a:	240a           	move.l a2,d2
    146c:	5082           	addq.l #8,d2
    146e:	263c 0000 0400 	move.l #1024,d3
    1474:	4eae ffd6      	jsr -42(a6)
    1478:	4a80           	tst.l d0
    147a:	6d56           	blt.s 14d2 ___brt_init+0xaa
    147c:	42aa 0408      	clr.l 1032(a2)
    1480:	2540 040c      	move.l d0,1036(a2)
    1484:	663a           	bne.s 14c0 ___brt_init+0x98
    1486:	357c 0001 0410 	move.w #1,1040(a2)
    148c:	3004           	move.w d4,d0
    148e:	4ced 441c ffec 	movem.l -20(a5),d2-d4/a2/a6
    1494:	4e5d           	unlk a5
    1496:	4e75           	rts
    1498:	7201           	moveq #1,d1
    149a:	d280           	add.l d0,d1
    149c:	2541 0408      	move.l d1,1032(a2)
    14a0:	1572 0808 0414 	move.b (8,a2,d0.l),1044(a2)
    14a6:	7201           	moveq #1,d1
    14a8:	3001           	move.w d1,d0
    14aa:	4ced 441c ffec 	movem.l -20(a5),d2-d4/a2/a6
    14b0:	4e5d           	unlk a5
    14b2:	4e75           	rts
    14b4:	4240           	clr.w d0
    14b6:	4ced 441c ffec 	movem.l -20(a5),d2-d4/a2/a6
    14bc:	4e5d           	unlk a5
    14be:	4e75           	rts
    14c0:	7201           	moveq #1,d1
    14c2:	7000           	moveq #0,d0
    14c4:	2541 0408      	move.l d1,1032(a2)
    14c8:	1572 0808 0414 	move.b (8,a2,d0.l),1044(a2)
    14ce:	7201           	moveq #1,d1
    14d0:	60d6           	bra.s 14a8 ___brt_init+0x80
    14d2:	357c 0001 0410 	move.w #1,1040(a2)
    14d8:	4878 0039      	pea 39 __aqb_clear+0x3
    14dc:	4eb9 0000 011e 	jsr 11e _ERROR
			14de: RELOC32	.text
    14e2:	3004           	move.w d4,d0
    14e4:	4ced 441c ffec 	movem.l -20(a5),d2-d4/a2/a6
    14ea:	4e5d           	unlk a5
    14ec:	4e75           	rts

000014ee __aio_line_input:
    14ee:	4e55 0000      	link.w a5,#0
    14f2:	48e7 3f3a      	movem.l d2-d7/a2-a4/a6,-(sp)
    14f6:	202d 0008      	move.l 8(a5),d0
    14fa:	242d 000c      	move.l 12(a5),d2
    14fe:	286d 0010      	movea.l 16(a5),a4
    1502:	282d 0014      	move.l 20(a5),d4
    1506:	4a40           	tst.w d0
    1508:	6700 008a      	beq.w 1594 __s4toa_+0x66
    150c:	0c40 000f      	cmpi.w #15,d0
    1510:	6200 0196      	bhi.w 16a8 _WINDOW_
    1514:	7a00           	moveq #0,d5
    1516:	3a00           	move.w d0,d5
    1518:	41f9 0000 0010 	lea 10 __aqb_read1,a0
			151a: RELOC32	.bss
    151e:	e58d           	lsl.l #2,d5
    1520:	2470 5800      	movea.l (0,a0,d5.l),a2
    1524:	200a           	move.l a2,d0
    1526:	6700 0180      	beq.w 16a8 _WINDOW_
    152a:	47f9           	.short 0x47f9
	...
			152c: RELOC32	.bss

0000152e __s4toa_:
    152e:	0058 2c0b      	ori.w #11275,(a0)+
    1532:	7800           	moveq #0,d4
    1534:	2e3c 0000 0400 	move.l #1024,d7
    153a:	202a 0408      	move.l 1032(a2),d0
    153e:	b0aa 040c      	cmp.l 1036(a2),d0
    1542:	6d00 012c      	blt.w 1670 _VWAIT+0x1c
    1546:	4a6a 0410      	tst.w 1040(a2)
    154a:	662c           	bne.s 1578 __s4toa_+0x4a
    154c:	2c79 0000 0004 	movea.l 4 _start+0x4,a6
			154e: RELOC32	.bss
    1552:	222a 0004      	move.l 4(a2),d1
    1556:	240a           	move.l a2,d2
    1558:	5082           	addq.l #8,d2
    155a:	2607           	move.l d7,d3
    155c:	4eae ffd6      	jsr -42(a6)
    1560:	4a80           	tst.l d0
    1562:	6d00 0168      	blt.w 16cc _WINDOW_+0x24
    1566:	42aa 0408      	clr.l 1032(a2)
    156a:	2540 040c      	move.l d0,1036(a2)
    156e:	6600 014c      	bne.w 16bc _WINDOW_+0x14
    1572:	357c 0001 0410 	move.w #1,1040(a2)
    1578:	2046           	movea.l d6,a0
    157a:	4230 4800      	clr.b (0,a0,d4.l)
    157e:	2f06           	move.l d6,-(sp)
    1580:	4eb9 0000 0922 	jsr 922 __astr_dup
			1582: RELOC32	.text
    1586:	2880           	move.l d0,(a4)
    1588:	588f           	addq.l #4,sp
    158a:	4ced 5cfc ffd8 	movem.l -40(a5),d2-d7/a2-a4/a6
    1590:	4e5d           	unlk a5
    1592:	4e75           	rts
    1594:	4a82           	tst.l d2
    1596:	6730           	beq.s 15c8 __s4toa_+0x9a
    1598:	2079 0000 0000 	movea.l 0 _start,a0
			159a: RELOC32	.bss
    159e:	2008           	move.l a0,d0
    15a0:	670a           	beq.s 15ac __s4toa_+0x7e
    15a2:	2f02           	move.l d2,-(sp)
    15a4:	4e90           	jsr (a0)
    15a6:	588f           	addq.l #4,sp
    15a8:	4a40           	tst.w d0
    15aa:	661c           	bne.s 15c8 __s4toa_+0x9a
    15ac:	2f02           	move.l d2,-(sp)
    15ae:	4eb9 0000 03f0 	jsr 3f0 _LEN_
			15b0: RELOC32	.text
    15b4:	2c79 0000 0004 	movea.l 4 _start+0x4,a6
			15b6: RELOC32	.bss
    15ba:	2239 0000 0050 	move.l 50 __aqb_read2+0x10,d1
			15bc: RELOC32	.bss
    15c0:	2600           	move.l d0,d3
    15c2:	4eae ffd0      	jsr -48(a6)
    15c6:	588f           	addq.l #4,sp
    15c8:	2279 0000 0004 	movea.l 4 _start+0x4,a1
			15ca: RELOC32	.bss
    15ce:	3044           	movea.w d4,a0

000015d0 _SLEEP:
    15d0:	2009           	move.l a1,d0
    15d2:	6716           	beq.s 15ea _SLEEP+0x1a
    15d4:	2f08           	move.l a0,-(sp)
    15d6:	4878 0400      	pea 400 _LEN_+0x10
    15da:	4879 0000 0058 	pea 58 __aqb_read2+0x18
			15dc: RELOC32	.bss
    15e0:	4e91           	jsr (a1)
    15e2:	4fef 000c      	lea 12(sp),sp
    15e6:	4a40           	tst.w d0
    15e8:	666c           	bne.s 1656 _VWAIT+0x2
    15ea:	2439 0000 0050 	move.l 50 __aqb_read2+0x10,d2
			15ec: RELOC32	.bss
    15f0:	4879 0000 0000 	pea 0 _start
			15f2: RELOC32	.data
    15f6:	45f9 0000 03f0 	lea 3f0 _LEN_,a2
			15f8: RELOC32	.text
    15fc:	4e92           	jsr (a2)
    15fe:	47f9 0000 0004 	lea 4 _start+0x4,a3
			1600: RELOC32	.bss
    1604:	2c53           	movea.l (a3),a6
    1606:	2202           	move.l d2,d1
    1608:	243c 0000 0000 	move.l #0,d2
			160a: RELOC32	.data
    160e:	2600           	move.l d0,d3
    1610:	4eae ffd0      	jsr -48(a6)
    1614:	2c53           	movea.l (a3),a6
    1616:	2239 0000 0054 	move.l 54 __aqb_read2+0x14,d1
			1618: RELOC32	.bss
    161c:	243c 0000 0058 	move.l #88,d2
			161e: RELOC32	.bss
    1622:	263c 0000 0400 	move.l #1024,d3
    1628:	4eae ffd6      	jsr -42(a6)
    162c:	307c ffff      	movea.w #-1,a0
    1630:	d1c2           	adda.l d2,a0
    1632:	4230 0800      	clr.b (0,a0,d0.l)
    1636:	2439 0000 0050 	move.l 50 __aqb_read2+0x10,d2
			1638: RELOC32	.bss
    163c:	4879 0000 0005 	pea 5 _start+0x5
			163e: RELOC32	.data
    1642:	4e92           	jsr (a2)
    1644:	2c53           	movea.l (a3),a6
    1646:	2202           	move.l d2,d1
    1648:	243c 0000 0005 	move.l #5,d2
			164a: RELOC32	.data

0000164e __u1toa_:
    164e:	2600           	move.l d0,d3
    1650:	4eae ffd0      	jsr -48(a6)

00001654 _VWAIT:
    1654:	508f           	addq.l #8,sp
    1656:	4879 0000 0058 	pea 58 __aqb_read2+0x18
			1658: RELOC32	.bss
    165c:	4eb9 0000 0922 	jsr 922 __astr_dup
			165e: RELOC32	.text
    1662:	2880           	move.l d0,(a4)
    1664:	588f           	addq.l #4,sp
    1666:	4ced 5cfc ffd8 	movem.l -40(a5),d2-d7/a2-a4/a6
    166c:	4e5d           	unlk a5
    166e:	4e75           	rts
    1670:	7201           	moveq #1,d1

00001672 _ON_WINDOW_CLOSE_CALL:
    1672:	d280           	add.l d0,d1
    1674:	204a           	movea.l a2,a0
    1676:	2541 0408      	move.l d1,1032(a2)
    167a:	1572 0808 0414 	move.b (8,a2,d0.l),1044(a2)
    1680:	1028 0414      	move.b 1044(a0),d0
    1684:	0c00 000d      	cmpi.b #13,d0
    1688:	6700 feee      	beq.w 1578 __s4toa_+0x4a
    168c:	0c00 000a      	cmpi.b #10,d0
    1690:	6700 fee6      	beq.w 1578 __s4toa_+0x4a
    1694:	5284           	addq.l #1,d4
    1696:	16c0           	move.b d0,(a3)+
    1698:	0c84 0000 0400 	cmpi.l #1024,d4
    169e:	6700 fed8      	beq.w 1578 __s4toa_+0x4a
    16a2:	2448           	movea.l a0,a2
    16a4:	6000 fe94      	bra.w 153a __s4toa_+0xc

000016a8 _WINDOW_:
    16a8:	7034           	moveq #52,d0
    16aa:	2b40 0008      	move.l d0,8(a5)
    16ae:	4ced 5cfc ffd8 	movem.l -40(a5),d2-d7/a2-a4/a6
    16b4:	4e5d           	unlk a5
    16b6:	4ef9 0000 011e 	jmp 11e _ERROR
			16b8: RELOC32	.text
    16bc:	43f9 0000 0010 	lea 10 __aqb_read1,a1
			16be: RELOC32	.bss
    16c2:	2071 5800      	movea.l (0,a1,d5.l),a0
    16c6:	7201           	moveq #1,d1
    16c8:	7000           	moveq #0,d0
    16ca:	60aa           	bra.s 1676 _ON_WINDOW_CLOSE_CALL+0x4
    16cc:	357c 0001 0410 	move.w #1,1040(a2)
    16d2:	4878 0039      	pea 39 __aqb_clear+0x3
    16d6:	4eb9 0000 011e 	jsr 11e _ERROR
			16d8: RELOC32	.text
    16dc:	2046           	movea.l d6,a0
    16de:	588f           	addq.l #4,sp
    16e0:	4230 4800      	clr.b (0,a0,d4.l)
    16e4:	2f06           	move.l d6,-(sp)
    16e6:	4eb9 0000 0922 	jsr 922 __astr_dup
			16e8: RELOC32	.text
    16ec:	2880           	move.l d0,(a4)
    16ee:	6000 fe9a      	bra.w 158a __s4toa_+0x5c
    16f2:	4e55 fff8      	link.w a5,#-8
    16f6:	48e7 3f3a      	movem.l d2-d7/a2-a4/a6,-(sp)
    16fa:	2b6d 0008 fffa 	move.l 8(a5),-6(a5)
    1700:	3b6d fffc fff8 	move.w -4(a5),-8(a5)
    1706:	7a00           	moveq #0,d5
    1708:	3a2d fffc      	move.w -4(a5),d5
    170c:	2c05           	move.l d5,d6
    170e:	e58e           	lsl.l #2,d6
    1710:	45f9 0000 0010 	lea 10 __aqb_read1,a2
			1712: RELOC32	.bss
    1716:	2872 6800      	movea.l (0,a2,d6.l),a4
    171a:	4a6c 0412      	tst.w 1042(a4)
    171e:	6700 02a6      	beq.w 19c6 _MOUSE_+0x50
    1722:	2e0c           	move.l a4,d7
    1724:	426d fffe      	clr.w -2(a5)
    1728:	2047           	movea.l d7,a0
    172a:	1028 0414      	move.b 1044(a0),d0
    172e:	4a6d           	.short 0x4a6d

00001730 __u2toa_:
    1730:	fff8           	.short 0xfff8
    1732:	6600 02be      	bne.w 19f2 _MOUSE_+0x7c
    1736:	382d fffc      	move.w -4(a5),d4
    173a:	2247           	movea.l d7,a1
    173c:	0c00 0020      	cmpi.b #32,d0
    1740:	6700 0084      	beq.w 17c6 __u2toa_+0x96
    1744:	0c00 0009      	cmpi.b #9,d0
    1748:	677c           	beq.s 17c6 __u2toa_+0x96
    174a:	4a44           	tst.w d4
    174c:	6600 0304      	bne.w 1a52 _MOUSE_+0xdc
    1750:	9dce           	suba.l a6,a6
    1752:	4a6d fffe      	tst.w -2(a5)
    1756:	6600 015a      	bne.w 18b2 _MOUSE_ON+0x94
    175a:	47fa fca2      	lea 13fe __aio_writecomma+0xb0(pc),a3
    175e:	142c 0414      	move.b 1044(a4),d2
    1762:	1202           	move.b d2,d1
    1764:	0602 00f7      	addi.b #-9,d2
    1768:	0c02 0023      	cmpi.b #35,d2
    176c:	6200 009e      	bhi.w 180c __u2toa_+0xdc
    1770:	7000           	moveq #0,d0
    1772:	1002           	move.b d2,d0
    1774:	d080           	add.l d0,d0
    1776:	303b 0806      	move.w (177e __u2toa_+0x4e,pc,d0.l),d0
    177a:	4efb 0002      	jmp (177e __u2toa_+0x4e,pc,d0.w)
    177e:	0086 0072 008e 	ori.l #7471246,d6
    1784:	008e           	.short 0x008e
    1786:	01e2           	bset d0,-(a2)
    1788:	008e           	.short 0x008e
    178a:	008e           	.short 0x008e
    178c:	008e           	.short 0x008e
    178e:	008e           	.short 0x008e
    1790:	008e           	.short 0x008e
    1792:	008e           	.short 0x008e
    1794:	008e           	.short 0x008e
    1796:	008e           	.short 0x008e
    1798:	008e           	.short 0x008e
    179a:	008e           	.short 0x008e
    179c:	008e           	.short 0x008e
    179e:	008e           	.short 0x008e
    17a0:	008e           	.short 0x008e
    17a2:	008e           	.short 0x008e
    17a4:	008e           	.short 0x008e
    17a6:	008e           	.short 0x008e
    17a8:	008e           	.short 0x008e
    17aa:	008e           	.short 0x008e
    17ac:	0086 008e 01b2 	ori.l #9306546,d6
    17b2:	008e           	.short 0x008e
    17b4:	008e           	.short 0x008e
    17b6:	008e           	.short 0x008e
    17b8:	008e           	.short 0x008e
    17ba:	008e           	.short 0x008e
    17bc:	008e           	.short 0x008e
    17be:	008e           	.short 0x008e
    17c0:	008e           	.short 0x008e
    17c2:	008e           	.short 0x008e
    17c4:	010a 4a44      	movep.w 19012(a2),d0
    17c8:	6600 0288      	bne.w 1a52 _MOUSE_+0xdc
    17cc:	2052           	movea.l (a2),a0
    17ce:	2228 0408      	move.l 1032(a0),d1
    17d2:	b2a8 040c      	cmp.l 1036(a0),d1
    17d6:	6c00 01b8      	bge.w 1990 _MOUSE_+0x1a
    17da:	7001           	moveq #1,d0
    17dc:	d081           	add.l d1,d0
    17de:	2140 0408      	move.l d0,1032(a0)
    17e2:	1170 1808 0414 	move.b (8,a0,d1.l),1044(a0)
    17e8:	1029 0414      	move.b 1044(a1),d0
    17ec:	6000 ff4e      	bra.w 173c __u2toa_+0xc
    17f0:	2f05           	move.l d5,-(sp)
    17f2:	4e93           	jsr (a3)
    17f4:	d9ce           	adda.l a6,a4
    17f6:	422c 0415      	clr.b 1045(a4)
    17fa:	4ced 5cfc ffd0 	movem.l -48(a5),d2-d7/a2-a4/a6
    1800:	4e5d           	unlk a5
    1802:	4e75           	rts
    1804:	4a6d fffe      	tst.w -2(a5)
    1808:	6700 01a2      	beq.w 19ac _MOUSE_+0x36
    180c:	240e           	move.l a6,d2
    180e:	ddcc           	adda.l a4,a6
    1810:	5282           	addq.l #1,d2

00001812 __u4toa_:
    1812:	1d41 0415      	move.b d1,1045(a6)
    1816:	2f05           	move.l d5,-(sp)
    1818:	4e93           	jsr (a3)
    181a:	588f           	addq.l #4,sp
    181c:	4a40           	tst.w d0

0000181e _MOUSE_ON:
    181e:	6600 0088      	bne.w 18a8 _MOUSE_ON+0x8a
    1822:	d9c2           	adda.l d2,a4
    1824:	422c 0415      	clr.b 1045(a4)
    1828:	2672 6800      	movea.l (0,a2,d6.l),a3
    182c:	102b 0414      	move.b 1044(a3),d0
    1830:	4a6d fff8      	tst.w -8(a5)
    1834:	6600 0092      	bne.w 18c8 _MOUSE_OFF+0x6
    1838:	382d fffc      	move.w -4(a5),d4
    183c:	0c00 0020      	cmpi.b #32,d0
    1840:	6700 027e      	beq.w 1ac0 _MOUSE_+0x14a
    1844:	0c00 0009      	cmpi.b #9,d0
    1848:	6700 0276      	beq.w 1ac0 _MOUSE_+0x14a
    184c:	2472 6800      	movea.l (0,a2,d6.l),a2
    1850:	4a44           	tst.w d4
    1852:	66a6           	bne.s 17fa __u2toa_+0xca
    1854:	47fa fba8      	lea 13fe __aio_writecomma+0xb0(pc),a3
    1858:	102a 0414      	move.b 1044(a2),d0
    185c:	0c00 000d      	cmpi.b #13,d0
    1860:	6700 028c      	beq.w 1aee _MOUSE_+0x178
    1864:	0c00 002c      	cmpi.b #44,d0
    1868:	6700 029a      	beq.w 1b04 _MOUSE_+0x18e
    186c:	0c00 000a      	cmpi.b #10,d0
    1870:	6700 0292      	beq.w 1b04 _MOUSE_+0x18e
    1874:	2f05           	move.l d5,-(sp)
    1876:	4e93           	jsr (a3)
    1878:	588f           	addq.l #4,sp
    187a:	4a40           	tst.w d0
    187c:	66da           	bne.s 1858 _MOUSE_ON+0x3a
    187e:	4ced 5cfc ffd0 	movem.l -48(a5),d2-d7/a2-a4/a6
    1884:	4e5d           	unlk a5
    1886:	4e75           	rts
    1888:	4a6d fffe      	tst.w -2(a5)
    188c:	6700 ff62      	beq.w 17f0 __u2toa_+0xc0
    1890:	240e           	move.l a6,d2
    1892:	ddcc           	adda.l a4,a6
    1894:	5282           	addq.l #1,d2
    1896:	1d7c 002c 0415 	move.b #44,1045(a6)
    189c:	2f05           	move.l d5,-(sp)
    189e:	4e93           	jsr (a3)
    18a0:	588f           	addq.l #4,sp
    18a2:	4a40           	tst.w d0
    18a4:	6700 ff7c      	beq.w 1822 _MOUSE_ON+0x4
    18a8:	2c42           	movea.l d2,a6
    18aa:	bcfc 03ff      	cmpa.w #1023,a6
    18ae:	6f00 feae      	ble.w 175e __u2toa_+0x2e
    18b2:	d9ce           	adda.l a6,a4
    18b4:	422c 0415      	clr.b 1045(a4)
    18b8:	2672 6800      	movea.l (0,a2,d6.l),a3
    18bc:	102b 0414      	move.b 1044(a3),d0
    18c0:	4a6d           	.short 0x4a6d

000018c2 _MOUSE_OFF:
    18c2:	fff8           	.short 0xfff8
    18c4:	6700 ff72      	beq.w 1838 _MOUSE_ON+0x1a
    18c8:	4244           	clr.w d4
    18ca:	2e3c 0000 0400 	move.l #1024,d7
    18d0:	0c00 0020      	cmpi.b #32,d0
    18d4:	6708           	beq.s 18de _MOUSE_OFF+0x1c
    18d6:	0c00 0009      	cmpi.b #9,d0
    18da:	6600 ff70      	bne.w 184c _MOUSE_ON+0x2e
    18de:	4a44           	tst.w d4
    18e0:	6600 ff18      	bne.w 17fa __u2toa_+0xca
    18e4:	2872 6800      	movea.l (0,a2,d6.l),a4
    18e8:	222c 0408      	move.l 1032(a4),d1
    18ec:	b2ac 040c      	cmp.l 1036(a4),d1

000018f0 __ftoa_:
    18f0:	6d00 0222      	blt.w 1b14 _MOUSE_+0x19e
    18f4:	4a6c 0410      	tst.w 1040(a4)
    18f8:	6600 0230      	bne.w 1b2a _MOUSE_+0x1b4
    18fc:	2c79 0000 0004 	movea.l 4 _start+0x4,a6
			18fe: RELOC32	.bss
    1902:	222c 0004      	move.l 4(a4),d1
    1906:	240c           	move.l a4,d2
    1908:	5082           	addq.l #8,d2
    190a:	2607           	move.l d7,d3
    190c:	4eae ffd6      	jsr -42(a6)
    1910:	4a80           	tst.l d0
    1912:	6d00 0260      	blt.w 1b74 _VALINT_+0x16
    1916:	42ac 0408      	clr.l 1032(a4)
    191a:	2940 040c      	move.l d0,1036(a4)
    191e:	6600 0210      	bne.w 1b30 _MOUSE_+0x1ba
    1922:	397c 0001 0410 	move.w #1,1040(a4)
    1928:	102b 0414      	move.b 1044(a3),d0
    192c:	7801           	moveq #1,d4
    192e:	60a0           	bra.s 18d0 _MOUSE_OFF+0xe
    1930:	4a6d fffe      	tst.w -2(a5)
    1934:	6600 022e      	bne.w 1b64 _VALINT_+0x6
    1938:	200e           	move.l a6,d0
    193a:	6700 0144      	beq.w 1a80 _MOUSE_+0x10a
    193e:	240e           	move.l a6,d2
    1940:	ddcc           	adda.l a4,a6
    1942:	5282           	addq.l #1,d2
    1944:	1d7c 0022 0415 	move.b #34,1045(a6)
    194a:	2f05           	move.l d5,-(sp)
    194c:	4e93           	jsr (a3)
    194e:	588f           	addq.l #4,sp
    1950:	4a40           	tst.w d0
    1952:	6600 ff54      	bne.w 18a8 _MOUSE_ON+0x8a

00001956 __booltoa_:
    1956:	d9c2           	adda.l d2,a4
    1958:	422c 0415      	clr.b 1045(a4)
    195c:	6000 feca      	bra.w 1828 _MOUSE_ON+0xa
    1960:	2f05           	move.l d5,-(sp)
    1962:	4e93           	jsr (a3)
    1964:	588f           	addq.l #4,sp

00001966 _ON_MOUSE_CALL:
    1966:	4a40           	tst.w d0
    1968:	672c           	beq.s 1996 _MOUSE_+0x20
    196a:	102c 0414      	move.b 1044(a4),d0
    196e:	0c00 000a      	cmpi.b #10,d0
    1972:	6700           	.short 0x6700

00001974 __str2i4_:
    1974:	fe7c           	Address 0x0000000000001976 is out of bounds.
Address 0x0000000000001976 is out of bounds.
Address 0x0000000000001976 is out of bounds.
Address 0x0000000000001976 is out of bounds.
Address 0x0000000000001976 is out of bounds.
Address 0x0000000000001976 is out of bounds.
Address 0x0000000000001976 is out of bounds.
Address 0x0000000000001976 is out of bounds.
Address 0x0000000000001976 is out of bounds.
Address 0x0000000000001976 is out of bounds.
Address 0x0000000000001976 is out of bounds.
Address 0x0000000000001976 is out of bounds.
Address 0x0000000000001976 is out of bounds.
Address 0x0000000000001976 is out of bounds.
Address 0x0000000000001976 is out of bounds.
Address 0x0000000000001976 is out of bounds.
Address 0x0000000000001976 is out of bounds.
Address 0x0000000000001976 is out of bounds.
Address 0x0000000000001976 is out of bounds.
Address 0x0000000000001976 is out of bounds.
Address 0x0000000000001976 is out of bounds.
Address 0x0000000000001976 is out of bounds.
Address 0x0000000000001976 is out of bounds.
Address 0x0000000000001976 is out of bounds.
Address 0x0000000000001976 is out of bounds.
Address 0x0000000000001976 is out of bounds.
Address 0x0000000000001976 is out of bounds.
Address 0x0000000000001976 is out of bounds.
Address 0x0000000000001976 is out of bounds.
Address 0x0000000000001976 is out of bounds.
Address 0x0000000000001976 is out of bounds.
Address 0x0000000000001976 is out of bounds.
Address 0x0000000000001976 is out of bounds.
Address 0x0000000000001976 is out of bounds.
Address 0x0000000000001976 is out of bounds.
Address 0x0000000000001976 is out of bounds.
Address 0x0000000000001976 is out of bounds.
Address 0x0000000000001976 is out of bounds.
Address 0x0000000000001976 is out of bounds.
Address 0x0000000000001976 is out of bounds.
Address 0x0000000000001976 is out of bounds.
Address 0x0000000000001976 is out of bounds.
Address 0x0000000000001976 is out of bounds.
Address 0x0000000000001976 is out of bounds.
Address 0x0000000000001976 is out of bounds.
Address 0x0000000000001976 is out of bounds.
Address 0x0000000000001976 is out of bounds.
Address 0x0000000000001976 is out of bounds.
Address 0x0000000000001976 is out of bounds.
Address 0x0000000000001976 is out of bounds.
Address 0x0000000000001976 is out of bounds.
Address 0x0000000000001976 is out of bounds.
Address 0x0000000000001976 is out of bounds.
Address 0x0000000000001976 is out of bounds.
Address 0x0000000000001976 is out of bounds.
Address 0x0000000000001976 is out of bounds.
Address 0x0000000000001976 is out of bounds.
Address 0x0000000000001976 is out of bounds.
Address 0x0000000000001976 is out of bounds.
Address 0x0000000000001976 is out of bounds.
Address 0x0000000000001976 is out of bounds.
Address 0x0000000000001976 is out of bounds.
Address 0x0000000000001976 is out of bounds.
Address 0x0000000000001976 is out of bounds.
.short 0xfe7c

00001976 _MOUSE_:
    1976:	240e           	move.l a6,d2
    1978:	ddcc           	adda.l a4,a6
    197a:	5282           	addq.l #1,d2
    197c:	1d40 0415      	move.b d0,1045(a6)
    1980:	2f05           	move.l d5,-(sp)
    1982:	4e93           	jsr (a3)
    1984:	588f           	addq.l #4,sp
    1986:	4a40           	tst.w d0
    1988:	6700 fe98      	beq.w 1822 _MOUSE_ON+0x4
    198c:	6000 ff1a      	bra.w 18a8 _MOUSE_ON+0x8a
    1990:	7801           	moveq #1,d4
    1992:	6000 fda8      	bra.w 173c __u2toa_+0xc
    1996:	240e           	move.l a6,d2
    1998:	ddcc           	adda.l a4,a6
    199a:	5282           	addq.l #1,d2
    199c:	1d6c 0414 0415 	move.b 1044(a4),1045(a6)
    19a2:	2f05           	move.l d5,-(sp)
    19a4:	4e93           	jsr (a3)
    19a6:	588f           	addq.l #4,sp
    19a8:	6000 fe78      	bra.w 1822 _MOUSE_ON+0x4
    19ac:	2f05           	move.l d5,-(sp)
    19ae:	4e93           	jsr (a3)
    19b0:	588f           	addq.l #4,sp
    19b2:	4a40           	tst.w d0
    19b4:	6600 00f8      	bne.w 1aae _MOUSE_+0x138
    19b8:	4a6d fff8      	tst.w -8(a5)
    19bc:	6600 fe36      	bne.w 17f4 __u2toa_+0xc4
    19c0:	240e           	move.l a6,d2
    19c2:	6000 fe5e      	bra.w 1822 _MOUSE_ON+0x4
    19c6:	2f05           	move.l d5,-(sp)
    19c8:	4eba fa34      	jsr 13fe __aio_writecomma+0xb0(pc)
    19cc:	588f           	addq.l #4,sp
    19ce:	4a40           	tst.w d0
    19d0:	57c0           	seq d0
    19d2:	4880           	ext.w d0
    19d4:	4440           	neg.w d0
    19d6:	3b40 fffe      	move.w d0,-2(a5)
    19da:	397c 0001 0412 	move.w #1,1042(a4)
    19e0:	2072 6800      	movea.l (0,a2,d6.l),a0
    19e4:	2e08           	move.l a0,d7
    19e6:	1028 0414      	move.b 1044(a0),d0
    19ea:	4a6d fff8      	tst.w -8(a5)
    19ee:	6700 fd46      	beq.w 1736 __u2toa_+0x6
    19f2:	4244           	clr.w d4
    19f4:	0c00 0020      	cmpi.b #32,d0
    19f8:	6708           	beq.s 1a02 _MOUSE_+0x8c
    19fa:	0c00 0009      	cmpi.b #9,d0
    19fe:	6600 fd4a      	bne.w 174a __u2toa_+0x1a
    1a02:	4a44           	tst.w d4
    1a04:	664c           	bne.s 1a52 _MOUSE_+0xdc
    1a06:	2672 6800      	movea.l (0,a2,d6.l),a3
    1a0a:	222b 0408      	move.l 1032(a3),d1
    1a0e:	b2ab 040c      	cmp.l 1036(a3),d1
    1a12:	6d4e           	blt.s 1a62 _MOUSE_+0xec
    1a14:	4a6b 0410      	tst.w 1040(a3)
    1a18:	6660           	bne.s 1a7a _MOUSE_+0x104
    1a1a:	2c79 0000 0004 	movea.l 4 _start+0x4,a6
			1a1c: RELOC32	.bss
    1a20:	222b 0004      	move.l 4(a3),d1
    1a24:	240b           	move.l a3,d2
    1a26:	5082           	addq.l #8,d2
    1a28:	263c 0000 0400 	move.l #1024,d3
    1a2e:	4eae ffd6      	jsr -42(a6)
    1a32:	4a80           	tst.l d0
    1a34:	6d00 0110      	blt.w 1b46 _MOUSE_MOTION_ON+0x14
    1a38:	42ab 0408      	clr.l 1032(a3)
    1a3c:	2740 040c      	move.l d0,1036(a3)
    1a40:	6654           	bne.s 1a96 _MOUSE_+0x120
    1a42:	377c 0001 0410 	move.w #1,1040(a3)
    1a48:	2047           	movea.l d7,a0
    1a4a:	1028 0414      	move.b 1044(a0),d0
    1a4e:	7801           	moveq #1,d4
    1a50:	60a2           	bra.s 19f4 _MOUSE_+0x7e
    1a52:	4878 0004      	pea 4 _start+0x4
    1a56:	4eb9 0000 011e 	jsr 11e _ERROR
			1a58: RELOC32	.text
    1a5c:	588f           	addq.l #4,sp
    1a5e:	6000 fcf0      	bra.w 1750 __u2toa_+0x20
    1a62:	7001           	moveq #1,d0
    1a64:	d081           	add.l d1,d0
    1a66:	2740 0408      	move.l d0,1032(a3)
    1a6a:	1773 1808 0414 	move.b (8,a3,d1.l),1044(a3)
    1a70:	2047           	movea.l d7,a0
    1a72:	1028 0414      	move.b 1044(a0),d0
    1a76:	6000 ff7c      	bra.w 19f4 _MOUSE_+0x7e
    1a7a:	7801           	moveq #1,d4
    1a7c:	6000 ff76      	bra.w 19f4 _MOUSE_+0x7e
    1a80:	2f05           	move.l d5,-(sp)
    1a82:	4e93           	jsr (a3)
    1a84:	588f           	addq.l #4,sp
    1a86:	4a40           	tst.w d0
    1a88:	6700 ff36      	beq.w 19c0 _MOUSE_+0x4a
    1a8c:	3b7c 0001 fffe 	move.w #1,-2(a5)
    1a92:	6000 fcca      	bra.w 175e __u2toa_+0x2e
    1a96:	7001           	moveq #1,d0
    1a98:	7200           	moveq #0,d1
    1a9a:	2740 0408      	move.l d0,1032(a3)
    1a9e:	1773 1808 0414 	move.b (8,a3,d1.l),1044(a3)
    1aa4:	2047           	movea.l d7,a0
    1aa6:	1028 0414      	move.b 1044(a0),d0
    1aaa:	6000 ff48      	bra.w 19f4 _MOUSE_+0x7e
    1aae:	4a6d fff8      	tst.w -8(a5)
    1ab2:	6700 fdf6      	beq.w 18aa _MOUSE_ON+0x8c
    1ab6:	d9ce           	adda.l a6,a4
    1ab8:	422c 0415      	clr.b 1045(a4)
    1abc:	6000 fd3c      	bra.w 17fa __u2toa_+0xca
    1ac0:	4a44           	tst.w d4
    1ac2:	6600 fd36      	bne.w 17fa __u2toa_+0xca
    1ac6:	2052           	movea.l (a2),a0
    1ac8:	2228 0408      	move.l 1032(a0),d1
    1acc:	b2a8 040c      	cmp.l 1036(a0),d1
    1ad0:	6c16           	bge.s 1ae8 _MOUSE_+0x172
    1ad2:	7001           	moveq #1,d0
    1ad4:	d081           	add.l d1,d0
    1ad6:	2140 0408      	move.l d0,1032(a0)
    1ada:	1170 1808 0414 	move.b (8,a0,d1.l),1044(a0)
    1ae0:	102b 0414      	move.b 1044(a3),d0
    1ae4:	6000 fd56      	bra.w 183c _MOUSE_ON+0x1e
    1ae8:	7801           	moveq #1,d4
    1aea:	6000 fd50      	bra.w 183c _MOUSE_ON+0x1e
    1aee:	2f05           	move.l d5,-(sp)
    1af0:	4e93           	jsr (a3)
    1af2:	588f           	addq.l #4,sp
    1af4:	4a40           	tst.w d0
    1af6:	6700 fd02      	beq.w 17fa __u2toa_+0xca
    1afa:	0c2a 000a 0414 	cmpi.b #10,1044(a2)
    1b00:	6600 fd56      	bne.w 1858 _MOUSE_ON+0x3a
    1b04:	2b45 0008      	move.l d5,8(a5)
    1b08:	4ced 5cfc ffd0 	movem.l -48(a5),d2-d7/a2-a4/a6
    1b0e:	4e5d           	unlk a5
    1b10:	6000 f8ec      	bra.w 13fe __aio_writecomma+0xb0
    1b14:	7001           	moveq #1,d0
    1b16:	d081           	add.l d1,d0
    1b18:	2940 0408      	move.l d0,1032(a4)
    1b1c:	1974 1808 0414 	move.b (8,a4,d1.l),1044(a4)
    1b22:	102b 0414      	move.b 1044(a3),d0
    1b26:	6000 fda8      	bra.w 18d0 _MOUSE_OFF+0xe
    1b2a:	7801           	moveq #1,d4
    1b2c:	6000 fda2      	bra.w 18d0 _MOUSE_OFF+0xe
    1b30:	7001           	moveq #1,d0

00001b32 _MOUSE_MOTION_ON:
    1b32:	7200           	moveq #0,d1
    1b34:	2940 0408      	move.l d0,1032(a4)
    1b38:	1974 1808 0414 	move.b (8,a4,d1.l),1044(a4)
    1b3e:	102b 0414      	move.b 1044(a3),d0
    1b42:	6000 fd8c      	bra.w 18d0 _MOUSE_OFF+0xe
    1b46:	377c 0001 0410 	move.w #1,1040(a3)
    1b4c:	4878 0039      	pea 39 __aqb_clear+0x3
    1b50:	4eb9 0000 011e 	jsr 11e _ERROR
			1b52: RELOC32	.text
    1b56:	2047           	movea.l d7,a0
    1b58:	1028 0414      	move.b 1044(a0),d0
    1b5c:	588f           	addq.l #4,sp

00001b5e _VALINT_:
    1b5e:	7801           	moveq #1,d4
    1b60:	6000 fe92      	bra.w 19f4 _MOUSE_+0x7e
    1b64:	2f05           	move.l d5,-(sp)
    1b66:	4e93           	jsr (a3)
    1b68:	d9ce           	adda.l a6,a4
    1b6a:	588f           	addq.l #4,sp
    1b6c:	422c 0415      	clr.b 1045(a4)
    1b70:	6000 fd46      	bra.w 18b8 _MOUSE_ON+0x9a
    1b74:	397c 0001 0410 	move.w #1,1040(a4)
    1b7a:	4878 0039      	pea 39 __aqb_clear+0x3
    1b7e:	4eb9 0000 011e 	jsr 11e _ERROR
			1b80: RELOC32	.text
    1b84:	102b 0414      	move.b 1044(a3),d0
    1b88:	588f           	addq.l #4,sp
    1b8a:	7801           	moveq #1,d4
    1b8c:	6000 fd42      	bra.w 18d0 _MOUSE_OFF+0xe
    1b90:	3f00           	move.w d0,-(sp)

00001b92 __aio_console_input:
    1b92:	4e55 0000      	link.w a5,#0
    1b96:	48e7 383a      	movem.l d2-d4/a2-a4/a6,-(sp)
    1b9a:	242d 000c      	move.l 12(a5),d2
    1b9e:	266d 0010      	movea.l 16(a5),a3
    1ba2:	382d 000a      	move.w 10(a5),d4
    1ba6:	4a82           	tst.l d2
    1ba8:	6730           	beq.s 1bda __aio_console_input+0x48
    1baa:	2079 0000 0000 	movea.l 0 _start,a0
			1bac: RELOC32	.bss
    1bb0:	2008           	move.l a0,d0
    1bb2:	670a           	beq.s 1bbe __aio_console_input+0x2c
    1bb4:	2f02           	move.l d2,-(sp)
    1bb6:	4e90           	jsr (a0)
    1bb8:	588f           	addq.l #4,sp
    1bba:	4a40           	tst.w d0
    1bbc:	661c           	bne.s 1bda __aio_console_input+0x48
    1bbe:	2f02           	move.l d2,-(sp)
    1bc0:	4eb9 0000 03f0 	jsr 3f0 _LEN_
			1bc2: RELOC32	.text
    1bc6:	2c79 0000 0004 	movea.l 4 _start+0x4,a6
			1bc8: RELOC32	.bss
    1bcc:	2239 0000 0050 	move.l 50 __aqb_read2+0x10,d1
			1bce: RELOC32	.bss
    1bd2:	2600           	move.l d0,d3
    1bd4:	4eae ffd0      	jsr -48(a6)
    1bd8:	588f           	addq.l #4,sp
    1bda:	4a44           	tst.w d4

00001bdc _MOUSE_MOTION_OFF:
    1bdc:	6600 0108      	bne.w 1ce6 _ON_MOUSE_MOTION_CALL+0x60
    1be0:	49f9 0000 0010 	lea 10 __aqb_read1,a4
			1be2: RELOC32	.bss
    1be6:	2454           	movea.l (a4),a2
    1be8:	200a           	move.l a2,d0
    1bea:	6700 00c2      	beq.w 1cae _ON_MOUSE_MOTION_CALL+0x28
    1bee:	304b           	movea.w a3,a0
    1bf0:	2279 0000 0004 	movea.l 4 _start+0x4,a1
			1bf2: RELOC32	.bss
    1bf6:	47ea 0008      	lea 8(a2),a3
    1bfa:	2009           	move.l a1,d0
    1bfc:	6712           	beq.s 1c10 _MOUSE_MOTION_OFF+0x34
    1bfe:	2f08           	move.l a0,-(sp)
    1c00:	4878 0400      	pea 400 _LEN_+0x10
    1c04:	2f0b           	move.l a3,-(sp)
    1c06:	4e91           	jsr (a1)
    1c08:	4fef 000c      	lea 12(sp),sp
    1c0c:	4a40           	tst.w d0
    1c0e:	667e           	bne.s 1c8e _ON_MOUSE_MOTION_CALL+0x8
    1c10:	2439 0000 0050 	move.l 50 __aqb_read2+0x10,d2
			1c12: RELOC32	.bss
    1c16:	4879 0000 0000 	pea 0 _start
			1c18: RELOC32	.data
    1c1c:	49f9 0000 03f0 	lea 3f0 _LEN_,a4
			1c1e: RELOC32	.text
    1c22:	4e94           	jsr (a4)
    1c24:	2c79 0000 0004 	movea.l 4 _start+0x4,a6
			1c26: RELOC32	.bss
    1c2a:	2202           	move.l d2,d1
    1c2c:	243c 0000 0000 	move.l #0,d2
			1c2e: RELOC32	.data
    1c32:	2600           	move.l d0,d3
    1c34:	4eae ffd0      	jsr -48(a6)
    1c38:	2239 0000 0054 	move.l 54 __aqb_read2+0x14,d1
			1c3a: RELOC32	.bss
    1c3e:	240b           	move.l a3,d2
    1c40:	263c 0000 0400 	move.l #1024,d3
    1c46:	4eae ffd6      	jsr -42(a6)
    1c4a:	4233 08ff      	clr.b (-1,a3,d0.l)
    1c4e:	2439 0000 0050 	move.l 50 __aqb_read2+0x10,d2
			1c50: RELOC32	.bss
    1c54:	4879 0000 0005 	pea 5 _start+0x5
			1c56: RELOC32	.data
    1c5a:	4e94           	jsr (a4)
    1c5c:	2c79 0000 0004 	movea.l 4 _start+0x4,a6
			1c5e: RELOC32	.bss
    1c62:	2202           	move.l d2,d1
    1c64:	243c 0000 0005 	move.l #5,d2
			1c66: RELOC32	.data
    1c6a:	2600           	move.l d0,d3
    1c6c:	4eae ffd0      	jsr -48(a6)
    1c70:	508f           	addq.l #8,sp
    1c72:	42aa 0408      	clr.l 1032(a2)
    1c76:	2f0b           	move.l a3,-(sp)
    1c78:	4e94           	jsr (a4)
    1c7a:	2540 040c      	move.l d0,1036(a2)
    1c7e:	426a 0410      	clr.w 1040(a2)
    1c82:	588f           	addq.l #4,sp

00001c84 _VALUINT_:
    1c84:	4ced           	Address 0x0000000000001c86 is out of bounds.
.short 0x4ced

00001c86 _ON_MOUSE_MOTION_CALL:
    1c86:	5c1c           	addq.b #6,(a4)+
    1c88:	ffe4           	.short 0xffe4
    1c8a:	4e5d           	unlk a5
    1c8c:	4e75           	rts
    1c8e:	49f9 0000 03f0 	lea 3f0 _LEN_,a4
			1c90: RELOC32	.text
    1c94:	42aa 0408      	clr.l 1032(a2)
    1c98:	2f0b           	move.l a3,-(sp)
    1c9a:	4e94           	jsr (a4)
    1c9c:	2540 040c      	move.l d0,1036(a2)
    1ca0:	426a 0410      	clr.w 1040(a2)
    1ca4:	4ced 5c1c ffe4 	movem.l -28(a5),d2-d4/a2-a4/a6
    1caa:	4e5d           	unlk a5
    1cac:	4e75           	rts
    1cae:	2c79 0000 0000 	movea.l 0 _start,a6
			1cb0: RELOC32	.bss
    1cb4:	203c 0000 0816 	move.l #2070,d0
    1cba:	7201           	moveq #1,d1
    1cbc:	4841           	swap d1
    1cbe:	4eae fd54      	jsr -684(a6)
    1cc2:	2040           	movea.l d0,a0
    1cc4:	4a80           	tst.l d0
    1cc6:	676c           	beq.s 1d34 _ON_MOUSE_MOTION_CALL+0xae
    1cc8:	214a 0004      	move.l a2,4(a0)
    1ccc:	20ca           	move.l a2,(a0)+
    1cce:	214a 0404      	move.l a2,1028(a0)
    1cd2:	214a 0408      	move.l a2,1032(a0)
    1cd6:	314a 040c      	move.w a2,1036(a0)
    1cda:	314a 040e      	move.w a2,1038(a0)
    1cde:	2880           	move.l d0,(a4)
    1ce0:	2440           	movea.l d0,a2
    1ce2:	6000 ff0a      	bra.w 1bee _MOUSE_MOTION_OFF+0x12
    1ce6:	2079 0000 0000 	movea.l 0 _start,a0
			1ce8: RELOC32	.bss
    1cec:	2008           	move.l a0,d0
    1cee:	670e           	beq.s 1cfe _ON_MOUSE_MOTION_CALL+0x78
    1cf0:	487a fe9e      	pea 1b90 _VALINT_+0x32(pc)
    1cf4:	4e90           	jsr (a0)
    1cf6:	588f           	addq.l #4,sp
    1cf8:	4a40           	tst.w d0
    1cfa:	6600 fee4      	bne.w 1be0 _MOUSE_MOTION_OFF+0x4
    1cfe:	487a fe90      	pea 1b90 _VALINT_+0x32(pc)
    1d02:	4eb9 0000 03f0 	jsr 3f0 _LEN_
			1d04: RELOC32	.text
    1d08:	2c79 0000 0004 	movea.l 4 _start+0x4,a6
			1d0a: RELOC32	.bss
    1d0e:	2239 0000 0050 	move.l 50 __aqb_read2+0x10,d1
			1d10: RELOC32	.bss
    1d14:	243c 0000 1b90 	move.l #7056,d2
			1d16: RELOC32	.text
    1d1a:	2600           	move.l d0,d3
    1d1c:	4eae ffd0      	jsr -48(a6)
    1d20:	49f9 0000 0010 	lea 10 __aqb_read1,a4
			1d22: RELOC32	.bss
    1d26:	2454           	movea.l (a4),a2
    1d28:	588f           	addq.l #4,sp
    1d2a:	200a           	move.l a2,d0
    1d2c:	6600 fec0      	bne.w 1bee _MOUSE_MOTION_OFF+0x12
    1d30:	6000 ff7c      	bra.w 1cae _ON_MOUSE_MOTION_CALL+0x28
    1d34:	7007           	moveq #7,d0
    1d36:	2b40 0008      	move.l d0,8(a5)
    1d3a:	4ced 5c1c ffe4 	movem.l -28(a5),d2-d4/a2-a4/a6
    1d40:	4e5d           	unlk a5
    1d42:	4ef9 0000 011e 	jmp 11e _ERROR
			1d44: RELOC32	.text

00001d48 __aio_inputs1:
    1d48:	4e55 0000      	link.w a5,#0
    1d4c:	48e7 2030      	movem.l d2/a2-a3,-(sp)
    1d50:	222d 0008      	move.l 8(a5),d1
    1d54:	266d 000c      	movea.l 12(a5),a3
    1d58:	0c41 000f      	cmpi.w #15,d1
    1d5c:	6238           	bhi.s 1d96 __aio_inputs1+0x4e
    1d5e:	7000           	moveq #0,d0
    1d60:	3001           	move.w d1,d0
    1d62:	2400           	move.l d0,d2
    1d64:	45f9 0000 0010 	lea 10 __aqb_read1,a2
			1d66: RELOC32	.bss
    1d6a:	e58a           	lsl.l #2,d2
    1d6c:	4ab2 2800      	tst.l (0,a2,d2.l)
    1d70:	6724           	beq.s 1d96 __aio_inputs1+0x4e
    1d72:	2f00           	move.l d0,-(sp)
    1d74:	4eba f97c      	jsr 16f2 _WINDOW_+0x4a(pc)
    1d78:	2432 2800      	move.l (0,a2,d2.l),d2
    1d7c:	0682 0000 0415 	addi.l #1045,d2
    1d82:	2f02           	move.l d2,-(sp)
    1d84:	4eb9 0000 1b5e 	jsr 1b5e _VALINT_
			1d86: RELOC32	.text
    1d8a:	1680           	move.b d0,(a3)
    1d8c:	4ced 0c04 fff4 	movem.l -12(a5),d2/a2-a3
    1d92:	4e5d           	unlk a5
    1d94:	4e75           	rts
    1d96:	7034           	moveq #52,d0
    1d98:	2b40 0008      	move.l d0,8(a5)
    1d9c:	4ced 0c04 fff4 	movem.l -12(a5),d2/a2-a3
    1da2:	4e5d           	unlk a5
    1da4:	4ef9 0000 011e 	jmp 11e _ERROR
			1da6: RELOC32	.text

00001daa _VALLNG_:
    1daa:	4e55 0000      	link.w a5,#0
    1dae:	48e7 2030      	movem.l d2/a2-a3,-(sp)
    1db2:	222d 0008      	move.l 8(a5),d1
    1db6:	266d 000c      	movea.l 12(a5),a3
    1dba:	0c41 000f      	cmpi.w #15,d1
    1dbe:	6238           	bhi.s 1df8 _VALLNG_+0x4e
    1dc0:	7000           	moveq #0,d0
    1dc2:	3001           	move.w d1,d0
    1dc4:	2400           	move.l d0,d2
    1dc6:	45f9 0000 0010 	lea 10 __aqb_read1,a2
			1dc8: RELOC32	.bss
    1dcc:	e58a           	lsl.l #2,d2
    1dce:	4ab2 2800      	tst.l (0,a2,d2.l)
    1dd2:	6724           	beq.s 1df8 _VALLNG_+0x4e
    1dd4:	2f00           	move.l d0,-(sp)
    1dd6:	4eba f91a      	jsr 16f2 _WINDOW_+0x4a(pc)
    1dda:	2432 2800      	move.l (0,a2,d2.l),d2
    1dde:	0682 0000 0415 	addi.l #1045,d2
    1de4:	2f02           	move.l d2,-(sp)
    1de6:	4eb9 0000 1b5e 	jsr 1b5e _VALINT_
			1de8: RELOC32	.text
    1dec:	1680           	move.b d0,(a3)
    1dee:	4ced 0c04 fff4 	movem.l -12(a5),d2/a2-a3
    1df4:	4e5d           	unlk a5
    1df6:	4e75           	rts
    1df8:	7034           	moveq #52,d0
    1dfa:	2b40 0008      	move.l d0,8(a5)
    1dfe:	4ced 0c04 fff4 	movem.l -12(a5),d2/a2-a3
    1e04:	4e5d           	unlk a5
    1e06:	4ef9 0000 011e 	jmp 11e _ERROR
			1e08: RELOC32	.text

00001e0c __aio_inputs2:
    1e0c:	4e55 0000      	link.w a5,#0
    1e10:	48e7 2030      	movem.l d2/a2-a3,-(sp)
    1e14:	222d 0008      	move.l 8(a5),d1
    1e18:	266d 000c      	movea.l 12(a5),a3
    1e1c:	0c41 000f      	cmpi.w #15,d1
    1e20:	6238           	bhi.s 1e5a __aio_inputs2+0x4e
    1e22:	7000           	moveq #0,d0
    1e24:	3001           	move.w d1,d0
    1e26:	2400           	move.l d0,d2
    1e28:	45f9 0000 0010 	lea 10 __aqb_read1,a2
			1e2a: RELOC32	.bss
    1e2e:	e58a           	lsl.l #2,d2
    1e30:	4ab2 2800      	tst.l (0,a2,d2.l)
    1e34:	6724           	beq.s 1e5a __aio_inputs2+0x4e
    1e36:	2f00           	move.l d0,-(sp)
    1e38:	4eba f8b8      	jsr 16f2 _WINDOW_+0x4a(pc)
    1e3c:	2432 2800      	move.l (0,a2,d2.l),d2
    1e40:	0682 0000 0415 	addi.l #1045,d2
    1e46:	2f02           	move.l d2,-(sp)
    1e48:	4eb9 0000 1b5e 	jsr 1b5e _VALINT_
			1e4a: RELOC32	.text
    1e4e:	3680           	move.w d0,(a3)
    1e50:	4ced 0c04 fff4 	movem.l -12(a5),d2/a2-a3
    1e56:	4e5d           	unlk a5
    1e58:	4e75           	rts
    1e5a:	7034           	moveq #52,d0
    1e5c:	2b40 0008      	move.l d0,8(a5)
    1e60:	4ced 0c04 fff4 	movem.l -12(a5),d2/a2-a3
    1e66:	4e5d           	unlk a5
    1e68:	4ef9 0000 011e 	jmp 11e _ERROR
			1e6a: RELOC32	.text

00001e6e __aio_inputu2:
    1e6e:	4e55 0000      	link.w a5,#0
    1e72:	48e7 2030      	movem.l d2/a2-a3,-(sp)
    1e76:	222d 0008      	move.l 8(a5),d1
    1e7a:	266d 000c      	movea.l 12(a5),a3
    1e7e:	0c41 000f      	cmpi.w #15,d1
    1e82:	6238           	bhi.s 1ebc __aio_inputu2+0x4e
    1e84:	7000           	moveq #0,d0
    1e86:	3001           	move.w d1,d0
    1e88:	2400           	move.l d0,d2
    1e8a:	45f9 0000 0010 	lea 10 __aqb_read1,a2
			1e8c: RELOC32	.bss
    1e90:	e58a           	lsl.l #2,d2
    1e92:	4ab2 2800      	tst.l (0,a2,d2.l)
    1e96:	6724           	beq.s 1ebc __aio_inputu2+0x4e
    1e98:	2f00           	move.l d0,-(sp)
    1e9a:	4eba f856      	jsr 16f2 _WINDOW_+0x4a(pc)
    1e9e:	2432 2800      	move.l (0,a2,d2.l),d2
    1ea2:	0682 0000 0415 	addi.l #1045,d2
    1ea8:	2f02           	move.l d2,-(sp)
    1eaa:	4eb9 0000 1c84 	jsr 1c84 _VALUINT_
			1eac: RELOC32	.text
    1eb0:	3680           	move.w d0,(a3)
    1eb2:	4ced 0c04 fff4 	movem.l -12(a5),d2/a2-a3
    1eb8:	4e5d           	unlk a5
    1eba:	4e75           	rts
    1ebc:	7034           	moveq #52,d0
    1ebe:	2b40 0008      	move.l d0,8(a5)
    1ec2:	4ced 0c04 fff4 	movem.l -12(a5),d2/a2-a3
    1ec8:	4e5d           	unlk a5
    1eca:	4ef9 0000 011e 	jmp 11e _ERROR
			1ecc: RELOC32	.text

00001ed0 _VALULNG_:
    1ed0:	4e55 0000      	link.w a5,#0
    1ed4:	48e7 2030      	movem.l d2/a2-a3,-(sp)
    1ed8:	222d 0008      	move.l 8(a5),d1
    1edc:	266d 000c      	movea.l 12(a5),a3
    1ee0:	0c41 000f      	cmpi.w #15,d1
    1ee4:	6238           	bhi.s 1f1e _VALULNG_+0x4e
    1ee6:	7000           	moveq #0,d0
    1ee8:	3001           	move.w d1,d0
    1eea:	2400           	move.l d0,d2
    1eec:	45f9 0000 0010 	lea 10 __aqb_read1,a2
			1eee: RELOC32	.bss
    1ef2:	e58a           	lsl.l #2,d2
    1ef4:	4ab2 2800      	tst.l (0,a2,d2.l)
    1ef8:	6724           	beq.s 1f1e _VALULNG_+0x4e
    1efa:	2f00           	move.l d0,-(sp)
    1efc:	4eba f7f4      	jsr 16f2 _WINDOW_+0x4a(pc)
    1f00:	2432 2800      	move.l (0,a2,d2.l),d2
    1f04:	0682 0000 0415 	addi.l #1045,d2
    1f0a:	2f02           	move.l d2,-(sp)
    1f0c:	4eb9 0000 1daa 	jsr 1daa _VALLNG_
			1f0e: RELOC32	.text
    1f12:	2680           	move.l d0,(a3)
    1f14:	4ced 0c04 fff4 	movem.l -12(a5),d2/a2-a3
    1f1a:	4e5d           	unlk a5
    1f1c:	4e75           	rts
    1f1e:	7034           	moveq #52,d0
    1f20:	2b40 0008      	move.l d0,8(a5)
    1f24:	4ced 0c04 fff4 	movem.l -12(a5),d2/a2-a3
    1f2a:	4e5d           	unlk a5
    1f2c:	4ef9 0000 011e 	jmp 11e _ERROR
			1f2e: RELOC32	.text

00001f32 __aio_inputu4:
    1f32:	4e55 0000      	link.w a5,#0
    1f36:	48e7 2030      	movem.l d2/a2-a3,-(sp)
    1f3a:	222d 0008      	move.l 8(a5),d1
    1f3e:	266d 000c      	movea.l 12(a5),a3
    1f42:	0c41 000f      	cmpi.w #15,d1
    1f46:	6238           	bhi.s 1f80 __aio_inputu4+0x4e
    1f48:	7000           	moveq #0,d0
    1f4a:	3001           	move.w d1,d0
    1f4c:	2400           	move.l d0,d2
    1f4e:	45f9 0000 0010 	lea 10 __aqb_read1,a2
			1f50: RELOC32	.bss
    1f54:	e58a           	lsl.l #2,d2
    1f56:	4ab2 2800      	tst.l (0,a2,d2.l)
    1f5a:	6724           	beq.s 1f80 __aio_inputu4+0x4e
    1f5c:	2f00           	move.l d0,-(sp)
    1f5e:	4eba f792      	jsr 16f2 _WINDOW_+0x4a(pc)
    1f62:	2432 2800      	move.l (0,a2,d2.l),d2
    1f66:	0682 0000 0415 	addi.l #1045,d2
    1f6c:	2f02           	move.l d2,-(sp)
    1f6e:	4eb9 0000 1ed0 	jsr 1ed0 _VALULNG_
			1f70: RELOC32	.text
    1f74:	2680           	move.l d0,(a3)
    1f76:	4ced 0c04 fff4 	movem.l -12(a5),d2/a2-a3
    1f7c:	4e5d           	unlk a5
    1f7e:	4e75           	rts
    1f80:	7034           	moveq #52,d0
    1f82:	2b40 0008      	move.l d0,8(a5)
    1f86:	4ced 0c04 fff4 	movem.l -12(a5),d2/a2-a3
    1f8c:	4e5d           	unlk a5
    1f8e:	4ef9 0000 011e 	jmp 11e _ERROR
			1f90: RELOC32	.text

00001f94 __aio_inputf:
    1f94:	4e55 0000      	link.w a5,#0
    1f98:	48e7 2030      	movem.l d2/a2-a3,-(sp)
    1f9c:	222d 0008      	move.l 8(a5),d1
    1fa0:	266d 000c      	movea.l 12(a5),a3
    1fa4:	0c41 000f      	cmpi.w #15,d1
    1fa8:	6238           	bhi.s 1fe2 __aio_inputf+0x4e
    1faa:	7000           	moveq #0,d0
    1fac:	3001           	move.w d1,d0
    1fae:	2400           	move.l d0,d2
    1fb0:	45f9 0000 0010 	lea 10 __aqb_read1,a2
			1fb2: RELOC32	.bss
    1fb6:	e58a           	lsl.l #2,d2
    1fb8:	4ab2 2800      	tst.l (0,a2,d2.l)
    1fbc:	6724           	beq.s 1fe2 __aio_inputf+0x4e
    1fbe:	2f00           	move.l d0,-(sp)
    1fc0:	4eba f730      	jsr 16f2 _WINDOW_+0x4a(pc)
    1fc4:	2432 2800      	move.l (0,a2,d2.l),d2
    1fc8:	0682 0000 0415 	addi.l #1045,d2
    1fce:	2f02           	move.l d2,-(sp)
    1fd0:	4eb9 0000 251a 	jsr 251a _VAL_
			1fd2: RELOC32	.text
    1fd6:	2680           	move.l d0,(a3)
    1fd8:	4ced 0c04 fff4 	movem.l -12(a5),d2/a2-a3
    1fde:	4e5d           	unlk a5
    1fe0:	4e75           	rts
    1fe2:	7034           	moveq #52,d0
    1fe4:	2b40 0008      	move.l d0,8(a5)
    1fe8:	4ced 0c04 fff4 	movem.l -12(a5),d2/a2-a3
    1fee:	4e5d           	unlk a5
    1ff0:	4ef9 0000 011e 	jmp 11e _ERROR
			1ff2: RELOC32	.text

00001ff6 __str2f_:
    1ff6:	4e55 0000      	link.w a5,#0
    1ffa:	48e7 2030      	movem.l d2/a2-a3,-(sp)
    1ffe:	222d 0008      	move.l 8(a5),d1
    2002:	266d 000c      	movea.l 12(a5),a3
    2006:	0c41 000f      	cmpi.w #15,d1
    200a:	6238           	bhi.s 2044 __str2f_+0x4e
    200c:	7000           	moveq #0,d0
    200e:	3001           	move.w d1,d0
    2010:	2400           	move.l d0,d2
    2012:	45f9 0000 0010 	lea 10 __aqb_read1,a2
			2014: RELOC32	.bss
    2018:	e58a           	lsl.l #2,d2
    201a:	4ab2 2800      	tst.l (0,a2,d2.l)
    201e:	6724           	beq.s 2044 __str2f_+0x4e
    2020:	2f00           	move.l d0,-(sp)
    2022:	4eba f6ce      	jsr 16f2 _WINDOW_+0x4a(pc)
    2026:	2432 2800      	move.l (0,a2,d2.l),d2
    202a:	0682 0000 0415 	addi.l #1045,d2
    2030:	2f02           	move.l d2,-(sp)
    2032:	4eb9 0000 0922 	jsr 922 __astr_dup
			2034: RELOC32	.text
    2038:	2680           	move.l d0,(a3)
    203a:	4ced 0c04 fff4 	movem.l -12(a5),d2/a2-a3
    2040:	4e5d           	unlk a5
    2042:	4e75           	rts
    2044:	7034           	moveq #52,d0
    2046:	2b40 0008      	move.l d0,8(a5)
    204a:	4ced 0c04 fff4 	movem.l -12(a5),d2/a2-a3
    2050:	4e5d           	unlk a5
    2052:	4ef9 0000 011e 	jmp 11e _ERROR
			2054: RELOC32	.text

00002058 __aio_open:
    2058:	4e55 0000      	link.w a5,#0
    205c:	48e7 3c32      	movem.l d2-d5/a2-a3/a6,-(sp)
    2060:	2a2d 0008      	move.l 8(a5),d5
    2064:	202d 0014      	move.l 20(a5),d0
    2068:	362d 000e      	move.w 14(a5),d3
    206c:	3200           	move.w d0,d1
    206e:	5341           	subq.w #1,d1
    2070:	0c41 000e      	cmpi.w #14,d1
    2074:	6212           	bhi.s 2088 __aio_open+0x30
    2076:	7800           	moveq #0,d4
    2078:	3800           	move.w d0,d4
    207a:	45f9 0000 0010 	lea 10 __aqb_read1,a2
			207c: RELOC32	.bss
    2080:	e58c           	lsl.l #2,d4
    2082:	4ab2 4800      	tst.l (0,a2,d4.l)
    2086:	6712           	beq.s 209a __aio_open+0x42
    2088:	7034           	moveq #52,d0
    208a:	2b40 0008      	move.l d0,8(a5)
    208e:	4cdf 4c3c      	movem.l (sp)+,d2-d5/a2-a3/a6
    2092:	4e5d           	unlk a5
    2094:	4ef9 0000 011e 	jmp 11e _ERROR
			2096: RELOC32	.text
    209a:	2c79 0000 0000 	movea.l 0 _start,a6
			209c: RELOC32	.bss
    20a0:	203c 0000 0816 	move.l #2070,d0
    20a6:	7201           	moveq #1,d1
    20a8:	4841           	swap d1
    20aa:	4eae fd54      	jsr -684(a6)
    20ae:	2640           	movea.l d0,a3
    20b0:	4a80           	tst.l d0
    20b2:	6700 009c      	beq.w 2150 __aio_open+0xf8
    20b6:	0c43 0002      	cmpi.w #2,d3
    20ba:	56c2           	sne d2
    20bc:	4882           	ext.w d2
    20be:	48c2           	ext.l d2
    20c0:	2c79 0000 0004 	movea.l 4 _start+0x4,a6
			20c2: RELOC32	.bss
    20c6:	2205           	move.l d5,d1
    20c8:	0682 0000 03ee 	addi.l #1006,d2
    20ce:	4eae ffe2      	jsr -30(a6)
    20d2:	2740 0004      	move.l d0,4(a3)
    20d6:	675a           	beq.s 2132 __aio_open+0xda
    20d8:	0c43 0003      	cmpi.w #3,d3
    20dc:	6720           	beq.s 20fe __aio_open+0xa6
    20de:	e588           	lsl.l #2,d0
    20e0:	2680           	move.l d0,(a3)
    20e2:	42ab 0408      	clr.l 1032(a3)
    20e6:	42ab 040c      	clr.l 1036(a3)
    20ea:	426b 0410      	clr.w 1040(a3)
    20ee:	426b 0412      	clr.w 1042(a3)
    20f2:	258b 4800      	move.l a3,(0,a2,d4.l)
    20f6:	4cdf 4c3c      	movem.l (sp)+,d2-d5/a2-a3/a6
    20fa:	4e5d           	unlk a5
    20fc:	4e75           	rts
    20fe:	2c79 0000 0004 	movea.l 4 _start+0x4,a6
			2100: RELOC32	.bss
    2104:	2200           	move.l d0,d1
    2106:	7400           	moveq #0,d2
    2108:	7601           	moveq #1,d3
    210a:	4eae ffbe      	jsr -66(a6)
    210e:	202b 0004      	move.l 4(a3),d0
    2112:	e588           	lsl.l #2,d0
    2114:	2680           	move.l d0,(a3)
    2116:	42ab 0408      	clr.l 1032(a3)
    211a:	42ab 040c      	clr.l 1036(a3)
    211e:	426b 0410      	clr.w 1040(a3)
    2122:	426b 0412      	clr.w 1042(a3)
    2126:	258b 4800      	move.l a3,(0,a2,d4.l)
    212a:	4cdf 4c3c      	movem.l (sp)+,d2-d5/a2-a3/a6
    212e:	4e5d           	unlk a5
    2130:	4e75           	rts
    2132:	224b           	movea.l a3,a1
    2134:	2c79 0000 0000 	movea.l 0 _start,a6
			2136: RELOC32	.bss
    213a:	4eae fd4e      	jsr -690(a6)
    213e:	7040           	moveq #64,d0
    2140:	2b40 0008      	move.l d0,8(a5)
    2144:	4cdf 4c3c      	movem.l (sp)+,d2-d5/a2-a3/a6
    2148:	4e5d           	unlk a5
    214a:	4ef9 0000 011e 	jmp 11e _ERROR
			214c: RELOC32	.text
    2150:	7007           	moveq #7,d0
    2152:	2b40 0008      	move.l d0,8(a5)
    2156:	4cdf 4c3c      	movem.l (sp)+,d2-d5/a2-a3/a6
    215a:	4e5d           	unlk a5
    215c:	4ef9 0000 011e 	jmp 11e _ERROR
			215e: RELOC32	.text

00002162 __aio_getfh:
    2162:	4e55 0000      	link.w a5,#0
    2166:	222d 0008      	move.l 8(a5),d1
    216a:	3001           	move.w d1,d0
    216c:	5340           	subq.w #1,d0
    216e:	0c40 000e      	cmpi.w #14,d0
    2172:	621a           	bhi.s 218e __aio_getfh+0x2c
    2174:	7000           	moveq #0,d0
    2176:	3001           	move.w d1,d0
    2178:	41f9 0000 0010 	lea 10 __aqb_read1,a0
			217a: RELOC32	.bss
    217e:	e588           	lsl.l #2,d0
    2180:	2070 0800      	movea.l (0,a0,d0.l),a0
    2184:	2008           	move.l a0,d0
    2186:	6706           	beq.s 218e __aio_getfh+0x2c
    2188:	2010           	move.l (a0),d0
    218a:	4e5d           	unlk a5
    218c:	4e75           	rts
    218e:	4878 0034      	pea 34 ___umodsi4+0x4
    2192:	4eb9 0000 011e 	jsr 11e _ERROR
			2194: RELOC32	.text
    2198:	7000           	moveq #0,d0
    219a:	4e5d           	unlk a5
    219c:	4e75           	rts

0000219e __aio_init:
    219e:	4e55 0000      	link.w a5,#0
    21a2:	48e7 3002      	movem.l d2-d3/a6,-(sp)
    21a6:	2c79 0000 0004 	movea.l 4 _start+0x4,a6
			21a8: RELOC32	.bss
    21ac:	4eae ffc4      	jsr -60(a6)
    21b0:	23c0 0000 0050 	move.l d0,50 __aqb_read2+0x10
			21b2: RELOC32	.bss
    21b6:	4eae ffca      	jsr -54(a6)
    21ba:	23c0 0000 0054 	move.l d0,54 __aqb_read2+0x14
			21bc: RELOC32	.bss
    21c0:	2439 0000 0050 	move.l 50 __aqb_read2+0x10,d2
			21c2: RELOC32	.bss
    21c6:	4879 0000 0005 	pea 5 _start+0x5
			21c8: RELOC32	.data
    21cc:	4eb9 0000 03f0 	jsr 3f0 _LEN_
			21ce: RELOC32	.text
    21d2:	2c79 0000 0004 	movea.l 4 _start+0x4,a6
			21d4: RELOC32	.bss
    21d8:	2202           	move.l d2,d1
    21da:	243c 0000 0005 	move.l #5,d2
			21dc: RELOC32	.data
    21e0:	2600           	move.l d0,d3
    21e2:	4eae ffd0      	jsr -48(a6)
    21e6:	4878 0040      	pea 40 __aqb_read2
    21ea:	42a7           	clr.l -(sp)
    21ec:	4879 0000 0010 	pea 10 __aqb_read1
			21ee: RELOC32	.bss
    21f2:	4eb9 0000 264e 	jsr 264e _MEMSET
			21f4: RELOC32	.text
    21f8:	4ced 400c fff4 	movem.l -12(a5),d2-d3/a6
    21fe:	4e5d           	unlk a5
    2200:	4e75           	rts

00002202 __aio_close:
    2202:	4e55 0000      	link.w a5,#0
    2206:	48e7 2022      	movem.l d2/a2/a6,-(sp)
    220a:	202d 0008      	move.l 8(a5),d0
    220e:	4a40           	tst.w d0
    2210:	6600 02bc      	bne.w 24ce _POS_+0x90
    2214:	45f9 0000 0010 	lea 10 __aqb_read1,a2
			2216: RELOC32	.bss
    221a:	206a 0004      	movea.l 4(a2),a0
    221e:	2008           	move.l a0,d0
    2220:	6720           	beq.s 2242 __aio_close+0x40
    2222:	2228 0004      	move.l 4(a0),d1
    2226:	2c79 0000 0004 	movea.l 4 _start+0x4,a6
			2228: RELOC32	.bss
    222c:	4eae ffdc      	jsr -36(a6)
    2230:	226a 0004      	movea.l 4(a2),a1
    2234:	2c79 0000 0000 	movea.l 0 _start,a6
			2236: RELOC32	.bss
    223a:	4eae fd4e      	jsr -690(a6)
    223e:	42aa 0004      	clr.l 4(a2)
    2242:	45f9 0000 0010 	lea 10 __aqb_read1,a2
			2244: RELOC32	.bss
    2248:	206a 0008      	movea.l 8(a2),a0
    224c:	2008           	move.l a0,d0
    224e:	6720           	beq.s 2270 __aio_close+0x6e
    2250:	2228 0004      	move.l 4(a0),d1
    2254:	2c79 0000 0004 	movea.l 4 _start+0x4,a6
			2256: RELOC32	.bss
    225a:	4eae ffdc      	jsr -36(a6)
    225e:	226a 0008      	movea.l 8(a2),a1
    2262:	2c79 0000 0000 	movea.l 0 _start,a6
			2264: RELOC32	.bss
    2268:	4eae fd4e      	jsr -690(a6)
    226c:	42aa 0008      	clr.l 8(a2)
    2270:	45f9 0000 0010 	lea 10 __aqb_read1,a2
			2272: RELOC32	.bss
    2276:	206a 000c      	movea.l 12(a2),a0
    227a:	2008           	move.l a0,d0
    227c:	6720           	beq.s 229e __aio_close+0x9c
    227e:	2228 0004      	move.l 4(a0),d1
    2282:	2c79 0000 0004 	movea.l 4 _start+0x4,a6
			2284: RELOC32	.bss
    2288:	4eae ffdc      	jsr -36(a6)
    228c:	226a 000c      	movea.l 12(a2),a1
    2290:	2c79 0000 0000 	movea.l 0 _start,a6
			2292: RELOC32	.bss
    2296:	4eae fd4e      	jsr -690(a6)
    229a:	42aa 000c      	clr.l 12(a2)
    229e:	45f9 0000 0010 	lea 10 __aqb_read1,a2
			22a0: RELOC32	.bss
    22a4:	206a 0010      	movea.l 16(a2),a0
    22a8:	2008           	move.l a0,d0
    22aa:	6720           	beq.s 22cc __aio_close+0xca
    22ac:	2228 0004      	move.l 4(a0),d1
    22b0:	2c79 0000 0004 	movea.l 4 _start+0x4,a6
			22b2: RELOC32	.bss
    22b6:	4eae ffdc      	jsr -36(a6)
    22ba:	226a 0010      	movea.l 16(a2),a1
    22be:	2c79 0000 0000 	movea.l 0 _start,a6
			22c0: RELOC32	.bss
    22c4:	4eae fd4e      	jsr -690(a6)
    22c8:	42aa 0010      	clr.l 16(a2)
    22cc:	45f9 0000 0010 	lea 10 __aqb_read1,a2
			22ce: RELOC32	.bss
    22d2:	206a 0014      	movea.l 20(a2),a0
    22d6:	2008           	move.l a0,d0
    22d8:	6720           	beq.s 22fa __aio_close+0xf8
    22da:	2228 0004      	move.l 4(a0),d1
    22de:	2c79 0000 0004 	movea.l 4 _start+0x4,a6
			22e0: RELOC32	.bss
    22e4:	4eae ffdc      	jsr -36(a6)
    22e8:	226a 0014      	movea.l 20(a2),a1
    22ec:	2c79 0000 0000 	movea.l 0 _start,a6
			22ee: RELOC32	.bss
    22f2:	4eae fd4e      	jsr -690(a6)
    22f6:	42aa 0014      	clr.l 20(a2)
    22fa:	45f9 0000 0010 	lea 10 __aqb_read1,a2
			22fc: RELOC32	.bss
    2300:	206a 0018      	movea.l 24(a2),a0
    2304:	2008           	move.l a0,d0

00002306 _LOCATE_XY:
    2306:	6720           	beq.s 2328 _LOCATE_XY+0x22
    2308:	2228 0004      	move.l 4(a0),d1
    230c:	2c79 0000 0004 	movea.l 4 _start+0x4,a6
			230e: RELOC32	.bss
    2312:	4eae ffdc      	jsr -36(a6)
    2316:	226a 0018      	movea.l 24(a2),a1
    231a:	2c79 0000 0000 	movea.l 0 _start,a6
			231c: RELOC32	.bss
    2320:	4eae fd4e      	jsr -690(a6)
    2324:	42aa 0018      	clr.l 24(a2)
    2328:	45f9 0000 0010 	lea 10 __aqb_read1,a2
			232a: RELOC32	.bss
    232e:	206a 001c      	movea.l 28(a2),a0
    2332:	2008           	move.l a0,d0
    2334:	6720           	beq.s 2356 _LOCATE_XY+0x50
    2336:	2228 0004      	move.l 4(a0),d1
    233a:	2c79 0000 0004 	movea.l 4 _start+0x4,a6
			233c: RELOC32	.bss
    2340:	4eae ffdc      	jsr -36(a6)
    2344:	226a 001c      	movea.l 28(a2),a1
    2348:	2c79 0000 0000 	movea.l 0 _start,a6
			234a: RELOC32	.bss
    234e:	4eae fd4e      	jsr -690(a6)
    2352:	42aa 001c      	clr.l 28(a2)
    2356:	45f9 0000 0010 	lea 10 __aqb_read1,a2
			2358: RELOC32	.bss
    235c:	206a 0020      	movea.l 32(a2),a0
    2360:	2008           	move.l a0,d0
    2362:	6720           	beq.s 2384 _LOCATE_XY+0x7e
    2364:	2228 0004      	move.l 4(a0),d1
    2368:	2c79 0000 0004 	movea.l 4 _start+0x4,a6
			236a: RELOC32	.bss
    236e:	4eae ffdc      	jsr -36(a6)
    2372:	226a 0020      	movea.l 32(a2),a1
    2376:	2c79 0000 0000 	movea.l 0 _start,a6
			2378: RELOC32	.bss
    237c:	4eae fd4e      	jsr -690(a6)
    2380:	42aa 0020      	clr.l 32(a2)
    2384:	45f9 0000 0010 	lea 10 __aqb_read1,a2
			2386: RELOC32	.bss
    238a:	206a 0024      	movea.l 36(a2),a0
    238e:	2008           	move.l a0,d0
    2390:	6720           	beq.s 23b2 _LOCATE_XY+0xac
    2392:	2228 0004      	move.l 4(a0),d1
    2396:	2c79 0000 0004 	movea.l 4 _start+0x4,a6
			2398: RELOC32	.bss
    239c:	4eae ffdc      	jsr -36(a6)
    23a0:	226a 0024      	movea.l 36(a2),a1
    23a4:	2c79 0000 0000 	movea.l 0 _start,a6
			23a6: RELOC32	.bss
    23aa:	4eae fd4e      	jsr -690(a6)
    23ae:	42aa 0024      	clr.l 36(a2)
    23b2:	45f9           	.short 0x45f9

000023b4 _CSRLIN_:
    23b4:	0000 0010      	ori.b #16,d0
			23b4: RELOC32	.bss
    23b8:	206a 0028      	movea.l 40(a2),a0
    23bc:	2008           	move.l a0,d0
    23be:	6720           	beq.s 23e0 _CSRLIN_+0x2c
    23c0:	2228 0004      	move.l 4(a0),d1
    23c4:	2c79 0000 0004 	movea.l 4 _start+0x4,a6
			23c6: RELOC32	.bss
    23ca:	4eae ffdc      	jsr -36(a6)
    23ce:	226a 0028      	movea.l 40(a2),a1
    23d2:	2c79 0000 0000 	movea.l 0 _start,a6
			23d4: RELOC32	.bss
    23d8:	4eae fd4e      	jsr -690(a6)
    23dc:	42aa 0028      	clr.l 40(a2)
    23e0:	45f9 0000 0010 	lea 10 __aqb_read1,a2
			23e2: RELOC32	.bss
    23e6:	206a 002c      	movea.l 44(a2),a0
    23ea:	2008           	move.l a0,d0
    23ec:	6720           	beq.s 240e _CSRLIN_+0x5a
    23ee:	2228 0004      	move.l 4(a0),d1
    23f2:	2c79 0000 0004 	movea.l 4 _start+0x4,a6
			23f4: RELOC32	.bss
    23f8:	4eae ffdc      	jsr -36(a6)
    23fc:	226a 002c      	movea.l 44(a2),a1
    2400:	2c79 0000 0000 	movea.l 0 _start,a6
			2402: RELOC32	.bss
    2406:	4eae fd4e      	jsr -690(a6)
    240a:	42aa 002c      	clr.l 44(a2)
    240e:	45f9 0000 0010 	lea 10 __aqb_read1,a2
			2410: RELOC32	.bss
    2414:	206a 0030      	movea.l 48(a2),a0
    2418:	2008           	move.l a0,d0
    241a:	6720           	beq.s 243c _CSRLIN_+0x88
    241c:	2228 0004      	move.l 4(a0),d1
    2420:	2c79 0000 0004 	movea.l 4 _start+0x4,a6
			2422: RELOC32	.bss
    2426:	4eae ffdc      	jsr -36(a6)
    242a:	226a 0030      	movea.l 48(a2),a1
    242e:	2c79 0000 0000 	movea.l 0 _start,a6
			2430: RELOC32	.bss
    2434:	4eae fd4e      	jsr -690(a6)
    2438:	42aa 0030      	clr.l 48(a2)
    243c:	45f9           	.short 0x45f9

0000243e _POS_:
    243e:	0000 0010      	ori.b #16,d0
			243e: RELOC32	.bss
    2442:	206a 0034      	movea.l 52(a2),a0
    2446:	2008           	move.l a0,d0
    2448:	6720           	beq.s 246a _POS_+0x2c
    244a:	2228 0004      	move.l 4(a0),d1
    244e:	2c79 0000 0004 	movea.l 4 _start+0x4,a6
			2450: RELOC32	.bss
    2454:	4eae ffdc      	jsr -36(a6)
    2458:	226a 0034      	movea.l 52(a2),a1
    245c:	2c79 0000 0000 	movea.l 0 _start,a6
			245e: RELOC32	.bss
    2462:	4eae fd4e      	jsr -690(a6)
    2466:	42aa 0034      	clr.l 52(a2)
    246a:	45f9 0000 0010 	lea 10 __aqb_read1,a2
			246c: RELOC32	.bss
    2470:	206a 0038      	movea.l 56(a2),a0
    2474:	2008           	move.l a0,d0
    2476:	6720           	beq.s 2498 _POS_+0x5a
    2478:	2228 0004      	move.l 4(a0),d1
    247c:	2c79 0000 0004 	movea.l 4 _start+0x4,a6
			247e: RELOC32	.bss
    2482:	4eae ffdc      	jsr -36(a6)
    2486:	226a 0038      	movea.l 56(a2),a1
    248a:	2c79 0000 0000 	movea.l 0 _start,a6
			248c: RELOC32	.bss
    2490:	4eae fd4e      	jsr -690(a6)
    2494:	42aa 0038      	clr.l 56(a2)
    2498:	45f9 0000 0010 	lea 10 __aqb_read1,a2
			249a: RELOC32	.bss
    249e:	206a 003c      	movea.l 60(a2),a0
    24a2:	2008           	move.l a0,d0
    24a4:	6720           	beq.s 24c6 _POS_+0x88
    24a6:	2228 0004      	move.l 4(a0),d1
    24aa:	2c79 0000 0004 	movea.l 4 _start+0x4,a6
			24ac: RELOC32	.bss
    24b0:	4eae ffdc      	jsr -36(a6)
    24b4:	226a 003c      	movea.l 60(a2),a1
    24b8:	2c79 0000 0000 	movea.l 0 _start,a6
			24ba: RELOC32	.bss
    24be:	4eae fd4e      	jsr -690(a6)
    24c2:	42aa 003c      	clr.l 60(a2)
    24c6:	4cdf 4404      	movem.l (sp)+,d2/a2/a6
    24ca:	4e5d           	unlk a5
    24cc:	4e75           	rts
    24ce:	0c40 000f      	cmpi.w #15,d0
    24d2:	623c           	bhi.s 2510 _POS_+0xd2
    24d4:	7400           	moveq #0,d2
    24d6:	3400           	move.w d0,d2
    24d8:	e58a           	lsl.l #2,d2
    24da:	45f9 0000 0010 	lea 10 __aqb_read1,a2
			24dc: RELOC32	.bss
    24e0:	2072 2800      	movea.l (0,a2,d2.l),a0
    24e4:	2008           	move.l a0,d0
    24e6:	6728           	beq.s 2510 _POS_+0xd2
    24e8:	2228 0004      	move.l 4(a0),d1
    24ec:	2c79 0000 0004 	movea.l 4 _start+0x4,a6
			24ee: RELOC32	.bss
    24f2:	4eae ffdc      	jsr -36(a6)
    24f6:	2272 2800      	movea.l (0,a2,d2.l),a1
    24fa:	2c79 0000 0000 	movea.l 0 _start,a6
			24fc: RELOC32	.bss
    2500:	4eae fd4e      	jsr -690(a6)
    2504:	42b2 2800      	clr.l (0,a2,d2.l)
    2508:	4cdf 4404      	movem.l (sp)+,d2/a2/a6
    250c:	4e5d           	unlk a5
    250e:	4e75           	rts
    2510:	7034           	moveq #52,d0
    2512:	2b40 0008      	move.l d0,8(a5)
    2516:	4cdf 4404      	movem.l (sp)+,d2/a2/a6

0000251a _VAL_:
    251a:	4e5d           	unlk a5
    251c:	4ef9 0000 011e 	jmp 11e _ERROR
			251e: RELOC32	.text

00002522 _EOF_:
    2522:	4e55 0000      	link.w a5,#0
    2526:	48e7 3022      	movem.l d2-d3/a2/a6,-(sp)
    252a:	222d 0008      	move.l 8(a5),d1
    252e:	0c41 000f      	cmpi.w #15,d1
    2532:	6268           	bhi.s 259c _EOF_+0x7a
    2534:	7000           	moveq #0,d0
    2536:	3001           	move.w d1,d0
    2538:	41f9 0000 0010 	lea 10 __aqb_read1,a0
			253a: RELOC32	.bss
    253e:	e588           	lsl.l #2,d0
    2540:	2470 0800      	movea.l (0,a0,d0.l),a2
    2544:	200a           	move.l a2,d0
    2546:	6754           	beq.s 259c _EOF_+0x7a
    2548:	202a 0408      	move.l 1032(a2),d0
    254c:	b0aa 040c      	cmp.l 1036(a2),d0
    2550:	6d3e           	blt.s 2590 _EOF_+0x6e
    2552:	4a6a 0410      	tst.w 1040(a2)
    2556:	665c           	bne.s 25b4 _EOF_+0x92
    2558:	2c79 0000 0004 	movea.l 4 _start+0x4,a6
			255a: RELOC32	.bss
    255e:	222a 0004      	move.l 4(a2),d1
    2562:	240a           	move.l a2,d2
    2564:	5082           	addq.l #8,d2
    2566:	263c 0000 0400 	move.l #1024,d3
    256c:	4eae ffd6      	jsr -42(a6)
    2570:	4a80           	tst.l d0
    2572:	6d4c           	blt.s 25c0 _EOF_+0x9e
    2574:	42aa 0408      	clr.l 1032(a2)
    2578:	2540 040c      	move.l d0,1036(a2)
    257c:	6612           	bne.s 2590 _EOF_+0x6e
    257e:	357c 0001 0410 	move.w #1,1040(a2)
    2584:	7001           	moveq #1,d0
    2586:	4ced 440c fff0 	movem.l -16(a5),d2-d3/a2/a6
    258c:	4e5d           	unlk a5
    258e:	4e75           	rts
    2590:	4240           	clr.w d0
    2592:	4ced 440c fff0 	movem.l -16(a5),d2-d3/a2/a6
    2598:	4e5d           	unlk a5
    259a:	4e75           	rts
    259c:	4878 0034      	pea 34 ___umodsi4+0x4
    25a0:	4eb9 0000 011e 	jsr 11e _ERROR
			25a2: RELOC32	.text
    25a6:	7001           	moveq #1,d0
    25a8:	588f           	addq.l #4,sp
    25aa:	4ced 440c fff0 	movem.l -16(a5),d2-d3/a2/a6
    25b0:	4e5d           	unlk a5
    25b2:	4e75           	rts
    25b4:	7001           	moveq #1,d0
    25b6:	4ced 440c fff0 	movem.l -16(a5),d2-d3/a2/a6
    25bc:	4e5d           	unlk a5
    25be:	4e75           	rts
    25c0:	357c 0001 0410 	move.w #1,1040(a2)
    25c6:	4878 0039      	pea 39 __aqb_clear+0x3
    25ca:	4eb9 0000 011e 	jsr 11e _ERROR
			25cc: RELOC32	.text
    25d0:	7001           	moveq #1,d0
    25d2:	4ced 440c fff0 	movem.l -16(a5),d2-d3/a2/a6
    25d8:	4e5d           	unlk a5
    25da:	4e75           	rts

000025dc _CLS:
    25dc:	4e55 fffc      	link.w a5,#-4
    25e0:	48e7 3002      	movem.l d2-d3/a6,-(sp)
    25e4:	2079 0000 0008 	movea.l 8 ___mulsi4+0x2,a0
			25e6: RELOC32	.bss
    25ea:	2008           	move.l a0,d0
    25ec:	6706           	beq.s 25f4 _CLS+0x18
    25ee:	4e90           	jsr (a0)
    25f0:	4a40           	tst.w d0
    25f2:	661c           	bne.s 2610 _CLS+0x34
    25f4:	1b7c 000c ffff 	move.b #12,-1(a5)
    25fa:	2c79 0000 0004 	movea.l 4 _start+0x4,a6
			25fc: RELOC32	.bss
    2600:	2239 0000 0050 	move.l 50 __aqb_read2+0x10,d1
			2602: RELOC32	.bss
    2606:	240d           	move.l a5,d2
    2608:	5382           	subq.l #1,d2
    260a:	7601           	moveq #1,d3
    260c:	4eae ffd0      	jsr -48(a6)
    2610:	4ced 400c fff0 	movem.l -16(a5),d2-d3/a6
    2616:	4e5d           	unlk a5
    2618:	4e75           	rts

0000261a _LOCATE:
    261a:	4e55 ffec      	link.w a5,#-20
    261e:	48e7 303a      	movem.l d2-d3/a2-a4/a6,-(sp)
    2622:	246d 0008      	movea.l 8(a5),a2
    2626:	2079 0000 000c 	movea.l c _SCREEN,a0
			2628: RELOC32	.bss
    262c:	266d 000c      	movea.l 12(a5),a3
    2630:	2008           	move.l a0,d0
    2632:	6700 0082      	beq.w 26b6 __astr_init+0x3a
    2636:	364b           	movea.w a3,a3
    2638:	2f0b           	move.l a3,-(sp)
    263a:	344a           	movea.w a2,a2
    263c:	2f0a           	move.l a2,-(sp)
    263e:	4e90           	jsr (a0)
    2640:	508f           	addq.l #8,sp
    2642:	4a40           	tst.w d0
    2644:	6666           	bne.s 26ac __astr_init+0x30
    2646:	1b7c 009b ffec 	move.b #-101,-20(a5)
    264c:	42a7           	clr.l -(sp)

0000264e _MEMSET:
    264e:	4878 000a      	pea a ___mulsi4+0x4
    2652:	74ec           	moveq #-20,d2
    2654:	d48d           	add.l a5,d2
    2656:	486d ffed      	pea -19(a5)
    265a:	2f0a           	move.l a2,-(sp)
    265c:	49f9 0000 0000 	lea 0 _start,a4
			265e: RELOC32	.text
    2662:	4e94           	jsr (a4)
    2664:	2f02           	move.l d2,-(sp)
    2666:	45f9 0000 03f0 	lea 3f0 _LEN_,a2
			2668: RELOC32	.text
    266c:	4e92           	jsr (a2)
    266e:	1bbc 003b 08ec 	move.b #59,(-20,a5,d0.l)
    2674:	42a7           	clr.l -(sp)
    2676:	4878 000a      	pea a ___mulsi4+0x4
    267a:	2042           	movea.l d2,a0

0000267c __astr_init:
    267c:	4870 0801      	pea (1,a0,d0.l)
    2680:	2f0b           	move.l a3,-(sp)
    2682:	4e94           	jsr (a4)
    2684:	4fef 0020      	lea 32(sp),sp
    2688:	2e82           	move.l d2,(sp)
    268a:	4e92           	jsr (a2)
    268c:	1bbc 0048 08ec 	move.b #72,(-20,a5,d0.l)
    2692:	2600           	move.l d0,d3
    2694:	4235 08ed      	clr.b (-19,a5,d0.l)
    2698:	5283           	addq.l #1,d3
    269a:	2239 0000 0050 	move.l 50 __aqb_read2+0x10,d1
			269c: RELOC32	.bss
    26a0:	2c79 0000 0004 	movea.l 4 _start+0x4,a6
			26a2: RELOC32	.bss
    26a6:	4eae ffd0      	jsr -48(a6)
    26aa:	588f           	addq.l #4,sp
    26ac:	4ced 5c0c ffd4 	movem.l -44(a5),d2-d3/a2-a4/a6
    26b2:	4e5d           	unlk a5
    26b4:	4e75           	rts
    26b6:	344a           	movea.w a2,a2
    26b8:	364b           	movea.w a3,a3
    26ba:	1b7c 009b ffec 	move.b #-101,-20(a5)
    26c0:	42a7           	clr.l -(sp)
    26c2:	4878 000a      	pea a ___mulsi4+0x4
    26c6:	74ec           	moveq #-20,d2
    26c8:	d48d           	add.l a5,d2
    26ca:	486d ffed      	pea -19(a5)
    26ce:	2f0a           	move.l a2,-(sp)
    26d0:	49f9 0000 0000 	lea 0 _start,a4
			26d2: RELOC32	.text
    26d6:	4e94           	jsr (a4)
    26d8:	2f02           	move.l d2,-(sp)
    26da:	45f9 0000 03f0 	lea 3f0 _LEN_,a2
			26dc: RELOC32	.text
    26e0:	4e92           	jsr (a2)
    26e2:	1bbc 003b 08ec 	move.b #59,(-20,a5,d0.l)
    26e8:	42a7           	clr.l -(sp)
    26ea:	4878 000a      	pea a ___mulsi4+0x4
    26ee:	2042           	movea.l d2,a0
    26f0:	4870 0801      	pea (1,a0,d0.l)
    26f4:	2f0b           	move.l a3,-(sp)
    26f6:	4e94           	jsr (a4)
    26f8:	4fef 0020      	lea 32(sp),sp
    26fc:	2e82           	move.l d2,(sp)
    26fe:	4e92           	jsr (a2)
    2700:	1bbc 0048 08ec 	move.b #72,(-20,a5,d0.l)
    2706:	2600           	move.l d0,d3
    2708:	4235 08ed      	clr.b (-19,a5,d0.l)
    270c:	5283           	addq.l #1,d3
    270e:	2239 0000 0050 	move.l 50 __aqb_read2+0x10,d1
			2710: RELOC32	.bss
    2714:	2c79 0000 0004 	movea.l 4 _start+0x4,a6
			2716: RELOC32	.bss
    271a:	4eae ffd0      	jsr -48(a6)
    271e:	608c           	bra.s 26ac __astr_init+0x30

00002720 __aio_shutdown:
    2720:	4e55 0000      	link.w a5,#0
    2724:	48e7 3002      	movem.l d2-d3/a6,-(sp)
    2728:	2079 0000 0010 	movea.l 10 __aqb_read1,a0
			272a: RELOC32	.bss
    272e:	2008           	move.l a0,d0
    2730:	670e           	beq.s 2740 __aio_shutdown+0x20
    2732:	2228 0004      	move.l 4(a0),d1
    2736:	2c79 0000 0004 	movea.l 4 _start+0x4,a6
			2738: RELOC32	.bss
    273c:	4eae ffdc      	jsr -36(a6)
    2740:	2079 0000 0014 	movea.l 14 __aqb_read1+0x4,a0
			2742: RELOC32	.bss
    2746:	2008           	move.l a0,d0
    2748:	670e           	beq.s 2758 __aio_shutdown+0x38
    274a:	2228 0004      	move.l 4(a0),d1
    274e:	2c79 0000 0004 	movea.l 4 _start+0x4,a6
			2750: RELOC32	.bss
    2754:	4eae ffdc      	jsr -36(a6)
    2758:	2079 0000 0018 	movea.l 18 ___DARRAY_T_REDIM,a0
			275a: RELOC32	.bss
    275e:	2008           	move.l a0,d0
    2760:	670e           	beq.s 2770 __aio_shutdown+0x50
    2762:	2228 0004      	move.l 4(a0),d1
    2766:	2c79 0000 0004 	movea.l 4 _start+0x4,a6
			2768: RELOC32	.bss
    276c:	4eae ffdc      	jsr -36(a6)
    2770:	2079 0000 001c 	movea.l 1c __atimer_shutdown,a0
			2772: RELOC32	.bss
    2776:	2008           	move.l a0,d0
    2778:	670e           	beq.s 2788 __aio_shutdown+0x68
    277a:	2228 0004      	move.l 4(a0),d1
    277e:	2c79 0000 0004 	movea.l 4 _start+0x4,a6
			2780: RELOC32	.bss
    2784:	4eae ffdc      	jsr -36(a6)
    2788:	2079 0000 0020 	movea.l 20 __debug_putc,a0
			278a: RELOC32	.bss
    278e:	2008           	move.l a0,d0
    2790:	670e           	beq.s 27a0 __aio_shutdown+0x80
    2792:	2228 0004      	move.l 4(a0),d1
    2796:	2c79 0000 0004 	movea.l 4 _start+0x4,a6
			2798: RELOC32	.bss
    279c:	4eae ffdc      	jsr -36(a6)
    27a0:	2079 0000 0024 	movea.l 24 __debug_putc+0x4,a0
			27a2: RELOC32	.bss
    27a6:	2008           	move.l a0,d0
    27a8:	670e           	beq.s 27b8 __aio_shutdown+0x98
    27aa:	2228 0004      	move.l 4(a0),d1
    27ae:	2c79 0000 0004 	movea.l 4 _start+0x4,a6
			27b0: RELOC32	.bss
    27b4:	4eae ffdc      	jsr -36(a6)
    27b8:	2079 0000 0028 	movea.l 28 __debug_putc+0x8,a0
			27ba: RELOC32	.bss
    27be:	2008           	move.l a0,d0
    27c0:	670e           	beq.s 27d0 __aio_shutdown+0xb0
    27c2:	2228 0004      	move.l 4(a0),d1
    27c6:	2c79 0000 0004 	movea.l 4 _start+0x4,a6
			27c8: RELOC32	.bss
    27cc:	4eae ffdc      	jsr -36(a6)
    27d0:	2079 0000 002c 	movea.l 2c ___umodsi3+0x2,a0
			27d2: RELOC32	.bss
    27d6:	2008           	move.l a0,d0
    27d8:	670e           	beq.s 27e8 __aio_shutdown+0xc8
    27da:	2228 0004      	move.l 4(a0),d1
    27de:	2c79 0000 0004 	movea.l 4 _start+0x4,a6
			27e0: RELOC32	.bss
    27e4:	4eae ffdc      	jsr -36(a6)
    27e8:	2079 0000 0030 	movea.l 30 ___umodsi4,a0
			27ea: RELOC32	.bss
    27ee:	2008           	move.l a0,d0
    27f0:	670e           	beq.s 2800 __aio_shutdown+0xe0
    27f2:	2228 0004      	move.l 4(a0),d1
    27f6:	2c79 0000 0004 	movea.l 4 _start+0x4,a6
			27f8: RELOC32	.bss
    27fc:	4eae ffdc      	jsr -36(a6)
    2800:	2079 0000 0034 	movea.l 34 ___umodsi4+0x4,a0
			2802: RELOC32	.bss
    2806:	2008           	move.l a0,d0
    2808:	670e           	beq.s 2818 _PALETTE+0xe

0000280a _PALETTE:
    280a:	2228 0004      	move.l 4(a0),d1
    280e:	2c79 0000 0004 	movea.l 4 _start+0x4,a6
			2810: RELOC32	.bss
    2814:	4eae ffdc      	jsr -36(a6)
    2818:	2079 0000 0038 	movea.l 38 __aqb_clear+0x2,a0
			281a: RELOC32	.bss
    281e:	2008           	move.l a0,d0
    2820:	670e           	beq.s 2830 _PALETTE+0x26
    2822:	2228 0004      	move.l 4(a0),d1
    2826:	2c79 0000 0004 	movea.l 4 _start+0x4,a6
			2828: RELOC32	.bss
    282c:	4eae ffdc      	jsr -36(a6)
    2830:	2079 0000 003c 	movea.l 3c ___udivsi4,a0
			2832: RELOC32	.bss
    2836:	2008           	move.l a0,d0
    2838:	670e           	beq.s 2848 _PALETTE+0x3e
    283a:	2228 0004      	move.l 4(a0),d1
    283e:	2c79 0000 0004 	movea.l 4 _start+0x4,a6
			2840: RELOC32	.bss
    2844:	4eae ffdc      	jsr -36(a6)
    2848:	2079 0000 0040 	movea.l 40 __aqb_read2,a0
			284a: RELOC32	.bss
    284e:	2008           	move.l a0,d0
    2850:	670e           	beq.s 2860 _PALETTE+0x56
    2852:	2228 0004      	move.l 4(a0),d1
    2856:	2c79 0000 0004 	movea.l 4 _start+0x4,a6
			2858: RELOC32	.bss
    285c:	4eae ffdc      	jsr -36(a6)
    2860:	2079 0000 0044 	movea.l 44 __aqb_read2+0x4,a0
			2862: RELOC32	.bss
    2866:	2008           	move.l a0,d0
    2868:	670e           	beq.s 2878 _PALETTE+0x6e
    286a:	2228 0004      	move.l 4(a0),d1
    286e:	2c79 0000 0004 	movea.l 4 _start+0x4,a6
			2870: RELOC32	.bss
    2874:	4eae ffdc      	jsr -36(a6)
    2878:	2079 0000 0048 	movea.l 48 __aqb_read2+0x8,a0
			287a: RELOC32	.bss
    287e:	2008           	move.l a0,d0
    2880:	670e           	beq.s 2890 _PALETTE+0x86
    2882:	2228 0004      	move.l 4(a0),d1
    2886:	2c79 0000 0004 	movea.l 4 _start+0x4,a6
			2888: RELOC32	.bss
    288c:	4eae ffdc      	jsr -36(a6)
    2890:	2079 0000 004c 	movea.l 4c __aqb_read2+0xc,a0
			2892: RELOC32	.bss
    2896:	2008           	move.l a0,d0
    2898:	670e           	beq.s 28a8 _PALETTE+0x9e
    289a:	2228 0004      	move.l 4(a0),d1
    289e:	2c79 0000 0004 	movea.l 4 _start+0x4,a6
			28a0: RELOC32	.bss
    28a4:	4eae ffdc      	jsr -36(a6)
    28a8:	2439           	.short 0x2439
	...
			28aa: RELOC32	.bss

000028ac _COLOR:
    28ac:	0050 4879      	ori.w #18553,(a0)
    28b0:	0000 0000      	ori.b #0,d0
			28b0: RELOC32	.data
    28b4:	4eb9 0000 03f0 	jsr 3f0 _LEN_
			28b6: RELOC32	.text
    28ba:	2c79 0000 0004 	movea.l 4 _start+0x4,a6
			28bc: RELOC32	.bss
    28c0:	2202           	move.l d2,d1
    28c2:	243c 0000 0000 	move.l #0,d2
			28c4: RELOC32	.data
    28c8:	2600           	move.l d0,d3
    28ca:	4eae ffd0      	jsr -48(a6)
    28ce:	4ced 400c fff4 	movem.l -12(a5),d2-d3/a6
    28d4:	4e5d           	unlk a5
    28d6:	4e75           	rts
